ARM GAS  C:\Users\simay\AppData\Local\Temp\cctPq0DA.s 			page 1


   1              		.cpu cortex-m0plus
   2              		.arch armv6s-m
   3              		.fpu softvfp
   4              		.eabi_attribute 20, 1
   5              		.eabi_attribute 21, 1
   6              		.eabi_attribute 23, 3
   7              		.eabi_attribute 24, 1
   8              		.eabi_attribute 25, 1
   9              		.eabi_attribute 26, 1
  10              		.eabi_attribute 30, 1
  11              		.eabi_attribute 34, 0
  12              		.eabi_attribute 18, 4
  13              		.file	"stm32c0xx_hal_rcc.c"
  14              		.text
  15              	.Ltext0:
  16              		.cfi_sections	.debug_frame
  17              		.file 1 "Drivers/STM32C0xx_HAL_Driver/Src/stm32c0xx_hal_rcc.c"
  18              		.section	.text.HAL_RCC_DeInit,"ax",%progbits
  19              		.align	1
  20              		.global	HAL_RCC_DeInit
  21              		.syntax unified
  22              		.code	16
  23              		.thumb_func
  25              	HAL_RCC_DeInit:
  26              	.LFB230:
   1:Drivers/STM32C0xx_HAL_Driver/Src/stm32c0xx_hal_rcc.c **** /**
   2:Drivers/STM32C0xx_HAL_Driver/Src/stm32c0xx_hal_rcc.c ****   ******************************************************************************
   3:Drivers/STM32C0xx_HAL_Driver/Src/stm32c0xx_hal_rcc.c ****   * @file    stm32c0xx_hal_rcc.c
   4:Drivers/STM32C0xx_HAL_Driver/Src/stm32c0xx_hal_rcc.c ****   * @author  MCD Application Team
   5:Drivers/STM32C0xx_HAL_Driver/Src/stm32c0xx_hal_rcc.c ****   * @brief   RCC HAL module driver.
   6:Drivers/STM32C0xx_HAL_Driver/Src/stm32c0xx_hal_rcc.c ****   *          This file provides firmware functions to manage the following
   7:Drivers/STM32C0xx_HAL_Driver/Src/stm32c0xx_hal_rcc.c ****   *          functionalities of the Reset and Clock Control (RCC) peripheral:
   8:Drivers/STM32C0xx_HAL_Driver/Src/stm32c0xx_hal_rcc.c ****   *           + Initialization and de-initialization functions
   9:Drivers/STM32C0xx_HAL_Driver/Src/stm32c0xx_hal_rcc.c ****   *           + Peripheral Control functions
  10:Drivers/STM32C0xx_HAL_Driver/Src/stm32c0xx_hal_rcc.c ****   *
  11:Drivers/STM32C0xx_HAL_Driver/Src/stm32c0xx_hal_rcc.c ****   ******************************************************************************
  12:Drivers/STM32C0xx_HAL_Driver/Src/stm32c0xx_hal_rcc.c ****   * @attention
  13:Drivers/STM32C0xx_HAL_Driver/Src/stm32c0xx_hal_rcc.c ****   *
  14:Drivers/STM32C0xx_HAL_Driver/Src/stm32c0xx_hal_rcc.c ****   * Copyright (c) 2022 STMicroelectronics.
  15:Drivers/STM32C0xx_HAL_Driver/Src/stm32c0xx_hal_rcc.c ****   * All rights reserved.
  16:Drivers/STM32C0xx_HAL_Driver/Src/stm32c0xx_hal_rcc.c ****   *
  17:Drivers/STM32C0xx_HAL_Driver/Src/stm32c0xx_hal_rcc.c ****   * This software is licensed under terms that can be found in the LICENSE file
  18:Drivers/STM32C0xx_HAL_Driver/Src/stm32c0xx_hal_rcc.c ****   * in the root directory of this software component.
  19:Drivers/STM32C0xx_HAL_Driver/Src/stm32c0xx_hal_rcc.c ****   * If no LICENSE file comes with this software, it is provided AS-IS.
  20:Drivers/STM32C0xx_HAL_Driver/Src/stm32c0xx_hal_rcc.c ****   *
  21:Drivers/STM32C0xx_HAL_Driver/Src/stm32c0xx_hal_rcc.c ****   ******************************************************************************
  22:Drivers/STM32C0xx_HAL_Driver/Src/stm32c0xx_hal_rcc.c ****   @verbatim
  23:Drivers/STM32C0xx_HAL_Driver/Src/stm32c0xx_hal_rcc.c ****   ==============================================================================
  24:Drivers/STM32C0xx_HAL_Driver/Src/stm32c0xx_hal_rcc.c ****                       ##### RCC specific features #####
  25:Drivers/STM32C0xx_HAL_Driver/Src/stm32c0xx_hal_rcc.c ****   ==============================================================================
  26:Drivers/STM32C0xx_HAL_Driver/Src/stm32c0xx_hal_rcc.c ****     [..]
  27:Drivers/STM32C0xx_HAL_Driver/Src/stm32c0xx_hal_rcc.c ****       After reset the device is running from High Speed Internal oscillator
  28:Drivers/STM32C0xx_HAL_Driver/Src/stm32c0xx_hal_rcc.c ****       divided by 4 that is the default system clock with Flash 0 wait state.
  29:Drivers/STM32C0xx_HAL_Driver/Src/stm32c0xx_hal_rcc.c **** 
  30:Drivers/STM32C0xx_HAL_Driver/Src/stm32c0xx_hal_rcc.c ****       (+) There is no prescaler on High speed (AHB) and Low speed (APB) busses:
  31:Drivers/STM32C0xx_HAL_Driver/Src/stm32c0xx_hal_rcc.c ****           all peripherals mapped on these busses are running at HSI speed.
  32:Drivers/STM32C0xx_HAL_Driver/Src/stm32c0xx_hal_rcc.c ****       (+) The clock for all peripherals is switched off, except the SRAM and FLASH.
ARM GAS  C:\Users\simay\AppData\Local\Temp\cctPq0DA.s 			page 2


  33:Drivers/STM32C0xx_HAL_Driver/Src/stm32c0xx_hal_rcc.c ****       (+) All GPIOs are in analog mode
  34:Drivers/STM32C0xx_HAL_Driver/Src/stm32c0xx_hal_rcc.c **** 
  35:Drivers/STM32C0xx_HAL_Driver/Src/stm32c0xx_hal_rcc.c ****     [..]
  36:Drivers/STM32C0xx_HAL_Driver/Src/stm32c0xx_hal_rcc.c ****       Once the device started from reset, the user application has to:
  37:Drivers/STM32C0xx_HAL_Driver/Src/stm32c0xx_hal_rcc.c ****       (+) Configure the clock source to be used to drive the System clock
  38:Drivers/STM32C0xx_HAL_Driver/Src/stm32c0xx_hal_rcc.c ****           (if the application needs higher frequency/performance)
  39:Drivers/STM32C0xx_HAL_Driver/Src/stm32c0xx_hal_rcc.c ****       (+) Configure the System clock frequency and Flash settings
  40:Drivers/STM32C0xx_HAL_Driver/Src/stm32c0xx_hal_rcc.c ****       (+) Configure the AHB and APB busses prescalers
  41:Drivers/STM32C0xx_HAL_Driver/Src/stm32c0xx_hal_rcc.c ****       (+) Enable the clock for the peripheral(s) to be used
  42:Drivers/STM32C0xx_HAL_Driver/Src/stm32c0xx_hal_rcc.c ****       (+) Configure the clock source(s) for peripherals which clocks are not
  43:Drivers/STM32C0xx_HAL_Driver/Src/stm32c0xx_hal_rcc.c ****           derived from the System clock (RTC, ADC, USART, I2C, I2S)
  44:Drivers/STM32C0xx_HAL_Driver/Src/stm32c0xx_hal_rcc.c **** 
  45:Drivers/STM32C0xx_HAL_Driver/Src/stm32c0xx_hal_rcc.c ****   @endverbatim
  46:Drivers/STM32C0xx_HAL_Driver/Src/stm32c0xx_hal_rcc.c ****   ******************************************************************************
  47:Drivers/STM32C0xx_HAL_Driver/Src/stm32c0xx_hal_rcc.c ****   */
  48:Drivers/STM32C0xx_HAL_Driver/Src/stm32c0xx_hal_rcc.c **** 
  49:Drivers/STM32C0xx_HAL_Driver/Src/stm32c0xx_hal_rcc.c **** /* Includes ------------------------------------------------------------------*/
  50:Drivers/STM32C0xx_HAL_Driver/Src/stm32c0xx_hal_rcc.c **** #include "stm32c0xx_hal.h"
  51:Drivers/STM32C0xx_HAL_Driver/Src/stm32c0xx_hal_rcc.c **** 
  52:Drivers/STM32C0xx_HAL_Driver/Src/stm32c0xx_hal_rcc.c **** /** @addtogroup STM32C0xx_HAL_Driver
  53:Drivers/STM32C0xx_HAL_Driver/Src/stm32c0xx_hal_rcc.c ****   * @{
  54:Drivers/STM32C0xx_HAL_Driver/Src/stm32c0xx_hal_rcc.c ****   */
  55:Drivers/STM32C0xx_HAL_Driver/Src/stm32c0xx_hal_rcc.c **** 
  56:Drivers/STM32C0xx_HAL_Driver/Src/stm32c0xx_hal_rcc.c **** /** @defgroup RCC RCC
  57:Drivers/STM32C0xx_HAL_Driver/Src/stm32c0xx_hal_rcc.c ****   * @brief RCC HAL module driver
  58:Drivers/STM32C0xx_HAL_Driver/Src/stm32c0xx_hal_rcc.c ****   * @{
  59:Drivers/STM32C0xx_HAL_Driver/Src/stm32c0xx_hal_rcc.c ****   */
  60:Drivers/STM32C0xx_HAL_Driver/Src/stm32c0xx_hal_rcc.c **** 
  61:Drivers/STM32C0xx_HAL_Driver/Src/stm32c0xx_hal_rcc.c **** #ifdef HAL_RCC_MODULE_ENABLED
  62:Drivers/STM32C0xx_HAL_Driver/Src/stm32c0xx_hal_rcc.c **** 
  63:Drivers/STM32C0xx_HAL_Driver/Src/stm32c0xx_hal_rcc.c **** /* Private typedef -----------------------------------------------------------*/
  64:Drivers/STM32C0xx_HAL_Driver/Src/stm32c0xx_hal_rcc.c **** /* Private define ------------------------------------------------------------*/
  65:Drivers/STM32C0xx_HAL_Driver/Src/stm32c0xx_hal_rcc.c **** /** @defgroup RCC_Private_Constants RCC Private Constants
  66:Drivers/STM32C0xx_HAL_Driver/Src/stm32c0xx_hal_rcc.c ****   * @{
  67:Drivers/STM32C0xx_HAL_Driver/Src/stm32c0xx_hal_rcc.c ****   */
  68:Drivers/STM32C0xx_HAL_Driver/Src/stm32c0xx_hal_rcc.c **** #define RCC_HSE_TIMEOUT_VALUE          HSE_STARTUP_TIMEOUT
  69:Drivers/STM32C0xx_HAL_Driver/Src/stm32c0xx_hal_rcc.c **** #define RCC_HSI_TIMEOUT_VALUE          (2U)    /* 2 ms (minimum Tick + 1) */
  70:Drivers/STM32C0xx_HAL_Driver/Src/stm32c0xx_hal_rcc.c **** #define RCC_LSI_TIMEOUT_VALUE          (2U)    /* 2 ms (minimum Tick + 1) */
  71:Drivers/STM32C0xx_HAL_Driver/Src/stm32c0xx_hal_rcc.c **** #if defined(RCC_CR_HSIUSB48ON)
  72:Drivers/STM32C0xx_HAL_Driver/Src/stm32c0xx_hal_rcc.c **** #define HSI48_TIMEOUT_VALUE            (2U)    /* 2 ms (minimum Tick + 1) */
  73:Drivers/STM32C0xx_HAL_Driver/Src/stm32c0xx_hal_rcc.c **** #endif /* RCC_CR_HSIUSB48ON */
  74:Drivers/STM32C0xx_HAL_Driver/Src/stm32c0xx_hal_rcc.c **** #define RCC_CLOCKSWITCH_TIMEOUT_VALUE  (5000U) /* 5 s    */
  75:Drivers/STM32C0xx_HAL_Driver/Src/stm32c0xx_hal_rcc.c **** 
  76:Drivers/STM32C0xx_HAL_Driver/Src/stm32c0xx_hal_rcc.c **** /**
  77:Drivers/STM32C0xx_HAL_Driver/Src/stm32c0xx_hal_rcc.c ****   * @}
  78:Drivers/STM32C0xx_HAL_Driver/Src/stm32c0xx_hal_rcc.c ****   */
  79:Drivers/STM32C0xx_HAL_Driver/Src/stm32c0xx_hal_rcc.c **** 
  80:Drivers/STM32C0xx_HAL_Driver/Src/stm32c0xx_hal_rcc.c **** /* Private macro -------------------------------------------------------------*/
  81:Drivers/STM32C0xx_HAL_Driver/Src/stm32c0xx_hal_rcc.c **** /** @defgroup RCC_Private_Macros RCC Private Macros
  82:Drivers/STM32C0xx_HAL_Driver/Src/stm32c0xx_hal_rcc.c ****   * @{
  83:Drivers/STM32C0xx_HAL_Driver/Src/stm32c0xx_hal_rcc.c ****   */
  84:Drivers/STM32C0xx_HAL_Driver/Src/stm32c0xx_hal_rcc.c **** #define RCC_GET_MCO_GPIO_PIN(__RCC_MCOx__)   ((__RCC_MCOx__) & GPIO_PIN_MASK)
  85:Drivers/STM32C0xx_HAL_Driver/Src/stm32c0xx_hal_rcc.c **** 
  86:Drivers/STM32C0xx_HAL_Driver/Src/stm32c0xx_hal_rcc.c **** #define RCC_GET_MCO_GPIO_AF(__RCC_MCOx__)    (((__RCC_MCOx__) & RCC_MCO_GPIOAF_MASK) >> RCC_MCO_GPI
  87:Drivers/STM32C0xx_HAL_Driver/Src/stm32c0xx_hal_rcc.c **** 
  88:Drivers/STM32C0xx_HAL_Driver/Src/stm32c0xx_hal_rcc.c **** #define RCC_GET_MCO_GPIO_INDEX(__RCC_MCOx__) (((__RCC_MCOx__) & RCC_MCO_GPIOPORT_MASK) >> RCC_MCO_G
  89:Drivers/STM32C0xx_HAL_Driver/Src/stm32c0xx_hal_rcc.c **** 
ARM GAS  C:\Users\simay\AppData\Local\Temp\cctPq0DA.s 			page 3


  90:Drivers/STM32C0xx_HAL_Driver/Src/stm32c0xx_hal_rcc.c **** #define RCC_GET_MCO_GPIO_PORT(__RCC_MCOx__)  (IOPORT_BASE + ((0x00000400UL) * RCC_GET_MCO_GPIO_INDE
  91:Drivers/STM32C0xx_HAL_Driver/Src/stm32c0xx_hal_rcc.c **** 
  92:Drivers/STM32C0xx_HAL_Driver/Src/stm32c0xx_hal_rcc.c **** /**
  93:Drivers/STM32C0xx_HAL_Driver/Src/stm32c0xx_hal_rcc.c ****   * @}
  94:Drivers/STM32C0xx_HAL_Driver/Src/stm32c0xx_hal_rcc.c ****   */
  95:Drivers/STM32C0xx_HAL_Driver/Src/stm32c0xx_hal_rcc.c **** 
  96:Drivers/STM32C0xx_HAL_Driver/Src/stm32c0xx_hal_rcc.c **** /* Private variables ---------------------------------------------------------*/
  97:Drivers/STM32C0xx_HAL_Driver/Src/stm32c0xx_hal_rcc.c **** /** @defgroup RCC_Private_Variables RCC Private Variables
  98:Drivers/STM32C0xx_HAL_Driver/Src/stm32c0xx_hal_rcc.c ****   * @{
  99:Drivers/STM32C0xx_HAL_Driver/Src/stm32c0xx_hal_rcc.c ****   */
 100:Drivers/STM32C0xx_HAL_Driver/Src/stm32c0xx_hal_rcc.c **** 
 101:Drivers/STM32C0xx_HAL_Driver/Src/stm32c0xx_hal_rcc.c **** /**
 102:Drivers/STM32C0xx_HAL_Driver/Src/stm32c0xx_hal_rcc.c ****   * @}
 103:Drivers/STM32C0xx_HAL_Driver/Src/stm32c0xx_hal_rcc.c ****   */
 104:Drivers/STM32C0xx_HAL_Driver/Src/stm32c0xx_hal_rcc.c **** 
 105:Drivers/STM32C0xx_HAL_Driver/Src/stm32c0xx_hal_rcc.c **** /* Private function prototypes -----------------------------------------------*/
 106:Drivers/STM32C0xx_HAL_Driver/Src/stm32c0xx_hal_rcc.c **** /* Exported functions --------------------------------------------------------*/
 107:Drivers/STM32C0xx_HAL_Driver/Src/stm32c0xx_hal_rcc.c **** 
 108:Drivers/STM32C0xx_HAL_Driver/Src/stm32c0xx_hal_rcc.c **** /** @defgroup RCC_Exported_Functions RCC Exported Functions
 109:Drivers/STM32C0xx_HAL_Driver/Src/stm32c0xx_hal_rcc.c ****   * @{
 110:Drivers/STM32C0xx_HAL_Driver/Src/stm32c0xx_hal_rcc.c ****   */
 111:Drivers/STM32C0xx_HAL_Driver/Src/stm32c0xx_hal_rcc.c **** 
 112:Drivers/STM32C0xx_HAL_Driver/Src/stm32c0xx_hal_rcc.c **** /** @defgroup RCC_Exported_Functions_Group1 Initialization and de-initialization functions
 113:Drivers/STM32C0xx_HAL_Driver/Src/stm32c0xx_hal_rcc.c ****   *  @brief    Initialization and Configuration functions
 114:Drivers/STM32C0xx_HAL_Driver/Src/stm32c0xx_hal_rcc.c ****   *
 115:Drivers/STM32C0xx_HAL_Driver/Src/stm32c0xx_hal_rcc.c ****   @verbatim
 116:Drivers/STM32C0xx_HAL_Driver/Src/stm32c0xx_hal_rcc.c ****  ===============================================================================
 117:Drivers/STM32C0xx_HAL_Driver/Src/stm32c0xx_hal_rcc.c ****            ##### Initialization and de-initialization functions #####
 118:Drivers/STM32C0xx_HAL_Driver/Src/stm32c0xx_hal_rcc.c ****  ===============================================================================
 119:Drivers/STM32C0xx_HAL_Driver/Src/stm32c0xx_hal_rcc.c ****     [..]
 120:Drivers/STM32C0xx_HAL_Driver/Src/stm32c0xx_hal_rcc.c ****       This section provides functions allowing to configure the internal and external oscillators
 121:Drivers/STM32C0xx_HAL_Driver/Src/stm32c0xx_hal_rcc.c ****       (HSE, HSI, LSE, LSI, CSS and MCO) and the System busses clocks (SYSCLK, AHB, APB)
 122:Drivers/STM32C0xx_HAL_Driver/Src/stm32c0xx_hal_rcc.c **** 
 123:Drivers/STM32C0xx_HAL_Driver/Src/stm32c0xx_hal_rcc.c ****     [..] Internal/external clock
 124:Drivers/STM32C0xx_HAL_Driver/Src/stm32c0xx_hal_rcc.c ****          (+) HSI (high-speed internal): 48 MHz factory-trimmed RC used directly as System clock sou
 125:Drivers/STM32C0xx_HAL_Driver/Src/stm32c0xx_hal_rcc.c **** 
 126:Drivers/STM32C0xx_HAL_Driver/Src/stm32c0xx_hal_rcc.c ****          (+) LSI (low-speed internal): 32 KHz low consumption RC used as IWDG and/or RTC
 127:Drivers/STM32C0xx_HAL_Driver/Src/stm32c0xx_hal_rcc.c ****              clock source.
 128:Drivers/STM32C0xx_HAL_Driver/Src/stm32c0xx_hal_rcc.c **** 
 129:Drivers/STM32C0xx_HAL_Driver/Src/stm32c0xx_hal_rcc.c ****          (+) HSE (high-speed external): 4 to 48 MHz crystal oscillator used directly or
 130:Drivers/STM32C0xx_HAL_Driver/Src/stm32c0xx_hal_rcc.c ****              through the PLL as System clock source. Can be used also optionally as RTC clock sourc
 131:Drivers/STM32C0xx_HAL_Driver/Src/stm32c0xx_hal_rcc.c **** 
 132:Drivers/STM32C0xx_HAL_Driver/Src/stm32c0xx_hal_rcc.c ****          (+) LSE (low-speed external): 32.768 KHz oscillator used optionally as RTC clock source.
 133:Drivers/STM32C0xx_HAL_Driver/Src/stm32c0xx_hal_rcc.c **** 
 134:Drivers/STM32C0xx_HAL_Driver/Src/stm32c0xx_hal_rcc.c ****          (+) CSS (Clock security system): once enabled, if a HSE or LSE clock failure occurs,
 135:Drivers/STM32C0xx_HAL_Driver/Src/stm32c0xx_hal_rcc.c ****              the System clock is automatically switched respectively to HSI or LSI and an interrupt
 136:Drivers/STM32C0xx_HAL_Driver/Src/stm32c0xx_hal_rcc.c ****              is generated if enabled. The interrupt is linked to the Cortex-M0+ NMI (Non-Maskable I
 137:Drivers/STM32C0xx_HAL_Driver/Src/stm32c0xx_hal_rcc.c ****              exception vector.
 138:Drivers/STM32C0xx_HAL_Driver/Src/stm32c0xx_hal_rcc.c **** 
 139:Drivers/STM32C0xx_HAL_Driver/Src/stm32c0xx_hal_rcc.c ****          (+) MCOx (microcontroller clock output): used to output LSI, HSI, LSE, HSE and SYSCLK on d
 140:Drivers/STM32C0xx_HAL_Driver/Src/stm32c0xx_hal_rcc.c **** 
 141:Drivers/STM32C0xx_HAL_Driver/Src/stm32c0xx_hal_rcc.c ****     [..] System, AHB and APB busses clocks configuration
 142:Drivers/STM32C0xx_HAL_Driver/Src/stm32c0xx_hal_rcc.c ****          (+) Several clock sources can be used to drive the System clock (SYSCLK): HSI,
 143:Drivers/STM32C0xx_HAL_Driver/Src/stm32c0xx_hal_rcc.c ****              HSE, LSI and LSE.
 144:Drivers/STM32C0xx_HAL_Driver/Src/stm32c0xx_hal_rcc.c ****              The AHB clock (HCLK) is derived from System clock through configurable
 145:Drivers/STM32C0xx_HAL_Driver/Src/stm32c0xx_hal_rcc.c ****              prescaler and used to clock the CPU, memory and peripherals mapped
 146:Drivers/STM32C0xx_HAL_Driver/Src/stm32c0xx_hal_rcc.c ****              on AHB bus (DMA, GPIO...).and APB (PCLK1) clock is derived
ARM GAS  C:\Users\simay\AppData\Local\Temp\cctPq0DA.s 			page 4


 147:Drivers/STM32C0xx_HAL_Driver/Src/stm32c0xx_hal_rcc.c ****              from AHB clock through configurable prescalers and used to clock
 148:Drivers/STM32C0xx_HAL_Driver/Src/stm32c0xx_hal_rcc.c ****              the peripherals mapped on these busses. You can use
 149:Drivers/STM32C0xx_HAL_Driver/Src/stm32c0xx_hal_rcc.c ****              "@ref HAL_RCC_GetSysClockFreq()" function to retrieve the frequencies of these clocks.
 150:Drivers/STM32C0xx_HAL_Driver/Src/stm32c0xx_hal_rcc.c **** 
 151:Drivers/STM32C0xx_HAL_Driver/Src/stm32c0xx_hal_rcc.c ****          -@- All the peripheral clocks are derived from the System clock (SYSCLK) except:
 152:Drivers/STM32C0xx_HAL_Driver/Src/stm32c0xx_hal_rcc.c **** 
 153:Drivers/STM32C0xx_HAL_Driver/Src/stm32c0xx_hal_rcc.c ****             (+@) RTC: the RTC clock can be derived either from the LSI, LSE or HSE clock
 154:Drivers/STM32C0xx_HAL_Driver/Src/stm32c0xx_hal_rcc.c ****                 divided by 2 to 31.
 155:Drivers/STM32C0xx_HAL_Driver/Src/stm32c0xx_hal_rcc.c ****                 You have to use @ref __HAL_RCC_RTC_ENABLE() and @ref HAL_RCCEx_PeriphCLKConfig() fu
 156:Drivers/STM32C0xx_HAL_Driver/Src/stm32c0xx_hal_rcc.c ****                  to configure this clock.
 157:Drivers/STM32C0xx_HAL_Driver/Src/stm32c0xx_hal_rcc.c **** 
 158:Drivers/STM32C0xx_HAL_Driver/Src/stm32c0xx_hal_rcc.c ****             (+@) ADC: the ADC clock can be derived either from system clock or HSI
 159:Drivers/STM32C0xx_HAL_Driver/Src/stm32c0xx_hal_rcc.c **** 
 160:Drivers/STM32C0xx_HAL_Driver/Src/stm32c0xx_hal_rcc.c ****             (+@) USART: the USART clock can be derived either from APB clock or HSI or LSE
 161:Drivers/STM32C0xx_HAL_Driver/Src/stm32c0xx_hal_rcc.c ****             (+@) I2C: the I2C clock can be derived either from system clock or HSI
 162:Drivers/STM32C0xx_HAL_Driver/Src/stm32c0xx_hal_rcc.c **** 
 163:Drivers/STM32C0xx_HAL_Driver/Src/stm32c0xx_hal_rcc.c ****             (+@) I2S: the I2S clock can be derived either from system clock or HSI or external cloc
 164:Drivers/STM32C0xx_HAL_Driver/Src/stm32c0xx_hal_rcc.c **** 
 165:Drivers/STM32C0xx_HAL_Driver/Src/stm32c0xx_hal_rcc.c ****          (+) The maximum frequency of the SYSCLK, HCLK, PCLK is 48 MHz.
 166:Drivers/STM32C0xx_HAL_Driver/Src/stm32c0xx_hal_rcc.c **** 
 167:Drivers/STM32C0xx_HAL_Driver/Src/stm32c0xx_hal_rcc.c ****          (+) When the HSI48 oscillator is selected as the System clock (SYSCLK), the number of CPU 
 168:Drivers/STM32C0xx_HAL_Driver/Src/stm32c0xx_hal_rcc.c ****              be adjusted before any eventual update on the HSI48 clock division factor.
 169:Drivers/STM32C0xx_HAL_Driver/Src/stm32c0xx_hal_rcc.c **** 
 170:Drivers/STM32C0xx_HAL_Driver/Src/stm32c0xx_hal_rcc.c ****   @endverbatim
 171:Drivers/STM32C0xx_HAL_Driver/Src/stm32c0xx_hal_rcc.c **** 
 172:Drivers/STM32C0xx_HAL_Driver/Src/stm32c0xx_hal_rcc.c ****      (++)  Table 1. HCLK clock frequency.
 173:Drivers/STM32C0xx_HAL_Driver/Src/stm32c0xx_hal_rcc.c ****      (++)  +------------------------------------+
 174:Drivers/STM32C0xx_HAL_Driver/Src/stm32c0xx_hal_rcc.c ****      (++)  | Latency         |    HCLK clock    |
 175:Drivers/STM32C0xx_HAL_Driver/Src/stm32c0xx_hal_rcc.c ****      (++)  |                 |  frequency (MHz) |
 176:Drivers/STM32C0xx_HAL_Driver/Src/stm32c0xx_hal_rcc.c ****      (++)  |                 |------------------|
 177:Drivers/STM32C0xx_HAL_Driver/Src/stm32c0xx_hal_rcc.c ****      (++)  |                 | voltage range    |
 178:Drivers/STM32C0xx_HAL_Driver/Src/stm32c0xx_hal_rcc.c ****      (++)  |                 |  VDD33 2V - 3.6V |
 179:Drivers/STM32C0xx_HAL_Driver/Src/stm32c0xx_hal_rcc.c ****      (++)  |                 |  VDD12 1V - 1.32V|
 180:Drivers/STM32C0xx_HAL_Driver/Src/stm32c0xx_hal_rcc.c ****      (++)  |-----------------|------------------|
 181:Drivers/STM32C0xx_HAL_Driver/Src/stm32c0xx_hal_rcc.c ****      (++)  |0WS(1 CPU cycles)|  HCLK <= 24      |
 182:Drivers/STM32C0xx_HAL_Driver/Src/stm32c0xx_hal_rcc.c ****      (++)  |-----------------|------------------|
 183:Drivers/STM32C0xx_HAL_Driver/Src/stm32c0xx_hal_rcc.c ****      (++)  |1WS(2 CPU cycles)|  HCLK <= 48      |
 184:Drivers/STM32C0xx_HAL_Driver/Src/stm32c0xx_hal_rcc.c ****      (++)  +------------------------------------+
 185:Drivers/STM32C0xx_HAL_Driver/Src/stm32c0xx_hal_rcc.c ****      (++)
 186:Drivers/STM32C0xx_HAL_Driver/Src/stm32c0xx_hal_rcc.c ****    * @{
 187:Drivers/STM32C0xx_HAL_Driver/Src/stm32c0xx_hal_rcc.c ****   */
 188:Drivers/STM32C0xx_HAL_Driver/Src/stm32c0xx_hal_rcc.c **** 
 189:Drivers/STM32C0xx_HAL_Driver/Src/stm32c0xx_hal_rcc.c **** /**
 190:Drivers/STM32C0xx_HAL_Driver/Src/stm32c0xx_hal_rcc.c ****   * @brief  Reset the RCC clock configuration to the default reset state.
 191:Drivers/STM32C0xx_HAL_Driver/Src/stm32c0xx_hal_rcc.c ****   * @note   The default reset state of the clock configuration is given below:
 192:Drivers/STM32C0xx_HAL_Driver/Src/stm32c0xx_hal_rcc.c ****   *            - HSI ON and used as system clock source
 193:Drivers/STM32C0xx_HAL_Driver/Src/stm32c0xx_hal_rcc.c ****   *            - HSE OFF
 194:Drivers/STM32C0xx_HAL_Driver/Src/stm32c0xx_hal_rcc.c ****   *            - SYSDIV, AHB and APB prescaler set to 1.
 195:Drivers/STM32C0xx_HAL_Driver/Src/stm32c0xx_hal_rcc.c ****   *            - CSS, MCO1, MCO2 OFF
 196:Drivers/STM32C0xx_HAL_Driver/Src/stm32c0xx_hal_rcc.c ****   *            - All interrupts disabled
 197:Drivers/STM32C0xx_HAL_Driver/Src/stm32c0xx_hal_rcc.c ****   * @note   This function does not modify the configuration of the
 198:Drivers/STM32C0xx_HAL_Driver/Src/stm32c0xx_hal_rcc.c ****   *            - Peripheral clocks
 199:Drivers/STM32C0xx_HAL_Driver/Src/stm32c0xx_hal_rcc.c ****   *            - LSI, LSE and RTC clocks
 200:Drivers/STM32C0xx_HAL_Driver/Src/stm32c0xx_hal_rcc.c ****   * @retval HAL status
 201:Drivers/STM32C0xx_HAL_Driver/Src/stm32c0xx_hal_rcc.c ****   */
 202:Drivers/STM32C0xx_HAL_Driver/Src/stm32c0xx_hal_rcc.c **** HAL_StatusTypeDef HAL_RCC_DeInit(void)
 203:Drivers/STM32C0xx_HAL_Driver/Src/stm32c0xx_hal_rcc.c **** {
ARM GAS  C:\Users\simay\AppData\Local\Temp\cctPq0DA.s 			page 5


  27              		.loc 1 203 1 view -0
  28              		.cfi_startproc
  29              		@ args = 0, pretend = 0, frame = 0
  30              		@ frame_needed = 0, uses_anonymous_args = 0
  31 0000 70B5     		push	{r4, r5, r6, lr}
  32              	.LCFI0:
  33              		.cfi_def_cfa_offset 16
  34              		.cfi_offset 4, -16
  35              		.cfi_offset 5, -12
  36              		.cfi_offset 6, -8
  37              		.cfi_offset 14, -4
 204:Drivers/STM32C0xx_HAL_Driver/Src/stm32c0xx_hal_rcc.c ****   uint32_t tickstart;
  38              		.loc 1 204 3 view .LVU1
 205:Drivers/STM32C0xx_HAL_Driver/Src/stm32c0xx_hal_rcc.c **** 
 206:Drivers/STM32C0xx_HAL_Driver/Src/stm32c0xx_hal_rcc.c ****   /* Get Start Tick*/
 207:Drivers/STM32C0xx_HAL_Driver/Src/stm32c0xx_hal_rcc.c ****   tickstart = HAL_GetTick();
  39              		.loc 1 207 3 view .LVU2
  40              		.loc 1 207 15 is_stmt 0 view .LVU3
  41 0002 FFF7FEFF 		bl	HAL_GetTick
  42              	.LVL0:
  43 0006 0400     		movs	r4, r0
  44              	.LVL1:
 208:Drivers/STM32C0xx_HAL_Driver/Src/stm32c0xx_hal_rcc.c **** 
 209:Drivers/STM32C0xx_HAL_Driver/Src/stm32c0xx_hal_rcc.c ****   /* Set HSION bit to the reset value */
 210:Drivers/STM32C0xx_HAL_Driver/Src/stm32c0xx_hal_rcc.c ****   SET_BIT(RCC->CR, RCC_CR_HSION);
  45              		.loc 1 210 3 is_stmt 1 view .LVU4
  46 0008 264A     		ldr	r2, .L15
  47 000a 1168     		ldr	r1, [r2]
  48 000c 8023     		movs	r3, #128
  49 000e 5B00     		lsls	r3, r3, #1
  50 0010 0B43     		orrs	r3, r1
  51 0012 1360     		str	r3, [r2]
 211:Drivers/STM32C0xx_HAL_Driver/Src/stm32c0xx_hal_rcc.c **** 
 212:Drivers/STM32C0xx_HAL_Driver/Src/stm32c0xx_hal_rcc.c ****   /* Wait till HSI is ready */
 213:Drivers/STM32C0xx_HAL_Driver/Src/stm32c0xx_hal_rcc.c ****   while (READ_BIT(RCC->CR, RCC_CR_HSIRDY) == 0U)
  52              		.loc 1 213 3 view .LVU5
  53              	.LVL2:
  54              	.L2:
  55              		.loc 1 213 43 view .LVU6
  56              		.loc 1 213 10 is_stmt 0 view .LVU7
  57 0014 234B     		ldr	r3, .L15
  58 0016 1B68     		ldr	r3, [r3]
  59              		.loc 1 213 43 view .LVU8
  60 0018 5B05     		lsls	r3, r3, #21
  61 001a 06D4     		bmi	.L12
 214:Drivers/STM32C0xx_HAL_Driver/Src/stm32c0xx_hal_rcc.c ****   {
 215:Drivers/STM32C0xx_HAL_Driver/Src/stm32c0xx_hal_rcc.c ****     if ((HAL_GetTick() - tickstart) > RCC_HSI_TIMEOUT_VALUE)
  62              		.loc 1 215 5 is_stmt 1 view .LVU9
  63              		.loc 1 215 10 is_stmt 0 view .LVU10
  64 001c FFF7FEFF 		bl	HAL_GetTick
  65              	.LVL3:
  66              		.loc 1 215 24 discriminator 1 view .LVU11
  67 0020 001B     		subs	r0, r0, r4
  68              		.loc 1 215 8 discriminator 1 view .LVU12
  69 0022 0228     		cmp	r0, #2
  70 0024 F6D9     		bls	.L2
 216:Drivers/STM32C0xx_HAL_Driver/Src/stm32c0xx_hal_rcc.c ****     {
ARM GAS  C:\Users\simay\AppData\Local\Temp\cctPq0DA.s 			page 6


 217:Drivers/STM32C0xx_HAL_Driver/Src/stm32c0xx_hal_rcc.c ****       return HAL_TIMEOUT;
  71              		.loc 1 217 14 view .LVU13
  72 0026 0320     		movs	r0, #3
  73              	.L3:
 218:Drivers/STM32C0xx_HAL_Driver/Src/stm32c0xx_hal_rcc.c ****     }
 219:Drivers/STM32C0xx_HAL_Driver/Src/stm32c0xx_hal_rcc.c ****   }
 220:Drivers/STM32C0xx_HAL_Driver/Src/stm32c0xx_hal_rcc.c **** 
 221:Drivers/STM32C0xx_HAL_Driver/Src/stm32c0xx_hal_rcc.c ****   /* Set HSITRIM[6:0] bits to the reset value */
 222:Drivers/STM32C0xx_HAL_Driver/Src/stm32c0xx_hal_rcc.c ****   RCC->ICSCR = RCC_ICSCR_HSITRIM_6;
 223:Drivers/STM32C0xx_HAL_Driver/Src/stm32c0xx_hal_rcc.c **** 
 224:Drivers/STM32C0xx_HAL_Driver/Src/stm32c0xx_hal_rcc.c ****   /* Get Start Tick*/
 225:Drivers/STM32C0xx_HAL_Driver/Src/stm32c0xx_hal_rcc.c ****   tickstart = HAL_GetTick();
 226:Drivers/STM32C0xx_HAL_Driver/Src/stm32c0xx_hal_rcc.c **** 
 227:Drivers/STM32C0xx_HAL_Driver/Src/stm32c0xx_hal_rcc.c ****   /* Reset CFGR register (HSI is selected as system clock source) */
 228:Drivers/STM32C0xx_HAL_Driver/Src/stm32c0xx_hal_rcc.c ****   RCC->CFGR = 0x00000000u;
 229:Drivers/STM32C0xx_HAL_Driver/Src/stm32c0xx_hal_rcc.c **** 
 230:Drivers/STM32C0xx_HAL_Driver/Src/stm32c0xx_hal_rcc.c ****   /* Wait till HSI is ready */
 231:Drivers/STM32C0xx_HAL_Driver/Src/stm32c0xx_hal_rcc.c ****   while (READ_BIT(RCC->CFGR, RCC_CFGR_SWS) != 0U)
 232:Drivers/STM32C0xx_HAL_Driver/Src/stm32c0xx_hal_rcc.c ****   {
 233:Drivers/STM32C0xx_HAL_Driver/Src/stm32c0xx_hal_rcc.c ****     if ((HAL_GetTick() - tickstart) > RCC_CLOCKSWITCH_TIMEOUT_VALUE)
 234:Drivers/STM32C0xx_HAL_Driver/Src/stm32c0xx_hal_rcc.c ****     {
 235:Drivers/STM32C0xx_HAL_Driver/Src/stm32c0xx_hal_rcc.c ****       return HAL_TIMEOUT;
 236:Drivers/STM32C0xx_HAL_Driver/Src/stm32c0xx_hal_rcc.c ****     }
 237:Drivers/STM32C0xx_HAL_Driver/Src/stm32c0xx_hal_rcc.c ****   }
 238:Drivers/STM32C0xx_HAL_Driver/Src/stm32c0xx_hal_rcc.c **** 
 239:Drivers/STM32C0xx_HAL_Driver/Src/stm32c0xx_hal_rcc.c ****   /* Get Start Tick*/
 240:Drivers/STM32C0xx_HAL_Driver/Src/stm32c0xx_hal_rcc.c ****   tickstart = HAL_GetTick();
 241:Drivers/STM32C0xx_HAL_Driver/Src/stm32c0xx_hal_rcc.c **** 
 242:Drivers/STM32C0xx_HAL_Driver/Src/stm32c0xx_hal_rcc.c ****   /* Clear CR register in 2 steps: first to clear HSEON in case bypass was enabled */
 243:Drivers/STM32C0xx_HAL_Driver/Src/stm32c0xx_hal_rcc.c ****   RCC->CR &= ~RCC_CR_HSEON;
 244:Drivers/STM32C0xx_HAL_Driver/Src/stm32c0xx_hal_rcc.c **** 
 245:Drivers/STM32C0xx_HAL_Driver/Src/stm32c0xx_hal_rcc.c ****   /* Wait till HSEON is disabled */
 246:Drivers/STM32C0xx_HAL_Driver/Src/stm32c0xx_hal_rcc.c ****   while (READ_BIT(RCC->CR, RCC_CR_HSERDY) != 0U)
 247:Drivers/STM32C0xx_HAL_Driver/Src/stm32c0xx_hal_rcc.c ****   {
 248:Drivers/STM32C0xx_HAL_Driver/Src/stm32c0xx_hal_rcc.c ****     if ((HAL_GetTick() - tickstart) > RCC_HSE_TIMEOUT_VALUE)
 249:Drivers/STM32C0xx_HAL_Driver/Src/stm32c0xx_hal_rcc.c ****     {
 250:Drivers/STM32C0xx_HAL_Driver/Src/stm32c0xx_hal_rcc.c ****       return HAL_TIMEOUT;
 251:Drivers/STM32C0xx_HAL_Driver/Src/stm32c0xx_hal_rcc.c ****     }
 252:Drivers/STM32C0xx_HAL_Driver/Src/stm32c0xx_hal_rcc.c ****   }
 253:Drivers/STM32C0xx_HAL_Driver/Src/stm32c0xx_hal_rcc.c **** 
 254:Drivers/STM32C0xx_HAL_Driver/Src/stm32c0xx_hal_rcc.c ****   /* Then again to HSEBYP in case bypass was enabled */
 255:Drivers/STM32C0xx_HAL_Driver/Src/stm32c0xx_hal_rcc.c ****   RCC->CR &= ~RCC_CR_HSEBYP;
 256:Drivers/STM32C0xx_HAL_Driver/Src/stm32c0xx_hal_rcc.c **** 
 257:Drivers/STM32C0xx_HAL_Driver/Src/stm32c0xx_hal_rcc.c ****   /* Disable all interrupts */
 258:Drivers/STM32C0xx_HAL_Driver/Src/stm32c0xx_hal_rcc.c ****   RCC->CIER = 0x00000000u;
 259:Drivers/STM32C0xx_HAL_Driver/Src/stm32c0xx_hal_rcc.c **** 
 260:Drivers/STM32C0xx_HAL_Driver/Src/stm32c0xx_hal_rcc.c ****   /* Clear all flags */
 261:Drivers/STM32C0xx_HAL_Driver/Src/stm32c0xx_hal_rcc.c ****   RCC->CICR = 0xFFFFFFFFu;
 262:Drivers/STM32C0xx_HAL_Driver/Src/stm32c0xx_hal_rcc.c **** 
 263:Drivers/STM32C0xx_HAL_Driver/Src/stm32c0xx_hal_rcc.c ****   /* Update the SystemCoreClock global variable */
 264:Drivers/STM32C0xx_HAL_Driver/Src/stm32c0xx_hal_rcc.c ****   SystemCoreClock = HSI_VALUE;
 265:Drivers/STM32C0xx_HAL_Driver/Src/stm32c0xx_hal_rcc.c **** 
 266:Drivers/STM32C0xx_HAL_Driver/Src/stm32c0xx_hal_rcc.c ****   /* Adapt Systick interrupt period */
 267:Drivers/STM32C0xx_HAL_Driver/Src/stm32c0xx_hal_rcc.c ****   if (HAL_InitTick(uwTickPrio) != HAL_OK)
 268:Drivers/STM32C0xx_HAL_Driver/Src/stm32c0xx_hal_rcc.c ****   {
 269:Drivers/STM32C0xx_HAL_Driver/Src/stm32c0xx_hal_rcc.c ****     return HAL_ERROR;
 270:Drivers/STM32C0xx_HAL_Driver/Src/stm32c0xx_hal_rcc.c ****   }
ARM GAS  C:\Users\simay\AppData\Local\Temp\cctPq0DA.s 			page 7


 271:Drivers/STM32C0xx_HAL_Driver/Src/stm32c0xx_hal_rcc.c ****   else
 272:Drivers/STM32C0xx_HAL_Driver/Src/stm32c0xx_hal_rcc.c ****   {
 273:Drivers/STM32C0xx_HAL_Driver/Src/stm32c0xx_hal_rcc.c ****     return HAL_OK;
 274:Drivers/STM32C0xx_HAL_Driver/Src/stm32c0xx_hal_rcc.c ****   }
 275:Drivers/STM32C0xx_HAL_Driver/Src/stm32c0xx_hal_rcc.c **** }
  74              		.loc 1 275 1 view .LVU14
  75              		@ sp needed
  76              	.LVL4:
  77              		.loc 1 275 1 view .LVU15
  78 0028 70BD     		pop	{r4, r5, r6, pc}
  79              	.LVL5:
  80              	.L12:
 222:Drivers/STM32C0xx_HAL_Driver/Src/stm32c0xx_hal_rcc.c **** 
  81              		.loc 1 222 3 is_stmt 1 view .LVU16
 222:Drivers/STM32C0xx_HAL_Driver/Src/stm32c0xx_hal_rcc.c **** 
  82              		.loc 1 222 14 is_stmt 0 view .LVU17
  83 002a 1E4D     		ldr	r5, .L15
  84 002c 8023     		movs	r3, #128
  85 002e DB01     		lsls	r3, r3, #7
  86 0030 6B60     		str	r3, [r5, #4]
 225:Drivers/STM32C0xx_HAL_Driver/Src/stm32c0xx_hal_rcc.c **** 
  87              		.loc 1 225 3 is_stmt 1 view .LVU18
 225:Drivers/STM32C0xx_HAL_Driver/Src/stm32c0xx_hal_rcc.c **** 
  88              		.loc 1 225 15 is_stmt 0 view .LVU19
  89 0032 FFF7FEFF 		bl	HAL_GetTick
  90              	.LVL6:
  91 0036 0400     		movs	r4, r0
  92              	.LVL7:
 228:Drivers/STM32C0xx_HAL_Driver/Src/stm32c0xx_hal_rcc.c **** 
  93              		.loc 1 228 3 is_stmt 1 view .LVU20
 228:Drivers/STM32C0xx_HAL_Driver/Src/stm32c0xx_hal_rcc.c **** 
  94              		.loc 1 228 13 is_stmt 0 view .LVU21
  95 0038 0023     		movs	r3, #0
  96 003a AB60     		str	r3, [r5, #8]
 231:Drivers/STM32C0xx_HAL_Driver/Src/stm32c0xx_hal_rcc.c ****   {
  97              		.loc 1 231 3 is_stmt 1 view .LVU22
  98              	.LVL8:
  99              	.L5:
 231:Drivers/STM32C0xx_HAL_Driver/Src/stm32c0xx_hal_rcc.c ****   {
 100              		.loc 1 231 44 view .LVU23
 231:Drivers/STM32C0xx_HAL_Driver/Src/stm32c0xx_hal_rcc.c ****   {
 101              		.loc 1 231 10 is_stmt 0 view .LVU24
 102 003c 194B     		ldr	r3, .L15
 103 003e 9B68     		ldr	r3, [r3, #8]
 104 0040 3822     		movs	r2, #56
 231:Drivers/STM32C0xx_HAL_Driver/Src/stm32c0xx_hal_rcc.c ****   {
 105              		.loc 1 231 44 view .LVU25
 106 0042 1A42     		tst	r2, r3
 107 0044 07D0     		beq	.L13
 233:Drivers/STM32C0xx_HAL_Driver/Src/stm32c0xx_hal_rcc.c ****     {
 108              		.loc 1 233 5 is_stmt 1 view .LVU26
 233:Drivers/STM32C0xx_HAL_Driver/Src/stm32c0xx_hal_rcc.c ****     {
 109              		.loc 1 233 10 is_stmt 0 view .LVU27
 110 0046 FFF7FEFF 		bl	HAL_GetTick
 111              	.LVL9:
 233:Drivers/STM32C0xx_HAL_Driver/Src/stm32c0xx_hal_rcc.c ****     {
 112              		.loc 1 233 24 discriminator 1 view .LVU28
ARM GAS  C:\Users\simay\AppData\Local\Temp\cctPq0DA.s 			page 8


 113 004a 001B     		subs	r0, r0, r4
 233:Drivers/STM32C0xx_HAL_Driver/Src/stm32c0xx_hal_rcc.c ****     {
 114              		.loc 1 233 8 discriminator 1 view .LVU29
 115 004c 164B     		ldr	r3, .L15+4
 116 004e 9842     		cmp	r0, r3
 117 0050 F4D9     		bls	.L5
 235:Drivers/STM32C0xx_HAL_Driver/Src/stm32c0xx_hal_rcc.c ****     }
 118              		.loc 1 235 14 view .LVU30
 119 0052 0320     		movs	r0, #3
 120 0054 E8E7     		b	.L3
 121              	.L13:
 240:Drivers/STM32C0xx_HAL_Driver/Src/stm32c0xx_hal_rcc.c **** 
 122              		.loc 1 240 3 is_stmt 1 view .LVU31
 240:Drivers/STM32C0xx_HAL_Driver/Src/stm32c0xx_hal_rcc.c **** 
 123              		.loc 1 240 15 is_stmt 0 view .LVU32
 124 0056 FFF7FEFF 		bl	HAL_GetTick
 125              	.LVL10:
 126 005a 0400     		movs	r4, r0
 127              	.LVL11:
 243:Drivers/STM32C0xx_HAL_Driver/Src/stm32c0xx_hal_rcc.c **** 
 128              		.loc 1 243 3 is_stmt 1 view .LVU33
 243:Drivers/STM32C0xx_HAL_Driver/Src/stm32c0xx_hal_rcc.c **** 
 129              		.loc 1 243 6 is_stmt 0 view .LVU34
 130 005c 114A     		ldr	r2, .L15
 131 005e 1368     		ldr	r3, [r2]
 243:Drivers/STM32C0xx_HAL_Driver/Src/stm32c0xx_hal_rcc.c **** 
 132              		.loc 1 243 11 view .LVU35
 133 0060 1249     		ldr	r1, .L15+8
 134 0062 0B40     		ands	r3, r1
 135 0064 1360     		str	r3, [r2]
 246:Drivers/STM32C0xx_HAL_Driver/Src/stm32c0xx_hal_rcc.c ****   {
 136              		.loc 1 246 3 is_stmt 1 view .LVU36
 137              	.LVL12:
 138              	.L7:
 246:Drivers/STM32C0xx_HAL_Driver/Src/stm32c0xx_hal_rcc.c ****   {
 139              		.loc 1 246 43 view .LVU37
 246:Drivers/STM32C0xx_HAL_Driver/Src/stm32c0xx_hal_rcc.c ****   {
 140              		.loc 1 246 10 is_stmt 0 view .LVU38
 141 0066 0F4B     		ldr	r3, .L15
 142 0068 1B68     		ldr	r3, [r3]
 246:Drivers/STM32C0xx_HAL_Driver/Src/stm32c0xx_hal_rcc.c ****   {
 143              		.loc 1 246 43 view .LVU39
 144 006a 9B03     		lsls	r3, r3, #14
 145 006c 06D5     		bpl	.L14
 248:Drivers/STM32C0xx_HAL_Driver/Src/stm32c0xx_hal_rcc.c ****     {
 146              		.loc 1 248 5 is_stmt 1 view .LVU40
 248:Drivers/STM32C0xx_HAL_Driver/Src/stm32c0xx_hal_rcc.c ****     {
 147              		.loc 1 248 10 is_stmt 0 view .LVU41
 148 006e FFF7FEFF 		bl	HAL_GetTick
 149              	.LVL13:
 248:Drivers/STM32C0xx_HAL_Driver/Src/stm32c0xx_hal_rcc.c ****     {
 150              		.loc 1 248 24 discriminator 1 view .LVU42
 151 0072 001B     		subs	r0, r0, r4
 248:Drivers/STM32C0xx_HAL_Driver/Src/stm32c0xx_hal_rcc.c ****     {
 152              		.loc 1 248 8 discriminator 1 view .LVU43
 153 0074 6428     		cmp	r0, #100
 154 0076 F6D9     		bls	.L7
ARM GAS  C:\Users\simay\AppData\Local\Temp\cctPq0DA.s 			page 9


 250:Drivers/STM32C0xx_HAL_Driver/Src/stm32c0xx_hal_rcc.c ****     }
 155              		.loc 1 250 14 view .LVU44
 156 0078 0320     		movs	r0, #3
 157 007a D5E7     		b	.L3
 158              	.L14:
 255:Drivers/STM32C0xx_HAL_Driver/Src/stm32c0xx_hal_rcc.c **** 
 159              		.loc 1 255 3 is_stmt 1 view .LVU45
 255:Drivers/STM32C0xx_HAL_Driver/Src/stm32c0xx_hal_rcc.c **** 
 160              		.loc 1 255 6 is_stmt 0 view .LVU46
 161 007c 094B     		ldr	r3, .L15
 162 007e 1A68     		ldr	r2, [r3]
 255:Drivers/STM32C0xx_HAL_Driver/Src/stm32c0xx_hal_rcc.c **** 
 163              		.loc 1 255 11 view .LVU47
 164 0080 0B49     		ldr	r1, .L15+12
 165 0082 0A40     		ands	r2, r1
 166 0084 1A60     		str	r2, [r3]
 258:Drivers/STM32C0xx_HAL_Driver/Src/stm32c0xx_hal_rcc.c **** 
 167              		.loc 1 258 3 is_stmt 1 view .LVU48
 258:Drivers/STM32C0xx_HAL_Driver/Src/stm32c0xx_hal_rcc.c **** 
 168              		.loc 1 258 13 is_stmt 0 view .LVU49
 169 0086 0022     		movs	r2, #0
 170 0088 9A61     		str	r2, [r3, #24]
 261:Drivers/STM32C0xx_HAL_Driver/Src/stm32c0xx_hal_rcc.c **** 
 171              		.loc 1 261 3 is_stmt 1 view .LVU50
 261:Drivers/STM32C0xx_HAL_Driver/Src/stm32c0xx_hal_rcc.c **** 
 172              		.loc 1 261 13 is_stmt 0 view .LVU51
 173 008a 013A     		subs	r2, r2, #1
 174 008c 1A62     		str	r2, [r3, #32]
 264:Drivers/STM32C0xx_HAL_Driver/Src/stm32c0xx_hal_rcc.c **** 
 175              		.loc 1 264 3 is_stmt 1 view .LVU52
 264:Drivers/STM32C0xx_HAL_Driver/Src/stm32c0xx_hal_rcc.c **** 
 176              		.loc 1 264 19 is_stmt 0 view .LVU53
 177 008e 094B     		ldr	r3, .L15+16
 178 0090 094A     		ldr	r2, .L15+20
 179 0092 1A60     		str	r2, [r3]
 267:Drivers/STM32C0xx_HAL_Driver/Src/stm32c0xx_hal_rcc.c ****   {
 180              		.loc 1 267 3 is_stmt 1 view .LVU54
 267:Drivers/STM32C0xx_HAL_Driver/Src/stm32c0xx_hal_rcc.c ****   {
 181              		.loc 1 267 7 is_stmt 0 view .LVU55
 182 0094 094B     		ldr	r3, .L15+24
 183 0096 1868     		ldr	r0, [r3]
 184 0098 FFF7FEFF 		bl	HAL_InitTick
 185              	.LVL14:
 267:Drivers/STM32C0xx_HAL_Driver/Src/stm32c0xx_hal_rcc.c ****   {
 186              		.loc 1 267 6 discriminator 1 view .LVU56
 187 009c 0028     		cmp	r0, #0
 188 009e C3D0     		beq	.L3
 269:Drivers/STM32C0xx_HAL_Driver/Src/stm32c0xx_hal_rcc.c ****   }
 189              		.loc 1 269 12 view .LVU57
 190 00a0 0120     		movs	r0, #1
 191 00a2 C1E7     		b	.L3
 192              	.L16:
 193              		.align	2
 194              	.L15:
 195 00a4 00100240 		.word	1073876992
 196 00a8 88130000 		.word	5000
 197 00ac FFFFFEFF 		.word	-65537
ARM GAS  C:\Users\simay\AppData\Local\Temp\cctPq0DA.s 			page 10


 198 00b0 FFFFFBFF 		.word	-262145
 199 00b4 00000000 		.word	SystemCoreClock
 200 00b8 006CDC02 		.word	48000000
 201 00bc 00000000 		.word	uwTickPrio
 202              		.cfi_endproc
 203              	.LFE230:
 205              		.section	.text.HAL_RCC_OscConfig,"ax",%progbits
 206              		.align	1
 207              		.global	HAL_RCC_OscConfig
 208              		.syntax unified
 209              		.code	16
 210              		.thumb_func
 212              	HAL_RCC_OscConfig:
 213              	.LVL15:
 214              	.LFB231:
 276:Drivers/STM32C0xx_HAL_Driver/Src/stm32c0xx_hal_rcc.c **** 
 277:Drivers/STM32C0xx_HAL_Driver/Src/stm32c0xx_hal_rcc.c **** /**
 278:Drivers/STM32C0xx_HAL_Driver/Src/stm32c0xx_hal_rcc.c ****   * @brief  Initialize the RCC Oscillators according to the specified parameters in the
 279:Drivers/STM32C0xx_HAL_Driver/Src/stm32c0xx_hal_rcc.c ****   *         @ref RCC_OscInitTypeDef.
 280:Drivers/STM32C0xx_HAL_Driver/Src/stm32c0xx_hal_rcc.c ****   * @param  RCC_OscInitStruct pointer to a @ref RCC_OscInitTypeDef structure that
 281:Drivers/STM32C0xx_HAL_Driver/Src/stm32c0xx_hal_rcc.c ****   *         contains the configuration information for the RCC Oscillators.
 282:Drivers/STM32C0xx_HAL_Driver/Src/stm32c0xx_hal_rcc.c ****   * @note   Transition HSE Bypass to HSE On and HSE On to HSE Bypass are not
 283:Drivers/STM32C0xx_HAL_Driver/Src/stm32c0xx_hal_rcc.c ****   *         supported by this function. User should request a transition to HSE Off
 284:Drivers/STM32C0xx_HAL_Driver/Src/stm32c0xx_hal_rcc.c ****   *         first and then to HSE On or HSE Bypass.
 285:Drivers/STM32C0xx_HAL_Driver/Src/stm32c0xx_hal_rcc.c ****   * @note   Transition LSE Bypass to LSE On and LSE On to LSE Bypass are not
 286:Drivers/STM32C0xx_HAL_Driver/Src/stm32c0xx_hal_rcc.c ****   *         supported by this function. User should request a transition to LSE Off
 287:Drivers/STM32C0xx_HAL_Driver/Src/stm32c0xx_hal_rcc.c ****   *         first and then to LSE On or LSE Bypass.
 288:Drivers/STM32C0xx_HAL_Driver/Src/stm32c0xx_hal_rcc.c ****   * @note   When the HSI48 oscillator is selected as the System clock (SYSCLK), the user
 289:Drivers/STM32C0xx_HAL_Driver/Src/stm32c0xx_hal_rcc.c ****             must adjust the number of CPU wait states in their application (SystemClock_Config() AP
 290:Drivers/STM32C0xx_HAL_Driver/Src/stm32c0xx_hal_rcc.c ****             before calling the HAL_RCC_OscConfig() API to update the HSI48 clock division factor.
 291:Drivers/STM32C0xx_HAL_Driver/Src/stm32c0xx_hal_rcc.c ****   * @retval HAL status
 292:Drivers/STM32C0xx_HAL_Driver/Src/stm32c0xx_hal_rcc.c ****   */
 293:Drivers/STM32C0xx_HAL_Driver/Src/stm32c0xx_hal_rcc.c **** HAL_StatusTypeDef HAL_RCC_OscConfig(const RCC_OscInitTypeDef  *RCC_OscInitStruct)
 294:Drivers/STM32C0xx_HAL_Driver/Src/stm32c0xx_hal_rcc.c **** {
 215              		.loc 1 294 1 is_stmt 1 view -0
 216              		.cfi_startproc
 217              		@ args = 0, pretend = 0, frame = 0
 218              		@ frame_needed = 0, uses_anonymous_args = 0
 219              		.loc 1 294 1 is_stmt 0 view .LVU59
 220 0000 70B5     		push	{r4, r5, r6, lr}
 221              	.LCFI1:
 222              		.cfi_def_cfa_offset 16
 223              		.cfi_offset 4, -16
 224              		.cfi_offset 5, -12
 225              		.cfi_offset 6, -8
 226              		.cfi_offset 14, -4
 227 0002 041E     		subs	r4, r0, #0
 295:Drivers/STM32C0xx_HAL_Driver/Src/stm32c0xx_hal_rcc.c ****   uint32_t tickstart;
 228              		.loc 1 295 3 is_stmt 1 view .LVU60
 296:Drivers/STM32C0xx_HAL_Driver/Src/stm32c0xx_hal_rcc.c ****   uint32_t temp_sysclksrc;
 229              		.loc 1 296 3 view .LVU61
 297:Drivers/STM32C0xx_HAL_Driver/Src/stm32c0xx_hal_rcc.c **** 
 298:Drivers/STM32C0xx_HAL_Driver/Src/stm32c0xx_hal_rcc.c ****   /* Check Null pointer */
 299:Drivers/STM32C0xx_HAL_Driver/Src/stm32c0xx_hal_rcc.c ****   if (RCC_OscInitStruct == NULL)
 230              		.loc 1 299 3 view .LVU62
 231              		.loc 1 299 6 is_stmt 0 view .LVU63
 232 0004 00D1     		bne	.LCB182
ARM GAS  C:\Users\simay\AppData\Local\Temp\cctPq0DA.s 			page 11


 233 0006 39E1     		b	.L52	@long jump
 234              	.LCB182:
 300:Drivers/STM32C0xx_HAL_Driver/Src/stm32c0xx_hal_rcc.c ****   {
 301:Drivers/STM32C0xx_HAL_Driver/Src/stm32c0xx_hal_rcc.c ****     return HAL_ERROR;
 302:Drivers/STM32C0xx_HAL_Driver/Src/stm32c0xx_hal_rcc.c ****   }
 303:Drivers/STM32C0xx_HAL_Driver/Src/stm32c0xx_hal_rcc.c **** 
 304:Drivers/STM32C0xx_HAL_Driver/Src/stm32c0xx_hal_rcc.c ****   /* Check the parameters */
 305:Drivers/STM32C0xx_HAL_Driver/Src/stm32c0xx_hal_rcc.c ****   assert_param(IS_RCC_OSCILLATORTYPE(RCC_OscInitStruct->OscillatorType));
 235              		.loc 1 305 3 is_stmt 1 view .LVU64
 306:Drivers/STM32C0xx_HAL_Driver/Src/stm32c0xx_hal_rcc.c **** 
 307:Drivers/STM32C0xx_HAL_Driver/Src/stm32c0xx_hal_rcc.c ****   /*------------------------------- HSE Configuration ------------------------*/
 308:Drivers/STM32C0xx_HAL_Driver/Src/stm32c0xx_hal_rcc.c ****   if (((RCC_OscInitStruct->OscillatorType) & RCC_OSCILLATORTYPE_HSE) == RCC_OSCILLATORTYPE_HSE)
 236              		.loc 1 308 3 view .LVU65
 237              		.loc 1 308 26 is_stmt 0 view .LVU66
 238 0008 0368     		ldr	r3, [r0]
 239              		.loc 1 308 6 view .LVU67
 240 000a DB07     		lsls	r3, r3, #31
 241 000c 2CD5     		bpl	.L19
 309:Drivers/STM32C0xx_HAL_Driver/Src/stm32c0xx_hal_rcc.c ****   {
 310:Drivers/STM32C0xx_HAL_Driver/Src/stm32c0xx_hal_rcc.c ****     /* Check the parameters */
 311:Drivers/STM32C0xx_HAL_Driver/Src/stm32c0xx_hal_rcc.c ****     assert_param(IS_RCC_HSE(RCC_OscInitStruct->HSEState));
 242              		.loc 1 311 5 is_stmt 1 view .LVU68
 312:Drivers/STM32C0xx_HAL_Driver/Src/stm32c0xx_hal_rcc.c **** 
 313:Drivers/STM32C0xx_HAL_Driver/Src/stm32c0xx_hal_rcc.c ****     temp_sysclksrc = __HAL_RCC_GET_SYSCLK_SOURCE();
 243              		.loc 1 313 5 view .LVU69
 244              		.loc 1 313 22 is_stmt 0 view .LVU70
 245 000e A14B     		ldr	r3, .L84
 246 0010 9A68     		ldr	r2, [r3, #8]
 247              		.loc 1 313 20 view .LVU71
 248 0012 3823     		movs	r3, #56
 249 0014 1340     		ands	r3, r2
 250              	.LVL16:
 314:Drivers/STM32C0xx_HAL_Driver/Src/stm32c0xx_hal_rcc.c **** 
 315:Drivers/STM32C0xx_HAL_Driver/Src/stm32c0xx_hal_rcc.c ****     /* When the HSE is used as system clock in these cases it is not allowed to be disabled */
 316:Drivers/STM32C0xx_HAL_Driver/Src/stm32c0xx_hal_rcc.c ****     if (temp_sysclksrc == RCC_CFGR_SWS_HSE)
 251              		.loc 1 316 5 is_stmt 1 view .LVU72
 252              		.loc 1 316 8 is_stmt 0 view .LVU73
 253 0016 082B     		cmp	r3, #8
 254 0018 22D0     		beq	.L70
 317:Drivers/STM32C0xx_HAL_Driver/Src/stm32c0xx_hal_rcc.c ****     {
 318:Drivers/STM32C0xx_HAL_Driver/Src/stm32c0xx_hal_rcc.c ****       if (RCC_OscInitStruct->HSEState == RCC_HSE_OFF)
 319:Drivers/STM32C0xx_HAL_Driver/Src/stm32c0xx_hal_rcc.c ****       {
 320:Drivers/STM32C0xx_HAL_Driver/Src/stm32c0xx_hal_rcc.c ****         return HAL_ERROR;
 321:Drivers/STM32C0xx_HAL_Driver/Src/stm32c0xx_hal_rcc.c ****       }
 322:Drivers/STM32C0xx_HAL_Driver/Src/stm32c0xx_hal_rcc.c ****     }
 323:Drivers/STM32C0xx_HAL_Driver/Src/stm32c0xx_hal_rcc.c ****     else
 324:Drivers/STM32C0xx_HAL_Driver/Src/stm32c0xx_hal_rcc.c ****     {
 325:Drivers/STM32C0xx_HAL_Driver/Src/stm32c0xx_hal_rcc.c ****       /* Set the new HSE configuration ---------------------------------------*/
 326:Drivers/STM32C0xx_HAL_Driver/Src/stm32c0xx_hal_rcc.c ****       __HAL_RCC_HSE_CONFIG(RCC_OscInitStruct->HSEState);
 255              		.loc 1 326 7 is_stmt 1 view .LVU74
 256              		.loc 1 326 7 view .LVU75
 257 001a 4368     		ldr	r3, [r0, #4]
 258              	.LVL17:
 259              		.loc 1 326 7 is_stmt 0 view .LVU76
 260 001c 8022     		movs	r2, #128
 261              	.LVL18:
 262              		.loc 1 326 7 view .LVU77
ARM GAS  C:\Users\simay\AppData\Local\Temp\cctPq0DA.s 			page 12


 263 001e 5202     		lsls	r2, r2, #9
 264 0020 9342     		cmp	r3, r2
 265 0022 2ED0     		beq	.L71
 266              		.loc 1 326 7 is_stmt 1 discriminator 2 view .LVU78
 267 0024 A022     		movs	r2, #160
 268 0026 D202     		lsls	r2, r2, #11
 269 0028 9342     		cmp	r3, r2
 270 002a 31D0     		beq	.L72
 271              		.loc 1 326 7 discriminator 4 view .LVU79
 272 002c 994B     		ldr	r3, .L84
 273 002e 1A68     		ldr	r2, [r3]
 274 0030 9949     		ldr	r1, .L84+4
 275 0032 0A40     		ands	r2, r1
 276 0034 1A60     		str	r2, [r3]
 277              		.loc 1 326 7 view .LVU80
 278              		.loc 1 326 7 is_stmt 0 discriminator 4 view .LVU81
 279 0036 1A68     		ldr	r2, [r3]
 280 0038 9849     		ldr	r1, .L84+8
 281 003a 0A40     		ands	r2, r1
 282 003c 1A60     		str	r2, [r3]
 283              	.L22:
 284              		.loc 1 326 7 is_stmt 1 view .LVU82
 327:Drivers/STM32C0xx_HAL_Driver/Src/stm32c0xx_hal_rcc.c **** 
 328:Drivers/STM32C0xx_HAL_Driver/Src/stm32c0xx_hal_rcc.c ****       /* Check the HSE State */
 329:Drivers/STM32C0xx_HAL_Driver/Src/stm32c0xx_hal_rcc.c ****       if (RCC_OscInitStruct->HSEState != RCC_HSE_OFF)
 285              		.loc 1 329 7 view .LVU83
 286              		.loc 1 329 28 is_stmt 0 view .LVU84
 287 003e 6368     		ldr	r3, [r4, #4]
 288              		.loc 1 329 10 view .LVU85
 289 0040 002B     		cmp	r3, #0
 290 0042 31D0     		beq	.L24
 330:Drivers/STM32C0xx_HAL_Driver/Src/stm32c0xx_hal_rcc.c ****       {
 331:Drivers/STM32C0xx_HAL_Driver/Src/stm32c0xx_hal_rcc.c ****         /* Get Start Tick*/
 332:Drivers/STM32C0xx_HAL_Driver/Src/stm32c0xx_hal_rcc.c ****         tickstart = HAL_GetTick();
 291              		.loc 1 332 9 is_stmt 1 view .LVU86
 292              		.loc 1 332 21 is_stmt 0 view .LVU87
 293 0044 FFF7FEFF 		bl	HAL_GetTick
 294              	.LVL19:
 295              		.loc 1 332 21 view .LVU88
 296 0048 0500     		movs	r5, r0
 297              	.LVL20:
 333:Drivers/STM32C0xx_HAL_Driver/Src/stm32c0xx_hal_rcc.c **** 
 334:Drivers/STM32C0xx_HAL_Driver/Src/stm32c0xx_hal_rcc.c ****         /* Wait till HSE is ready */
 335:Drivers/STM32C0xx_HAL_Driver/Src/stm32c0xx_hal_rcc.c ****         while (READ_BIT(RCC->CR, RCC_CR_HSERDY) == 0U)
 298              		.loc 1 335 9 is_stmt 1 view .LVU89
 299              	.L25:
 300              		.loc 1 335 49 view .LVU90
 301              		.loc 1 335 16 is_stmt 0 view .LVU91
 302 004a 924B     		ldr	r3, .L84
 303 004c 1B68     		ldr	r3, [r3]
 304              		.loc 1 335 49 view .LVU92
 305 004e 9B03     		lsls	r3, r3, #14
 306 0050 0AD4     		bmi	.L19
 336:Drivers/STM32C0xx_HAL_Driver/Src/stm32c0xx_hal_rcc.c ****         {
 337:Drivers/STM32C0xx_HAL_Driver/Src/stm32c0xx_hal_rcc.c ****           if ((HAL_GetTick() - tickstart) > RCC_HSE_TIMEOUT_VALUE)
 307              		.loc 1 337 11 is_stmt 1 view .LVU93
 308              		.loc 1 337 16 is_stmt 0 view .LVU94
ARM GAS  C:\Users\simay\AppData\Local\Temp\cctPq0DA.s 			page 13


 309 0052 FFF7FEFF 		bl	HAL_GetTick
 310              	.LVL21:
 311              		.loc 1 337 30 discriminator 1 view .LVU95
 312 0056 401B     		subs	r0, r0, r5
 313              		.loc 1 337 14 discriminator 1 view .LVU96
 314 0058 6428     		cmp	r0, #100
 315 005a F6D9     		bls	.L25
 338:Drivers/STM32C0xx_HAL_Driver/Src/stm32c0xx_hal_rcc.c ****           {
 339:Drivers/STM32C0xx_HAL_Driver/Src/stm32c0xx_hal_rcc.c ****             return HAL_TIMEOUT;
 316              		.loc 1 339 20 view .LVU97
 317 005c 0320     		movs	r0, #3
 318 005e 0EE1     		b	.L18
 319              	.LVL22:
 320              	.L70:
 318:Drivers/STM32C0xx_HAL_Driver/Src/stm32c0xx_hal_rcc.c ****       {
 321              		.loc 1 318 7 is_stmt 1 view .LVU98
 318:Drivers/STM32C0xx_HAL_Driver/Src/stm32c0xx_hal_rcc.c ****       {
 322              		.loc 1 318 28 is_stmt 0 view .LVU99
 323 0060 4368     		ldr	r3, [r0, #4]
 324              	.LVL23:
 318:Drivers/STM32C0xx_HAL_Driver/Src/stm32c0xx_hal_rcc.c ****       {
 325              		.loc 1 318 10 view .LVU100
 326 0062 002B     		cmp	r3, #0
 327 0064 00D1     		bne	.LCB266
 328 0066 0BE1     		b	.L73	@long jump
 329              	.LCB266:
 330              	.LVL24:
 331              	.L19:
 340:Drivers/STM32C0xx_HAL_Driver/Src/stm32c0xx_hal_rcc.c ****           }
 341:Drivers/STM32C0xx_HAL_Driver/Src/stm32c0xx_hal_rcc.c ****         }
 342:Drivers/STM32C0xx_HAL_Driver/Src/stm32c0xx_hal_rcc.c ****       }
 343:Drivers/STM32C0xx_HAL_Driver/Src/stm32c0xx_hal_rcc.c ****       else
 344:Drivers/STM32C0xx_HAL_Driver/Src/stm32c0xx_hal_rcc.c ****       {
 345:Drivers/STM32C0xx_HAL_Driver/Src/stm32c0xx_hal_rcc.c ****         /* Get Start Tick*/
 346:Drivers/STM32C0xx_HAL_Driver/Src/stm32c0xx_hal_rcc.c ****         tickstart = HAL_GetTick();
 347:Drivers/STM32C0xx_HAL_Driver/Src/stm32c0xx_hal_rcc.c **** 
 348:Drivers/STM32C0xx_HAL_Driver/Src/stm32c0xx_hal_rcc.c ****         /* Wait till HSE is disabled */
 349:Drivers/STM32C0xx_HAL_Driver/Src/stm32c0xx_hal_rcc.c ****         while (READ_BIT(RCC->CR, RCC_CR_HSERDY) != 0U)
 350:Drivers/STM32C0xx_HAL_Driver/Src/stm32c0xx_hal_rcc.c ****         {
 351:Drivers/STM32C0xx_HAL_Driver/Src/stm32c0xx_hal_rcc.c ****           if ((HAL_GetTick() - tickstart) > RCC_HSE_TIMEOUT_VALUE)
 352:Drivers/STM32C0xx_HAL_Driver/Src/stm32c0xx_hal_rcc.c ****           {
 353:Drivers/STM32C0xx_HAL_Driver/Src/stm32c0xx_hal_rcc.c ****             return HAL_TIMEOUT;
 354:Drivers/STM32C0xx_HAL_Driver/Src/stm32c0xx_hal_rcc.c ****           }
 355:Drivers/STM32C0xx_HAL_Driver/Src/stm32c0xx_hal_rcc.c ****         }
 356:Drivers/STM32C0xx_HAL_Driver/Src/stm32c0xx_hal_rcc.c ****       }
 357:Drivers/STM32C0xx_HAL_Driver/Src/stm32c0xx_hal_rcc.c ****     }
 358:Drivers/STM32C0xx_HAL_Driver/Src/stm32c0xx_hal_rcc.c ****   }
 359:Drivers/STM32C0xx_HAL_Driver/Src/stm32c0xx_hal_rcc.c ****   /*----------------------------- HSI Configuration --------------------------*/
 360:Drivers/STM32C0xx_HAL_Driver/Src/stm32c0xx_hal_rcc.c ****   if (((RCC_OscInitStruct->OscillatorType) & RCC_OSCILLATORTYPE_HSI) == RCC_OSCILLATORTYPE_HSI)
 332              		.loc 1 360 3 is_stmt 1 view .LVU101
 333              		.loc 1 360 26 is_stmt 0 view .LVU102
 334 0068 2368     		ldr	r3, [r4]
 335              		.loc 1 360 6 view .LVU103
 336 006a 9B07     		lsls	r3, r3, #30
 337 006c 47D5     		bpl	.L29
 361:Drivers/STM32C0xx_HAL_Driver/Src/stm32c0xx_hal_rcc.c ****   {
 362:Drivers/STM32C0xx_HAL_Driver/Src/stm32c0xx_hal_rcc.c ****     /* Check the parameters */
ARM GAS  C:\Users\simay\AppData\Local\Temp\cctPq0DA.s 			page 14


 363:Drivers/STM32C0xx_HAL_Driver/Src/stm32c0xx_hal_rcc.c ****     assert_param(IS_RCC_HSI(RCC_OscInitStruct->HSIState));
 338              		.loc 1 363 5 is_stmt 1 view .LVU104
 364:Drivers/STM32C0xx_HAL_Driver/Src/stm32c0xx_hal_rcc.c ****     assert_param(IS_RCC_HSI_CALIBRATION_VALUE(RCC_OscInitStruct->HSICalibrationValue));
 339              		.loc 1 364 5 view .LVU105
 365:Drivers/STM32C0xx_HAL_Driver/Src/stm32c0xx_hal_rcc.c ****     assert_param(IS_RCC_HSIDIV(RCC_OscInitStruct->HSIDiv));
 340              		.loc 1 365 5 view .LVU106
 366:Drivers/STM32C0xx_HAL_Driver/Src/stm32c0xx_hal_rcc.c **** 
 367:Drivers/STM32C0xx_HAL_Driver/Src/stm32c0xx_hal_rcc.c ****     /* Check if HSI48 is used as system clock  */
 368:Drivers/STM32C0xx_HAL_Driver/Src/stm32c0xx_hal_rcc.c ****     temp_sysclksrc = __HAL_RCC_GET_SYSCLK_SOURCE();
 341              		.loc 1 368 5 view .LVU107
 342              		.loc 1 368 22 is_stmt 0 view .LVU108
 343 006e 894B     		ldr	r3, .L84
 344 0070 9B68     		ldr	r3, [r3, #8]
 345              		.loc 1 368 20 view .LVU109
 346 0072 3822     		movs	r2, #56
 347              	.LVL25:
 369:Drivers/STM32C0xx_HAL_Driver/Src/stm32c0xx_hal_rcc.c **** 
 370:Drivers/STM32C0xx_HAL_Driver/Src/stm32c0xx_hal_rcc.c ****     if (temp_sysclksrc == RCC_CFGR_SWS_HSI)
 348              		.loc 1 370 5 is_stmt 1 view .LVU110
 349              		.loc 1 370 8 is_stmt 0 view .LVU111
 350 0074 1A42     		tst	r2, r3
 351 0076 61D1     		bne	.L30
 371:Drivers/STM32C0xx_HAL_Driver/Src/stm32c0xx_hal_rcc.c ****     {
 372:Drivers/STM32C0xx_HAL_Driver/Src/stm32c0xx_hal_rcc.c ****       /* When HSI is used as system clock it can not be disabled */
 373:Drivers/STM32C0xx_HAL_Driver/Src/stm32c0xx_hal_rcc.c ****       if (RCC_OscInitStruct->HSIState == RCC_HSI_OFF)
 352              		.loc 1 373 7 is_stmt 1 view .LVU112
 353              		.loc 1 373 28 is_stmt 0 view .LVU113
 354 0078 E368     		ldr	r3, [r4, #12]
 355              	.LVL26:
 356              		.loc 1 373 10 view .LVU114
 357 007a 002B     		cmp	r3, #0
 358 007c 22D1     		bne	.L74
 374:Drivers/STM32C0xx_HAL_Driver/Src/stm32c0xx_hal_rcc.c ****       {
 375:Drivers/STM32C0xx_HAL_Driver/Src/stm32c0xx_hal_rcc.c ****         return HAL_ERROR;
 359              		.loc 1 375 16 view .LVU115
 360 007e 0120     		movs	r0, #1
 361 0080 FDE0     		b	.L18
 362              	.LVL27:
 363              	.L71:
 326:Drivers/STM32C0xx_HAL_Driver/Src/stm32c0xx_hal_rcc.c **** 
 364              		.loc 1 326 7 is_stmt 1 discriminator 1 view .LVU116
 365 0082 844A     		ldr	r2, .L84
 366 0084 1168     		ldr	r1, [r2]
 367 0086 8023     		movs	r3, #128
 368 0088 5B02     		lsls	r3, r3, #9
 369 008a 0B43     		orrs	r3, r1
 370 008c 1360     		str	r3, [r2]
 371 008e D6E7     		b	.L22
 372              	.L72:
 326:Drivers/STM32C0xx_HAL_Driver/Src/stm32c0xx_hal_rcc.c **** 
 373              		.loc 1 326 7 discriminator 3 view .LVU117
 374 0090 804B     		ldr	r3, .L84
 375 0092 1968     		ldr	r1, [r3]
 376 0094 8022     		movs	r2, #128
 377 0096 D202     		lsls	r2, r2, #11
 378 0098 0A43     		orrs	r2, r1
 379 009a 1A60     		str	r2, [r3]
ARM GAS  C:\Users\simay\AppData\Local\Temp\cctPq0DA.s 			page 15


 326:Drivers/STM32C0xx_HAL_Driver/Src/stm32c0xx_hal_rcc.c **** 
 380              		.loc 1 326 7 view .LVU118
 326:Drivers/STM32C0xx_HAL_Driver/Src/stm32c0xx_hal_rcc.c **** 
 381              		.loc 1 326 7 is_stmt 0 discriminator 3 view .LVU119
 382 009c 1968     		ldr	r1, [r3]
 383 009e 8022     		movs	r2, #128
 384 00a0 5202     		lsls	r2, r2, #9
 385 00a2 0A43     		orrs	r2, r1
 386 00a4 1A60     		str	r2, [r3]
 387 00a6 CAE7     		b	.L22
 388              	.L24:
 346:Drivers/STM32C0xx_HAL_Driver/Src/stm32c0xx_hal_rcc.c **** 
 389              		.loc 1 346 9 is_stmt 1 view .LVU120
 346:Drivers/STM32C0xx_HAL_Driver/Src/stm32c0xx_hal_rcc.c **** 
 390              		.loc 1 346 21 is_stmt 0 view .LVU121
 391 00a8 FFF7FEFF 		bl	HAL_GetTick
 392              	.LVL28:
 346:Drivers/STM32C0xx_HAL_Driver/Src/stm32c0xx_hal_rcc.c **** 
 393              		.loc 1 346 21 view .LVU122
 394 00ac 0500     		movs	r5, r0
 395              	.LVL29:
 349:Drivers/STM32C0xx_HAL_Driver/Src/stm32c0xx_hal_rcc.c ****         {
 396              		.loc 1 349 9 is_stmt 1 view .LVU123
 397              	.L27:
 349:Drivers/STM32C0xx_HAL_Driver/Src/stm32c0xx_hal_rcc.c ****         {
 398              		.loc 1 349 49 view .LVU124
 349:Drivers/STM32C0xx_HAL_Driver/Src/stm32c0xx_hal_rcc.c ****         {
 399              		.loc 1 349 16 is_stmt 0 view .LVU125
 400 00ae 794B     		ldr	r3, .L84
 401 00b0 1B68     		ldr	r3, [r3]
 349:Drivers/STM32C0xx_HAL_Driver/Src/stm32c0xx_hal_rcc.c ****         {
 402              		.loc 1 349 49 view .LVU126
 403 00b2 9B03     		lsls	r3, r3, #14
 404 00b4 D8D5     		bpl	.L19
 351:Drivers/STM32C0xx_HAL_Driver/Src/stm32c0xx_hal_rcc.c ****           {
 405              		.loc 1 351 11 is_stmt 1 view .LVU127
 351:Drivers/STM32C0xx_HAL_Driver/Src/stm32c0xx_hal_rcc.c ****           {
 406              		.loc 1 351 16 is_stmt 0 view .LVU128
 407 00b6 FFF7FEFF 		bl	HAL_GetTick
 408              	.LVL30:
 351:Drivers/STM32C0xx_HAL_Driver/Src/stm32c0xx_hal_rcc.c ****           {
 409              		.loc 1 351 30 discriminator 1 view .LVU129
 410 00ba 401B     		subs	r0, r0, r5
 351:Drivers/STM32C0xx_HAL_Driver/Src/stm32c0xx_hal_rcc.c ****           {
 411              		.loc 1 351 14 discriminator 1 view .LVU130
 412 00bc 6428     		cmp	r0, #100
 413 00be F6D9     		bls	.L27
 353:Drivers/STM32C0xx_HAL_Driver/Src/stm32c0xx_hal_rcc.c ****           }
 414              		.loc 1 353 20 view .LVU131
 415 00c0 0320     		movs	r0, #3
 416 00c2 DCE0     		b	.L18
 417              	.LVL31:
 418              	.L74:
 376:Drivers/STM32C0xx_HAL_Driver/Src/stm32c0xx_hal_rcc.c ****       }
 377:Drivers/STM32C0xx_HAL_Driver/Src/stm32c0xx_hal_rcc.c ****       /* Otherwise, just the calibration is allowed */
 378:Drivers/STM32C0xx_HAL_Driver/Src/stm32c0xx_hal_rcc.c ****       else
 379:Drivers/STM32C0xx_HAL_Driver/Src/stm32c0xx_hal_rcc.c ****       {
ARM GAS  C:\Users\simay\AppData\Local\Temp\cctPq0DA.s 			page 16


 380:Drivers/STM32C0xx_HAL_Driver/Src/stm32c0xx_hal_rcc.c ****         /* Adjusts the Internal High Speed oscillator (HSI) calibration value.*/
 381:Drivers/STM32C0xx_HAL_Driver/Src/stm32c0xx_hal_rcc.c ****         __HAL_RCC_HSI_CALIBRATIONVALUE_ADJUST(RCC_OscInitStruct->HSICalibrationValue);
 419              		.loc 1 381 9 is_stmt 1 view .LVU132
 420 00c4 734B     		ldr	r3, .L84
 421 00c6 5A68     		ldr	r2, [r3, #4]
 422              		.loc 1 381 9 is_stmt 0 view .LVU133
 423 00c8 7549     		ldr	r1, .L84+12
 424 00ca 0A40     		ands	r2, r1
 425 00cc 6169     		ldr	r1, [r4, #20]
 426 00ce 0902     		lsls	r1, r1, #8
 427 00d0 0A43     		orrs	r2, r1
 428 00d2 5A60     		str	r2, [r3, #4]
 382:Drivers/STM32C0xx_HAL_Driver/Src/stm32c0xx_hal_rcc.c **** 
 383:Drivers/STM32C0xx_HAL_Driver/Src/stm32c0xx_hal_rcc.c ****         if (temp_sysclksrc == RCC_CFGR_SWS_HSI)
 429              		.loc 1 383 9 is_stmt 1 view .LVU134
 384:Drivers/STM32C0xx_HAL_Driver/Src/stm32c0xx_hal_rcc.c ****         {
 385:Drivers/STM32C0xx_HAL_Driver/Src/stm32c0xx_hal_rcc.c ****           /* Adjust the HSI48 division factor */
 386:Drivers/STM32C0xx_HAL_Driver/Src/stm32c0xx_hal_rcc.c ****           __HAL_RCC_HSI_CONFIG(RCC_OscInitStruct->HSIDiv);
 430              		.loc 1 386 11 view .LVU135
 431 00d4 1A68     		ldr	r2, [r3]
 432 00d6 7349     		ldr	r1, .L84+16
 433 00d8 0A40     		ands	r2, r1
 434 00da 2169     		ldr	r1, [r4, #16]
 435 00dc 0A43     		orrs	r2, r1
 436 00de 1A60     		str	r2, [r3]
 387:Drivers/STM32C0xx_HAL_Driver/Src/stm32c0xx_hal_rcc.c **** 
 388:Drivers/STM32C0xx_HAL_Driver/Src/stm32c0xx_hal_rcc.c ****           /* Update the SystemCoreClock global variable with HSISYS value  */
 389:Drivers/STM32C0xx_HAL_Driver/Src/stm32c0xx_hal_rcc.c ****           SystemCoreClock = (HSI_VALUE / (1UL << ((READ_BIT(RCC->CR, RCC_CR_HSIDIV)) >> RCC_CR_HSID
 437              		.loc 1 389 11 view .LVU136
 438              		.loc 1 389 52 is_stmt 0 view .LVU137
 439 00e0 1B68     		ldr	r3, [r3]
 440              		.loc 1 389 86 view .LVU138
 441 00e2 DB0A     		lsrs	r3, r3, #11
 442 00e4 0722     		movs	r2, #7
 443 00e6 1A40     		ands	r2, r3
 444              		.loc 1 389 40 view .LVU139
 445 00e8 6F4B     		ldr	r3, .L84+20
 446 00ea D340     		lsrs	r3, r3, r2
 447              		.loc 1 389 27 view .LVU140
 448 00ec 6F4A     		ldr	r2, .L84+24
 449 00ee 1360     		str	r3, [r2]
 390:Drivers/STM32C0xx_HAL_Driver/Src/stm32c0xx_hal_rcc.c ****         }
 391:Drivers/STM32C0xx_HAL_Driver/Src/stm32c0xx_hal_rcc.c **** 
 392:Drivers/STM32C0xx_HAL_Driver/Src/stm32c0xx_hal_rcc.c ****         /* Adapt Systick interrupt period */
 393:Drivers/STM32C0xx_HAL_Driver/Src/stm32c0xx_hal_rcc.c ****         if (HAL_InitTick(uwTickPrio) != HAL_OK)
 450              		.loc 1 393 9 is_stmt 1 view .LVU141
 451              		.loc 1 393 13 is_stmt 0 view .LVU142
 452 00f0 6F4B     		ldr	r3, .L84+28
 453 00f2 1868     		ldr	r0, [r3]
 454 00f4 FFF7FEFF 		bl	HAL_InitTick
 455              	.LVL32:
 456              		.loc 1 393 12 discriminator 1 view .LVU143
 457 00f8 0028     		cmp	r0, #0
 458 00fa 00D0     		beq	.LCB392
 459 00fc C2E0     		b	.L75	@long jump
 460              	.LCB392:
 461              	.LVL33:
ARM GAS  C:\Users\simay\AppData\Local\Temp\cctPq0DA.s 			page 17


 462              	.L29:
 394:Drivers/STM32C0xx_HAL_Driver/Src/stm32c0xx_hal_rcc.c ****         {
 395:Drivers/STM32C0xx_HAL_Driver/Src/stm32c0xx_hal_rcc.c ****           return HAL_ERROR;
 396:Drivers/STM32C0xx_HAL_Driver/Src/stm32c0xx_hal_rcc.c ****         }
 397:Drivers/STM32C0xx_HAL_Driver/Src/stm32c0xx_hal_rcc.c ****       }
 398:Drivers/STM32C0xx_HAL_Driver/Src/stm32c0xx_hal_rcc.c ****     }
 399:Drivers/STM32C0xx_HAL_Driver/Src/stm32c0xx_hal_rcc.c ****     else
 400:Drivers/STM32C0xx_HAL_Driver/Src/stm32c0xx_hal_rcc.c ****     {
 401:Drivers/STM32C0xx_HAL_Driver/Src/stm32c0xx_hal_rcc.c ****       /* Check the HSI State */
 402:Drivers/STM32C0xx_HAL_Driver/Src/stm32c0xx_hal_rcc.c ****       if (RCC_OscInitStruct->HSIState != RCC_HSI_OFF)
 403:Drivers/STM32C0xx_HAL_Driver/Src/stm32c0xx_hal_rcc.c ****       {
 404:Drivers/STM32C0xx_HAL_Driver/Src/stm32c0xx_hal_rcc.c ****         /* Configure the HSI48 division factor */
 405:Drivers/STM32C0xx_HAL_Driver/Src/stm32c0xx_hal_rcc.c ****         __HAL_RCC_HSI_CONFIG(RCC_OscInitStruct->HSIDiv);
 406:Drivers/STM32C0xx_HAL_Driver/Src/stm32c0xx_hal_rcc.c **** 
 407:Drivers/STM32C0xx_HAL_Driver/Src/stm32c0xx_hal_rcc.c ****         /* Enable the Internal High Speed oscillator (HSI48). */
 408:Drivers/STM32C0xx_HAL_Driver/Src/stm32c0xx_hal_rcc.c ****         __HAL_RCC_HSI_ENABLE();
 409:Drivers/STM32C0xx_HAL_Driver/Src/stm32c0xx_hal_rcc.c **** 
 410:Drivers/STM32C0xx_HAL_Driver/Src/stm32c0xx_hal_rcc.c ****         /* Get Start Tick*/
 411:Drivers/STM32C0xx_HAL_Driver/Src/stm32c0xx_hal_rcc.c ****         tickstart = HAL_GetTick();
 412:Drivers/STM32C0xx_HAL_Driver/Src/stm32c0xx_hal_rcc.c **** 
 413:Drivers/STM32C0xx_HAL_Driver/Src/stm32c0xx_hal_rcc.c ****         /* Wait till HSI is ready */
 414:Drivers/STM32C0xx_HAL_Driver/Src/stm32c0xx_hal_rcc.c ****         while (READ_BIT(RCC->CR, RCC_CR_HSIRDY) == 0U)
 415:Drivers/STM32C0xx_HAL_Driver/Src/stm32c0xx_hal_rcc.c ****         {
 416:Drivers/STM32C0xx_HAL_Driver/Src/stm32c0xx_hal_rcc.c ****           if ((HAL_GetTick() - tickstart) > RCC_HSI_TIMEOUT_VALUE)
 417:Drivers/STM32C0xx_HAL_Driver/Src/stm32c0xx_hal_rcc.c ****           {
 418:Drivers/STM32C0xx_HAL_Driver/Src/stm32c0xx_hal_rcc.c ****             return HAL_TIMEOUT;
 419:Drivers/STM32C0xx_HAL_Driver/Src/stm32c0xx_hal_rcc.c ****           }
 420:Drivers/STM32C0xx_HAL_Driver/Src/stm32c0xx_hal_rcc.c ****         }
 421:Drivers/STM32C0xx_HAL_Driver/Src/stm32c0xx_hal_rcc.c **** 
 422:Drivers/STM32C0xx_HAL_Driver/Src/stm32c0xx_hal_rcc.c ****         /* Adjusts the Internal High Speed oscillator (HSI) calibration value.*/
 423:Drivers/STM32C0xx_HAL_Driver/Src/stm32c0xx_hal_rcc.c ****         __HAL_RCC_HSI_CALIBRATIONVALUE_ADJUST(RCC_OscInitStruct->HSICalibrationValue);
 424:Drivers/STM32C0xx_HAL_Driver/Src/stm32c0xx_hal_rcc.c ****       }
 425:Drivers/STM32C0xx_HAL_Driver/Src/stm32c0xx_hal_rcc.c ****       else
 426:Drivers/STM32C0xx_HAL_Driver/Src/stm32c0xx_hal_rcc.c ****       {
 427:Drivers/STM32C0xx_HAL_Driver/Src/stm32c0xx_hal_rcc.c ****         /* Disable the Internal High Speed oscillator (HSI48). */
 428:Drivers/STM32C0xx_HAL_Driver/Src/stm32c0xx_hal_rcc.c ****         __HAL_RCC_HSI_DISABLE();
 429:Drivers/STM32C0xx_HAL_Driver/Src/stm32c0xx_hal_rcc.c **** 
 430:Drivers/STM32C0xx_HAL_Driver/Src/stm32c0xx_hal_rcc.c ****         /* Get Start Tick*/
 431:Drivers/STM32C0xx_HAL_Driver/Src/stm32c0xx_hal_rcc.c ****         tickstart = HAL_GetTick();
 432:Drivers/STM32C0xx_HAL_Driver/Src/stm32c0xx_hal_rcc.c **** 
 433:Drivers/STM32C0xx_HAL_Driver/Src/stm32c0xx_hal_rcc.c ****         /* Wait till HSI is disabled */
 434:Drivers/STM32C0xx_HAL_Driver/Src/stm32c0xx_hal_rcc.c ****         while (READ_BIT(RCC->CR, RCC_CR_HSIRDY) != 0U)
 435:Drivers/STM32C0xx_HAL_Driver/Src/stm32c0xx_hal_rcc.c ****         {
 436:Drivers/STM32C0xx_HAL_Driver/Src/stm32c0xx_hal_rcc.c ****           if ((HAL_GetTick() - tickstart) > RCC_HSI_TIMEOUT_VALUE)
 437:Drivers/STM32C0xx_HAL_Driver/Src/stm32c0xx_hal_rcc.c ****           {
 438:Drivers/STM32C0xx_HAL_Driver/Src/stm32c0xx_hal_rcc.c ****             return HAL_TIMEOUT;
 439:Drivers/STM32C0xx_HAL_Driver/Src/stm32c0xx_hal_rcc.c ****           }
 440:Drivers/STM32C0xx_HAL_Driver/Src/stm32c0xx_hal_rcc.c ****         }
 441:Drivers/STM32C0xx_HAL_Driver/Src/stm32c0xx_hal_rcc.c ****       }
 442:Drivers/STM32C0xx_HAL_Driver/Src/stm32c0xx_hal_rcc.c ****     }
 443:Drivers/STM32C0xx_HAL_Driver/Src/stm32c0xx_hal_rcc.c ****   }
 444:Drivers/STM32C0xx_HAL_Driver/Src/stm32c0xx_hal_rcc.c ****   /*------------------------------ LSI Configuration -------------------------*/
 445:Drivers/STM32C0xx_HAL_Driver/Src/stm32c0xx_hal_rcc.c ****   if (((RCC_OscInitStruct->OscillatorType) & RCC_OSCILLATORTYPE_LSI) == RCC_OSCILLATORTYPE_LSI)
 463              		.loc 1 445 3 is_stmt 1 view .LVU144
 464              		.loc 1 445 26 is_stmt 0 view .LVU145
 465 00fe 2368     		ldr	r3, [r4]
 466              		.loc 1 445 6 view .LVU146
ARM GAS  C:\Users\simay\AppData\Local\Temp\cctPq0DA.s 			page 18


 467 0100 1B07     		lsls	r3, r3, #28
 468 0102 57D5     		bpl	.L36
 446:Drivers/STM32C0xx_HAL_Driver/Src/stm32c0xx_hal_rcc.c ****   {
 447:Drivers/STM32C0xx_HAL_Driver/Src/stm32c0xx_hal_rcc.c ****     /* Check the parameters */
 448:Drivers/STM32C0xx_HAL_Driver/Src/stm32c0xx_hal_rcc.c ****     assert_param(IS_RCC_LSI(RCC_OscInitStruct->LSIState));
 469              		.loc 1 448 5 is_stmt 1 view .LVU147
 449:Drivers/STM32C0xx_HAL_Driver/Src/stm32c0xx_hal_rcc.c **** 
 450:Drivers/STM32C0xx_HAL_Driver/Src/stm32c0xx_hal_rcc.c ****     /* Check if LSI is used as system clock */
 451:Drivers/STM32C0xx_HAL_Driver/Src/stm32c0xx_hal_rcc.c ****     if (__HAL_RCC_GET_SYSCLK_SOURCE() == RCC_CFGR_SWS_LSI)
 470              		.loc 1 451 5 view .LVU148
 471              		.loc 1 451 9 is_stmt 0 view .LVU149
 472 0104 634B     		ldr	r3, .L84
 473 0106 9A68     		ldr	r2, [r3, #8]
 474 0108 3823     		movs	r3, #56
 475 010a 1340     		ands	r3, r2
 476              		.loc 1 451 8 view .LVU150
 477 010c 182B     		cmp	r3, #24
 478 010e 4ED0     		beq	.L76
 452:Drivers/STM32C0xx_HAL_Driver/Src/stm32c0xx_hal_rcc.c ****     {
 453:Drivers/STM32C0xx_HAL_Driver/Src/stm32c0xx_hal_rcc.c ****       /* When LSI is used as system clock it will not be disabled */
 454:Drivers/STM32C0xx_HAL_Driver/Src/stm32c0xx_hal_rcc.c ****       if (RCC_OscInitStruct->LSIState == RCC_LSI_OFF)
 455:Drivers/STM32C0xx_HAL_Driver/Src/stm32c0xx_hal_rcc.c ****       {
 456:Drivers/STM32C0xx_HAL_Driver/Src/stm32c0xx_hal_rcc.c ****         return HAL_ERROR;
 457:Drivers/STM32C0xx_HAL_Driver/Src/stm32c0xx_hal_rcc.c ****       }
 458:Drivers/STM32C0xx_HAL_Driver/Src/stm32c0xx_hal_rcc.c ****     }
 459:Drivers/STM32C0xx_HAL_Driver/Src/stm32c0xx_hal_rcc.c ****     else
 460:Drivers/STM32C0xx_HAL_Driver/Src/stm32c0xx_hal_rcc.c ****     {
 461:Drivers/STM32C0xx_HAL_Driver/Src/stm32c0xx_hal_rcc.c ****       /* Check the LSI State */
 462:Drivers/STM32C0xx_HAL_Driver/Src/stm32c0xx_hal_rcc.c ****       if (RCC_OscInitStruct->LSIState != RCC_LSI_OFF)
 479              		.loc 1 462 7 is_stmt 1 view .LVU151
 480              		.loc 1 462 28 is_stmt 0 view .LVU152
 481 0110 A369     		ldr	r3, [r4, #24]
 482              		.loc 1 462 10 view .LVU153
 483 0112 002B     		cmp	r3, #0
 484 0114 77D0     		beq	.L38
 463:Drivers/STM32C0xx_HAL_Driver/Src/stm32c0xx_hal_rcc.c ****       {
 464:Drivers/STM32C0xx_HAL_Driver/Src/stm32c0xx_hal_rcc.c ****         /* Enable the Internal Low Speed oscillator (LSI). */
 465:Drivers/STM32C0xx_HAL_Driver/Src/stm32c0xx_hal_rcc.c ****         __HAL_RCC_LSI_ENABLE();
 485              		.loc 1 465 9 is_stmt 1 view .LVU154
 486 0116 5F4A     		ldr	r2, .L84
 487 0118 136E     		ldr	r3, [r2, #96]
 488 011a 0121     		movs	r1, #1
 489 011c 0B43     		orrs	r3, r1
 490 011e 1366     		str	r3, [r2, #96]
 466:Drivers/STM32C0xx_HAL_Driver/Src/stm32c0xx_hal_rcc.c **** 
 467:Drivers/STM32C0xx_HAL_Driver/Src/stm32c0xx_hal_rcc.c ****         /* Get Start Tick*/
 468:Drivers/STM32C0xx_HAL_Driver/Src/stm32c0xx_hal_rcc.c ****         tickstart = HAL_GetTick();
 491              		.loc 1 468 9 view .LVU155
 492              		.loc 1 468 21 is_stmt 0 view .LVU156
 493 0120 FFF7FEFF 		bl	HAL_GetTick
 494              	.LVL34:
 495 0124 0500     		movs	r5, r0
 496              	.LVL35:
 469:Drivers/STM32C0xx_HAL_Driver/Src/stm32c0xx_hal_rcc.c **** 
 470:Drivers/STM32C0xx_HAL_Driver/Src/stm32c0xx_hal_rcc.c ****         /* Wait till LSI is ready */
 471:Drivers/STM32C0xx_HAL_Driver/Src/stm32c0xx_hal_rcc.c ****         while (READ_BIT(RCC->CSR2, RCC_CSR2_LSIRDY) == 0U)
 497              		.loc 1 471 9 is_stmt 1 view .LVU157
ARM GAS  C:\Users\simay\AppData\Local\Temp\cctPq0DA.s 			page 19


 498              	.L39:
 499              		.loc 1 471 53 view .LVU158
 500              		.loc 1 471 16 is_stmt 0 view .LVU159
 501 0126 5B4B     		ldr	r3, .L84
 502 0128 1B6E     		ldr	r3, [r3, #96]
 503              		.loc 1 471 53 view .LVU160
 504 012a 9B07     		lsls	r3, r3, #30
 505 012c 42D4     		bmi	.L36
 472:Drivers/STM32C0xx_HAL_Driver/Src/stm32c0xx_hal_rcc.c ****         {
 473:Drivers/STM32C0xx_HAL_Driver/Src/stm32c0xx_hal_rcc.c ****           if ((HAL_GetTick() - tickstart) > RCC_LSI_TIMEOUT_VALUE)
 506              		.loc 1 473 11 is_stmt 1 view .LVU161
 507              		.loc 1 473 16 is_stmt 0 view .LVU162
 508 012e FFF7FEFF 		bl	HAL_GetTick
 509              	.LVL36:
 510              		.loc 1 473 30 discriminator 1 view .LVU163
 511 0132 401B     		subs	r0, r0, r5
 512              		.loc 1 473 14 discriminator 1 view .LVU164
 513 0134 0228     		cmp	r0, #2
 514 0136 F6D9     		bls	.L39
 474:Drivers/STM32C0xx_HAL_Driver/Src/stm32c0xx_hal_rcc.c ****           {
 475:Drivers/STM32C0xx_HAL_Driver/Src/stm32c0xx_hal_rcc.c ****             return HAL_TIMEOUT;
 515              		.loc 1 475 20 view .LVU165
 516 0138 0320     		movs	r0, #3
 517 013a A0E0     		b	.L18
 518              	.LVL37:
 519              	.L30:
 402:Drivers/STM32C0xx_HAL_Driver/Src/stm32c0xx_hal_rcc.c ****       {
 520              		.loc 1 402 7 is_stmt 1 view .LVU166
 402:Drivers/STM32C0xx_HAL_Driver/Src/stm32c0xx_hal_rcc.c ****       {
 521              		.loc 1 402 28 is_stmt 0 view .LVU167
 522 013c E368     		ldr	r3, [r4, #12]
 523              	.LVL38:
 402:Drivers/STM32C0xx_HAL_Driver/Src/stm32c0xx_hal_rcc.c ****       {
 524              		.loc 1 402 10 view .LVU168
 525 013e 002B     		cmp	r3, #0
 526 0140 22D0     		beq	.L31
 405:Drivers/STM32C0xx_HAL_Driver/Src/stm32c0xx_hal_rcc.c **** 
 527              		.loc 1 405 9 is_stmt 1 view .LVU169
 528 0142 544A     		ldr	r2, .L84
 405:Drivers/STM32C0xx_HAL_Driver/Src/stm32c0xx_hal_rcc.c **** 
 529              		.loc 1 405 9 is_stmt 0 view .LVU170
 530 0144 1368     		ldr	r3, [r2]
 531 0146 5749     		ldr	r1, .L84+16
 532 0148 0B40     		ands	r3, r1
 533 014a 2169     		ldr	r1, [r4, #16]
 534 014c 0B43     		orrs	r3, r1
 535 014e 1360     		str	r3, [r2]
 408:Drivers/STM32C0xx_HAL_Driver/Src/stm32c0xx_hal_rcc.c **** 
 536              		.loc 1 408 9 is_stmt 1 view .LVU171
 537 0150 1168     		ldr	r1, [r2]
 538 0152 8023     		movs	r3, #128
 539 0154 5B00     		lsls	r3, r3, #1
 540 0156 0B43     		orrs	r3, r1
 541 0158 1360     		str	r3, [r2]
 411:Drivers/STM32C0xx_HAL_Driver/Src/stm32c0xx_hal_rcc.c **** 
 542              		.loc 1 411 9 view .LVU172
 411:Drivers/STM32C0xx_HAL_Driver/Src/stm32c0xx_hal_rcc.c **** 
ARM GAS  C:\Users\simay\AppData\Local\Temp\cctPq0DA.s 			page 20


 543              		.loc 1 411 21 is_stmt 0 view .LVU173
 544 015a FFF7FEFF 		bl	HAL_GetTick
 545              	.LVL39:
 546 015e 0500     		movs	r5, r0
 547              	.LVL40:
 414:Drivers/STM32C0xx_HAL_Driver/Src/stm32c0xx_hal_rcc.c ****         {
 548              		.loc 1 414 9 is_stmt 1 view .LVU174
 549              	.L32:
 414:Drivers/STM32C0xx_HAL_Driver/Src/stm32c0xx_hal_rcc.c ****         {
 550              		.loc 1 414 49 view .LVU175
 414:Drivers/STM32C0xx_HAL_Driver/Src/stm32c0xx_hal_rcc.c ****         {
 551              		.loc 1 414 16 is_stmt 0 view .LVU176
 552 0160 4C4B     		ldr	r3, .L84
 553 0162 1B68     		ldr	r3, [r3]
 414:Drivers/STM32C0xx_HAL_Driver/Src/stm32c0xx_hal_rcc.c ****         {
 554              		.loc 1 414 49 view .LVU177
 555 0164 5B05     		lsls	r3, r3, #21
 556 0166 06D4     		bmi	.L77
 416:Drivers/STM32C0xx_HAL_Driver/Src/stm32c0xx_hal_rcc.c ****           {
 557              		.loc 1 416 11 is_stmt 1 view .LVU178
 416:Drivers/STM32C0xx_HAL_Driver/Src/stm32c0xx_hal_rcc.c ****           {
 558              		.loc 1 416 16 is_stmt 0 view .LVU179
 559 0168 FFF7FEFF 		bl	HAL_GetTick
 560              	.LVL41:
 416:Drivers/STM32C0xx_HAL_Driver/Src/stm32c0xx_hal_rcc.c ****           {
 561              		.loc 1 416 30 discriminator 1 view .LVU180
 562 016c 401B     		subs	r0, r0, r5
 416:Drivers/STM32C0xx_HAL_Driver/Src/stm32c0xx_hal_rcc.c ****           {
 563              		.loc 1 416 14 discriminator 1 view .LVU181
 564 016e 0228     		cmp	r0, #2
 565 0170 F6D9     		bls	.L32
 418:Drivers/STM32C0xx_HAL_Driver/Src/stm32c0xx_hal_rcc.c ****           }
 566              		.loc 1 418 20 view .LVU182
 567 0172 0320     		movs	r0, #3
 568 0174 83E0     		b	.L18
 569              	.L77:
 423:Drivers/STM32C0xx_HAL_Driver/Src/stm32c0xx_hal_rcc.c ****       }
 570              		.loc 1 423 9 is_stmt 1 view .LVU183
 571 0176 4749     		ldr	r1, .L84
 572 0178 4B68     		ldr	r3, [r1, #4]
 573 017a 494A     		ldr	r2, .L84+12
 574 017c 1340     		ands	r3, r2
 575 017e 6269     		ldr	r2, [r4, #20]
 576 0180 1202     		lsls	r2, r2, #8
 577 0182 1343     		orrs	r3, r2
 578 0184 4B60     		str	r3, [r1, #4]
 579 0186 BAE7     		b	.L29
 580              	.LVL42:
 581              	.L31:
 428:Drivers/STM32C0xx_HAL_Driver/Src/stm32c0xx_hal_rcc.c **** 
 582              		.loc 1 428 9 view .LVU184
 583 0188 424A     		ldr	r2, .L84
 428:Drivers/STM32C0xx_HAL_Driver/Src/stm32c0xx_hal_rcc.c **** 
 584              		.loc 1 428 9 is_stmt 0 view .LVU185
 585 018a 1368     		ldr	r3, [r2]
 586 018c 4949     		ldr	r1, .L84+32
 587 018e 0B40     		ands	r3, r1
ARM GAS  C:\Users\simay\AppData\Local\Temp\cctPq0DA.s 			page 21


 588 0190 1360     		str	r3, [r2]
 431:Drivers/STM32C0xx_HAL_Driver/Src/stm32c0xx_hal_rcc.c **** 
 589              		.loc 1 431 9 is_stmt 1 view .LVU186
 431:Drivers/STM32C0xx_HAL_Driver/Src/stm32c0xx_hal_rcc.c **** 
 590              		.loc 1 431 21 is_stmt 0 view .LVU187
 591 0192 FFF7FEFF 		bl	HAL_GetTick
 592              	.LVL43:
 593 0196 0500     		movs	r5, r0
 594              	.LVL44:
 434:Drivers/STM32C0xx_HAL_Driver/Src/stm32c0xx_hal_rcc.c ****         {
 595              		.loc 1 434 9 is_stmt 1 view .LVU188
 596              	.L34:
 434:Drivers/STM32C0xx_HAL_Driver/Src/stm32c0xx_hal_rcc.c ****         {
 597              		.loc 1 434 49 view .LVU189
 434:Drivers/STM32C0xx_HAL_Driver/Src/stm32c0xx_hal_rcc.c ****         {
 598              		.loc 1 434 16 is_stmt 0 view .LVU190
 599 0198 3E4B     		ldr	r3, .L84
 600 019a 1B68     		ldr	r3, [r3]
 434:Drivers/STM32C0xx_HAL_Driver/Src/stm32c0xx_hal_rcc.c ****         {
 601              		.loc 1 434 49 view .LVU191
 602 019c 5B05     		lsls	r3, r3, #21
 603 019e AED5     		bpl	.L29
 436:Drivers/STM32C0xx_HAL_Driver/Src/stm32c0xx_hal_rcc.c ****           {
 604              		.loc 1 436 11 is_stmt 1 view .LVU192
 436:Drivers/STM32C0xx_HAL_Driver/Src/stm32c0xx_hal_rcc.c ****           {
 605              		.loc 1 436 16 is_stmt 0 view .LVU193
 606 01a0 FFF7FEFF 		bl	HAL_GetTick
 607              	.LVL45:
 436:Drivers/STM32C0xx_HAL_Driver/Src/stm32c0xx_hal_rcc.c ****           {
 608              		.loc 1 436 30 discriminator 1 view .LVU194
 609 01a4 401B     		subs	r0, r0, r5
 436:Drivers/STM32C0xx_HAL_Driver/Src/stm32c0xx_hal_rcc.c ****           {
 610              		.loc 1 436 14 discriminator 1 view .LVU195
 611 01a6 0228     		cmp	r0, #2
 612 01a8 F6D9     		bls	.L34
 438:Drivers/STM32C0xx_HAL_Driver/Src/stm32c0xx_hal_rcc.c ****           }
 613              		.loc 1 438 20 view .LVU196
 614 01aa 0320     		movs	r0, #3
 615 01ac 67E0     		b	.L18
 616              	.LVL46:
 617              	.L76:
 454:Drivers/STM32C0xx_HAL_Driver/Src/stm32c0xx_hal_rcc.c ****       {
 618              		.loc 1 454 7 is_stmt 1 view .LVU197
 454:Drivers/STM32C0xx_HAL_Driver/Src/stm32c0xx_hal_rcc.c ****       {
 619              		.loc 1 454 28 is_stmt 0 view .LVU198
 620 01ae A369     		ldr	r3, [r4, #24]
 454:Drivers/STM32C0xx_HAL_Driver/Src/stm32c0xx_hal_rcc.c ****       {
 621              		.loc 1 454 10 view .LVU199
 622 01b0 002B     		cmp	r3, #0
 623 01b2 69D0     		beq	.L78
 624              	.L36:
 476:Drivers/STM32C0xx_HAL_Driver/Src/stm32c0xx_hal_rcc.c ****           }
 477:Drivers/STM32C0xx_HAL_Driver/Src/stm32c0xx_hal_rcc.c ****         }
 478:Drivers/STM32C0xx_HAL_Driver/Src/stm32c0xx_hal_rcc.c ****       }
 479:Drivers/STM32C0xx_HAL_Driver/Src/stm32c0xx_hal_rcc.c ****       else
 480:Drivers/STM32C0xx_HAL_Driver/Src/stm32c0xx_hal_rcc.c ****       {
 481:Drivers/STM32C0xx_HAL_Driver/Src/stm32c0xx_hal_rcc.c ****         /* Disable the Internal Low Speed oscillator (LSI). */
ARM GAS  C:\Users\simay\AppData\Local\Temp\cctPq0DA.s 			page 22


 482:Drivers/STM32C0xx_HAL_Driver/Src/stm32c0xx_hal_rcc.c ****         __HAL_RCC_LSI_DISABLE();
 483:Drivers/STM32C0xx_HAL_Driver/Src/stm32c0xx_hal_rcc.c **** 
 484:Drivers/STM32C0xx_HAL_Driver/Src/stm32c0xx_hal_rcc.c ****         /* Get Start Tick*/
 485:Drivers/STM32C0xx_HAL_Driver/Src/stm32c0xx_hal_rcc.c ****         tickstart = HAL_GetTick();
 486:Drivers/STM32C0xx_HAL_Driver/Src/stm32c0xx_hal_rcc.c **** 
 487:Drivers/STM32C0xx_HAL_Driver/Src/stm32c0xx_hal_rcc.c ****         /* Wait till LSI is disabled */
 488:Drivers/STM32C0xx_HAL_Driver/Src/stm32c0xx_hal_rcc.c ****         while (READ_BIT(RCC->CSR2, RCC_CSR2_LSIRDY) != 0U)
 489:Drivers/STM32C0xx_HAL_Driver/Src/stm32c0xx_hal_rcc.c ****         {
 490:Drivers/STM32C0xx_HAL_Driver/Src/stm32c0xx_hal_rcc.c ****           if ((HAL_GetTick() - tickstart) > RCC_LSI_TIMEOUT_VALUE)
 491:Drivers/STM32C0xx_HAL_Driver/Src/stm32c0xx_hal_rcc.c ****           {
 492:Drivers/STM32C0xx_HAL_Driver/Src/stm32c0xx_hal_rcc.c ****             return HAL_TIMEOUT;
 493:Drivers/STM32C0xx_HAL_Driver/Src/stm32c0xx_hal_rcc.c ****           }
 494:Drivers/STM32C0xx_HAL_Driver/Src/stm32c0xx_hal_rcc.c ****         }
 495:Drivers/STM32C0xx_HAL_Driver/Src/stm32c0xx_hal_rcc.c ****       }
 496:Drivers/STM32C0xx_HAL_Driver/Src/stm32c0xx_hal_rcc.c ****     }
 497:Drivers/STM32C0xx_HAL_Driver/Src/stm32c0xx_hal_rcc.c ****   }
 498:Drivers/STM32C0xx_HAL_Driver/Src/stm32c0xx_hal_rcc.c ****   /*------------------------------ LSE Configuration -------------------------*/
 499:Drivers/STM32C0xx_HAL_Driver/Src/stm32c0xx_hal_rcc.c ****   if (((RCC_OscInitStruct->OscillatorType) & RCC_OSCILLATORTYPE_LSE) == RCC_OSCILLATORTYPE_LSE)
 625              		.loc 1 499 3 is_stmt 1 view .LVU200
 626              		.loc 1 499 26 is_stmt 0 view .LVU201
 627 01b4 2368     		ldr	r3, [r4]
 628              		.loc 1 499 6 view .LVU202
 629 01b6 5B07     		lsls	r3, r3, #29
 630 01b8 68D5     		bpl	.L63
 631              	.LBB6:
 500:Drivers/STM32C0xx_HAL_Driver/Src/stm32c0xx_hal_rcc.c ****   {
 501:Drivers/STM32C0xx_HAL_Driver/Src/stm32c0xx_hal_rcc.c ****     FlagStatus       pwrclkchanged = RESET;
 632              		.loc 1 501 5 is_stmt 1 view .LVU203
 633              	.LVL47:
 502:Drivers/STM32C0xx_HAL_Driver/Src/stm32c0xx_hal_rcc.c **** 
 503:Drivers/STM32C0xx_HAL_Driver/Src/stm32c0xx_hal_rcc.c ****     /* Check the parameters */
 504:Drivers/STM32C0xx_HAL_Driver/Src/stm32c0xx_hal_rcc.c ****     assert_param(IS_RCC_LSE(RCC_OscInitStruct->LSEState));
 634              		.loc 1 504 5 view .LVU204
 505:Drivers/STM32C0xx_HAL_Driver/Src/stm32c0xx_hal_rcc.c **** 
 506:Drivers/STM32C0xx_HAL_Driver/Src/stm32c0xx_hal_rcc.c ****     /* When the LSE is used as system clock, it is not allowed disable it */
 507:Drivers/STM32C0xx_HAL_Driver/Src/stm32c0xx_hal_rcc.c ****     if (__HAL_RCC_GET_SYSCLK_SOURCE() == RCC_CFGR_SWS_LSE)
 635              		.loc 1 507 5 view .LVU205
 636              		.loc 1 507 9 is_stmt 0 view .LVU206
 637 01ba 364B     		ldr	r3, .L84
 638 01bc 9A68     		ldr	r2, [r3, #8]
 639 01be 3823     		movs	r3, #56
 640 01c0 1340     		ands	r3, r2
 641              		.loc 1 507 8 view .LVU207
 642 01c2 202B     		cmp	r3, #32
 643 01c4 32D0     		beq	.L79
 508:Drivers/STM32C0xx_HAL_Driver/Src/stm32c0xx_hal_rcc.c ****     {
 509:Drivers/STM32C0xx_HAL_Driver/Src/stm32c0xx_hal_rcc.c ****       if (RCC_OscInitStruct->LSEState == RCC_LSE_OFF)
 510:Drivers/STM32C0xx_HAL_Driver/Src/stm32c0xx_hal_rcc.c ****       {
 511:Drivers/STM32C0xx_HAL_Driver/Src/stm32c0xx_hal_rcc.c ****         return HAL_ERROR;
 512:Drivers/STM32C0xx_HAL_Driver/Src/stm32c0xx_hal_rcc.c ****       }
 513:Drivers/STM32C0xx_HAL_Driver/Src/stm32c0xx_hal_rcc.c ****     }
 514:Drivers/STM32C0xx_HAL_Driver/Src/stm32c0xx_hal_rcc.c ****     else
 515:Drivers/STM32C0xx_HAL_Driver/Src/stm32c0xx_hal_rcc.c ****     {
 516:Drivers/STM32C0xx_HAL_Driver/Src/stm32c0xx_hal_rcc.c ****       /* Update LSE configuration in RTC Domain control register    */
 517:Drivers/STM32C0xx_HAL_Driver/Src/stm32c0xx_hal_rcc.c ****       /* Set the new LSE configuration -----------------------------------------*/
 518:Drivers/STM32C0xx_HAL_Driver/Src/stm32c0xx_hal_rcc.c ****       __HAL_RCC_LSE_CONFIG(RCC_OscInitStruct->LSEState);
 644              		.loc 1 518 7 is_stmt 1 view .LVU208
ARM GAS  C:\Users\simay\AppData\Local\Temp\cctPq0DA.s 			page 23


 645              		.loc 1 518 7 view .LVU209
 646 01c6 A368     		ldr	r3, [r4, #8]
 647 01c8 012B     		cmp	r3, #1
 648 01ca 34D0     		beq	.L80
 649              		.loc 1 518 7 discriminator 2 view .LVU210
 650 01cc 052B     		cmp	r3, #5
 651 01ce 38D0     		beq	.L81
 652              		.loc 1 518 7 discriminator 4 view .LVU211
 653 01d0 304B     		ldr	r3, .L84
 654 01d2 DA6D     		ldr	r2, [r3, #92]
 655 01d4 0121     		movs	r1, #1
 656 01d6 8A43     		bics	r2, r1
 657 01d8 DA65     		str	r2, [r3, #92]
 658              		.loc 1 518 7 view .LVU212
 659              		.loc 1 518 7 is_stmt 0 discriminator 4 view .LVU213
 660 01da DA6D     		ldr	r2, [r3, #92]
 661 01dc 0331     		adds	r1, r1, #3
 662 01de 8A43     		bics	r2, r1
 663 01e0 DA65     		str	r2, [r3, #92]
 664              	.L45:
 665              		.loc 1 518 7 is_stmt 1 view .LVU214
 519:Drivers/STM32C0xx_HAL_Driver/Src/stm32c0xx_hal_rcc.c **** 
 520:Drivers/STM32C0xx_HAL_Driver/Src/stm32c0xx_hal_rcc.c ****       /* Check the LSE State */
 521:Drivers/STM32C0xx_HAL_Driver/Src/stm32c0xx_hal_rcc.c ****       if (RCC_OscInitStruct->LSEState != RCC_LSE_OFF)
 666              		.loc 1 521 7 view .LVU215
 667              		.loc 1 521 28 is_stmt 0 view .LVU216
 668 01e2 A368     		ldr	r3, [r4, #8]
 669              		.loc 1 521 10 view .LVU217
 670 01e4 002B     		cmp	r3, #0
 671 01e6 38D0     		beq	.L47
 522:Drivers/STM32C0xx_HAL_Driver/Src/stm32c0xx_hal_rcc.c ****       {
 523:Drivers/STM32C0xx_HAL_Driver/Src/stm32c0xx_hal_rcc.c ****         /* Get Start Tick*/
 524:Drivers/STM32C0xx_HAL_Driver/Src/stm32c0xx_hal_rcc.c ****         tickstart = HAL_GetTick();
 672              		.loc 1 524 9 is_stmt 1 view .LVU218
 673              		.loc 1 524 21 is_stmt 0 view .LVU219
 674 01e8 FFF7FEFF 		bl	HAL_GetTick
 675              	.LVL48:
 676 01ec 0400     		movs	r4, r0
 677              	.LVL49:
 525:Drivers/STM32C0xx_HAL_Driver/Src/stm32c0xx_hal_rcc.c **** 
 526:Drivers/STM32C0xx_HAL_Driver/Src/stm32c0xx_hal_rcc.c ****         /* Wait till LSE is ready */
 527:Drivers/STM32C0xx_HAL_Driver/Src/stm32c0xx_hal_rcc.c ****         while (READ_BIT(RCC->CSR1, RCC_CSR1_LSERDY) == 0U)
 678              		.loc 1 527 9 is_stmt 1 view .LVU220
 679              	.L48:
 680              		.loc 1 527 53 view .LVU221
 681              		.loc 1 527 16 is_stmt 0 view .LVU222
 682 01ee 294B     		ldr	r3, .L84
 683 01f0 DB6D     		ldr	r3, [r3, #92]
 684              		.loc 1 527 53 view .LVU223
 685 01f2 9B07     		lsls	r3, r3, #30
 686 01f4 2FD4     		bmi	.L82
 528:Drivers/STM32C0xx_HAL_Driver/Src/stm32c0xx_hal_rcc.c ****         {
 529:Drivers/STM32C0xx_HAL_Driver/Src/stm32c0xx_hal_rcc.c ****           if ((HAL_GetTick() - tickstart) > RCC_LSE_TIMEOUT_VALUE)
 687              		.loc 1 529 11 is_stmt 1 view .LVU224
 688              		.loc 1 529 16 is_stmt 0 view .LVU225
 689 01f6 FFF7FEFF 		bl	HAL_GetTick
 690              	.LVL50:
ARM GAS  C:\Users\simay\AppData\Local\Temp\cctPq0DA.s 			page 24


 691              		.loc 1 529 30 discriminator 1 view .LVU226
 692 01fa 001B     		subs	r0, r0, r4
 693              		.loc 1 529 14 discriminator 1 view .LVU227
 694 01fc 2E4B     		ldr	r3, .L84+36
 695 01fe 9842     		cmp	r0, r3
 696 0200 F5D9     		bls	.L48
 530:Drivers/STM32C0xx_HAL_Driver/Src/stm32c0xx_hal_rcc.c ****           {
 531:Drivers/STM32C0xx_HAL_Driver/Src/stm32c0xx_hal_rcc.c ****             return HAL_TIMEOUT;
 697              		.loc 1 531 20 view .LVU228
 698 0202 0320     		movs	r0, #3
 699 0204 3BE0     		b	.L18
 700              	.LVL51:
 701              	.L38:
 702              		.loc 1 531 20 view .LVU229
 703              	.LBE6:
 482:Drivers/STM32C0xx_HAL_Driver/Src/stm32c0xx_hal_rcc.c **** 
 704              		.loc 1 482 9 is_stmt 1 view .LVU230
 705 0206 234A     		ldr	r2, .L84
 706 0208 136E     		ldr	r3, [r2, #96]
 707 020a 0121     		movs	r1, #1
 708 020c 8B43     		bics	r3, r1
 709 020e 1366     		str	r3, [r2, #96]
 485:Drivers/STM32C0xx_HAL_Driver/Src/stm32c0xx_hal_rcc.c **** 
 710              		.loc 1 485 9 view .LVU231
 485:Drivers/STM32C0xx_HAL_Driver/Src/stm32c0xx_hal_rcc.c **** 
 711              		.loc 1 485 21 is_stmt 0 view .LVU232
 712 0210 FFF7FEFF 		bl	HAL_GetTick
 713              	.LVL52:
 714 0214 0500     		movs	r5, r0
 715              	.LVL53:
 488:Drivers/STM32C0xx_HAL_Driver/Src/stm32c0xx_hal_rcc.c ****         {
 716              		.loc 1 488 9 is_stmt 1 view .LVU233
 717              	.L41:
 488:Drivers/STM32C0xx_HAL_Driver/Src/stm32c0xx_hal_rcc.c ****         {
 718              		.loc 1 488 53 view .LVU234
 488:Drivers/STM32C0xx_HAL_Driver/Src/stm32c0xx_hal_rcc.c ****         {
 719              		.loc 1 488 16 is_stmt 0 view .LVU235
 720 0216 1F4B     		ldr	r3, .L84
 721 0218 1B6E     		ldr	r3, [r3, #96]
 488:Drivers/STM32C0xx_HAL_Driver/Src/stm32c0xx_hal_rcc.c ****         {
 722              		.loc 1 488 53 view .LVU236
 723 021a 9B07     		lsls	r3, r3, #30
 724 021c CAD5     		bpl	.L36
 490:Drivers/STM32C0xx_HAL_Driver/Src/stm32c0xx_hal_rcc.c ****           {
 725              		.loc 1 490 11 is_stmt 1 view .LVU237
 490:Drivers/STM32C0xx_HAL_Driver/Src/stm32c0xx_hal_rcc.c ****           {
 726              		.loc 1 490 16 is_stmt 0 view .LVU238
 727 021e FFF7FEFF 		bl	HAL_GetTick
 728              	.LVL54:
 490:Drivers/STM32C0xx_HAL_Driver/Src/stm32c0xx_hal_rcc.c ****           {
 729              		.loc 1 490 30 discriminator 1 view .LVU239
 730 0222 401B     		subs	r0, r0, r5
 490:Drivers/STM32C0xx_HAL_Driver/Src/stm32c0xx_hal_rcc.c ****           {
 731              		.loc 1 490 14 discriminator 1 view .LVU240
 732 0224 0228     		cmp	r0, #2
 733 0226 F6D9     		bls	.L41
 492:Drivers/STM32C0xx_HAL_Driver/Src/stm32c0xx_hal_rcc.c ****           }
ARM GAS  C:\Users\simay\AppData\Local\Temp\cctPq0DA.s 			page 25


 734              		.loc 1 492 20 view .LVU241
 735 0228 0320     		movs	r0, #3
 736 022a 28E0     		b	.L18
 737              	.LVL55:
 738              	.L79:
 739              	.LBB7:
 509:Drivers/STM32C0xx_HAL_Driver/Src/stm32c0xx_hal_rcc.c ****       {
 740              		.loc 1 509 7 is_stmt 1 view .LVU242
 509:Drivers/STM32C0xx_HAL_Driver/Src/stm32c0xx_hal_rcc.c ****       {
 741              		.loc 1 509 28 is_stmt 0 view .LVU243
 742 022c A368     		ldr	r3, [r4, #8]
 509:Drivers/STM32C0xx_HAL_Driver/Src/stm32c0xx_hal_rcc.c ****       {
 743              		.loc 1 509 10 view .LVU244
 744 022e 002B     		cmp	r3, #0
 745 0230 2ED0     		beq	.L64
 746              	.LBE7:
 532:Drivers/STM32C0xx_HAL_Driver/Src/stm32c0xx_hal_rcc.c ****           }
 533:Drivers/STM32C0xx_HAL_Driver/Src/stm32c0xx_hal_rcc.c ****         }
 534:Drivers/STM32C0xx_HAL_Driver/Src/stm32c0xx_hal_rcc.c ****       }
 535:Drivers/STM32C0xx_HAL_Driver/Src/stm32c0xx_hal_rcc.c ****       else
 536:Drivers/STM32C0xx_HAL_Driver/Src/stm32c0xx_hal_rcc.c ****       {
 537:Drivers/STM32C0xx_HAL_Driver/Src/stm32c0xx_hal_rcc.c ****         /* Get Start Tick*/
 538:Drivers/STM32C0xx_HAL_Driver/Src/stm32c0xx_hal_rcc.c ****         tickstart = HAL_GetTick();
 539:Drivers/STM32C0xx_HAL_Driver/Src/stm32c0xx_hal_rcc.c **** 
 540:Drivers/STM32C0xx_HAL_Driver/Src/stm32c0xx_hal_rcc.c ****         /* Wait till LSE is disabled */
 541:Drivers/STM32C0xx_HAL_Driver/Src/stm32c0xx_hal_rcc.c ****         while (READ_BIT(RCC->CSR1, RCC_CSR1_LSERDY) != 0U)
 542:Drivers/STM32C0xx_HAL_Driver/Src/stm32c0xx_hal_rcc.c ****         {
 543:Drivers/STM32C0xx_HAL_Driver/Src/stm32c0xx_hal_rcc.c ****           if ((HAL_GetTick() - tickstart) > RCC_LSE_TIMEOUT_VALUE)
 544:Drivers/STM32C0xx_HAL_Driver/Src/stm32c0xx_hal_rcc.c ****           {
 545:Drivers/STM32C0xx_HAL_Driver/Src/stm32c0xx_hal_rcc.c ****             return HAL_TIMEOUT;
 546:Drivers/STM32C0xx_HAL_Driver/Src/stm32c0xx_hal_rcc.c ****           }
 547:Drivers/STM32C0xx_HAL_Driver/Src/stm32c0xx_hal_rcc.c ****         }
 548:Drivers/STM32C0xx_HAL_Driver/Src/stm32c0xx_hal_rcc.c ****       }
 549:Drivers/STM32C0xx_HAL_Driver/Src/stm32c0xx_hal_rcc.c **** 
 550:Drivers/STM32C0xx_HAL_Driver/Src/stm32c0xx_hal_rcc.c ****       /* Restore clock configuration if changed */
 551:Drivers/STM32C0xx_HAL_Driver/Src/stm32c0xx_hal_rcc.c ****       if (pwrclkchanged == SET)
 552:Drivers/STM32C0xx_HAL_Driver/Src/stm32c0xx_hal_rcc.c ****       {
 553:Drivers/STM32C0xx_HAL_Driver/Src/stm32c0xx_hal_rcc.c ****         __HAL_RCC_PWR_CLK_DISABLE();
 554:Drivers/STM32C0xx_HAL_Driver/Src/stm32c0xx_hal_rcc.c ****       }
 555:Drivers/STM32C0xx_HAL_Driver/Src/stm32c0xx_hal_rcc.c ****     }
 556:Drivers/STM32C0xx_HAL_Driver/Src/stm32c0xx_hal_rcc.c ****   }
 557:Drivers/STM32C0xx_HAL_Driver/Src/stm32c0xx_hal_rcc.c **** #if defined(RCC_CR_HSIUSB48ON)
 558:Drivers/STM32C0xx_HAL_Driver/Src/stm32c0xx_hal_rcc.c ****   /*------------------------------ HSI48 Configuration -----------------------*/
 559:Drivers/STM32C0xx_HAL_Driver/Src/stm32c0xx_hal_rcc.c ****   if (((RCC_OscInitStruct->OscillatorType) & RCC_OSCILLATORTYPE_HSI48) == RCC_OSCILLATORTYPE_HSI48)
 560:Drivers/STM32C0xx_HAL_Driver/Src/stm32c0xx_hal_rcc.c ****   {
 561:Drivers/STM32C0xx_HAL_Driver/Src/stm32c0xx_hal_rcc.c ****     /* Check the parameters */
 562:Drivers/STM32C0xx_HAL_Driver/Src/stm32c0xx_hal_rcc.c ****     assert_param(IS_RCC_HSI48(RCC_OscInitStruct->HSI48State));
 563:Drivers/STM32C0xx_HAL_Driver/Src/stm32c0xx_hal_rcc.c **** 
 564:Drivers/STM32C0xx_HAL_Driver/Src/stm32c0xx_hal_rcc.c ****     /* Check the LSI State */
 565:Drivers/STM32C0xx_HAL_Driver/Src/stm32c0xx_hal_rcc.c ****     if (RCC_OscInitStruct->HSI48State != RCC_HSI48_OFF)
 566:Drivers/STM32C0xx_HAL_Driver/Src/stm32c0xx_hal_rcc.c ****     {
 567:Drivers/STM32C0xx_HAL_Driver/Src/stm32c0xx_hal_rcc.c ****       /* Enable the Internal Low Speed oscillator (HSI48). */
 568:Drivers/STM32C0xx_HAL_Driver/Src/stm32c0xx_hal_rcc.c ****       __HAL_RCC_HSI48_ENABLE();
 569:Drivers/STM32C0xx_HAL_Driver/Src/stm32c0xx_hal_rcc.c **** 
 570:Drivers/STM32C0xx_HAL_Driver/Src/stm32c0xx_hal_rcc.c ****       /* Get Start Tick*/
 571:Drivers/STM32C0xx_HAL_Driver/Src/stm32c0xx_hal_rcc.c ****       tickstart = HAL_GetTick();
 572:Drivers/STM32C0xx_HAL_Driver/Src/stm32c0xx_hal_rcc.c **** 
ARM GAS  C:\Users\simay\AppData\Local\Temp\cctPq0DA.s 			page 26


 573:Drivers/STM32C0xx_HAL_Driver/Src/stm32c0xx_hal_rcc.c ****       /* Wait till HSI48 is ready */
 574:Drivers/STM32C0xx_HAL_Driver/Src/stm32c0xx_hal_rcc.c ****       while (READ_BIT(RCC->CR, RCC_CR_HSIUSB48RDY) == 0U)
 575:Drivers/STM32C0xx_HAL_Driver/Src/stm32c0xx_hal_rcc.c ****       {
 576:Drivers/STM32C0xx_HAL_Driver/Src/stm32c0xx_hal_rcc.c ****         if ((HAL_GetTick() - tickstart) > HSI48_TIMEOUT_VALUE)
 577:Drivers/STM32C0xx_HAL_Driver/Src/stm32c0xx_hal_rcc.c ****         {
 578:Drivers/STM32C0xx_HAL_Driver/Src/stm32c0xx_hal_rcc.c ****           return HAL_TIMEOUT;
 579:Drivers/STM32C0xx_HAL_Driver/Src/stm32c0xx_hal_rcc.c ****         }
 580:Drivers/STM32C0xx_HAL_Driver/Src/stm32c0xx_hal_rcc.c ****       }
 581:Drivers/STM32C0xx_HAL_Driver/Src/stm32c0xx_hal_rcc.c ****     }
 582:Drivers/STM32C0xx_HAL_Driver/Src/stm32c0xx_hal_rcc.c ****     else
 583:Drivers/STM32C0xx_HAL_Driver/Src/stm32c0xx_hal_rcc.c ****     {
 584:Drivers/STM32C0xx_HAL_Driver/Src/stm32c0xx_hal_rcc.c ****       /* Disable the Internal Low Speed oscillator (HSI48). */
 585:Drivers/STM32C0xx_HAL_Driver/Src/stm32c0xx_hal_rcc.c ****       __HAL_RCC_HSI48_DISABLE();
 586:Drivers/STM32C0xx_HAL_Driver/Src/stm32c0xx_hal_rcc.c **** 
 587:Drivers/STM32C0xx_HAL_Driver/Src/stm32c0xx_hal_rcc.c ****       /* Get Start Tick*/
 588:Drivers/STM32C0xx_HAL_Driver/Src/stm32c0xx_hal_rcc.c ****       tickstart = HAL_GetTick();
 589:Drivers/STM32C0xx_HAL_Driver/Src/stm32c0xx_hal_rcc.c **** 
 590:Drivers/STM32C0xx_HAL_Driver/Src/stm32c0xx_hal_rcc.c ****       /* Wait till HSI48 is disabled */
 591:Drivers/STM32C0xx_HAL_Driver/Src/stm32c0xx_hal_rcc.c ****       while (READ_BIT(RCC->CR, RCC_CR_HSIUSB48RDY) != 0U)
 592:Drivers/STM32C0xx_HAL_Driver/Src/stm32c0xx_hal_rcc.c ****       {
 593:Drivers/STM32C0xx_HAL_Driver/Src/stm32c0xx_hal_rcc.c ****         if ((HAL_GetTick() - tickstart) > HSI48_TIMEOUT_VALUE)
 594:Drivers/STM32C0xx_HAL_Driver/Src/stm32c0xx_hal_rcc.c ****         {
 595:Drivers/STM32C0xx_HAL_Driver/Src/stm32c0xx_hal_rcc.c ****           return HAL_TIMEOUT;
 596:Drivers/STM32C0xx_HAL_Driver/Src/stm32c0xx_hal_rcc.c ****         }
 597:Drivers/STM32C0xx_HAL_Driver/Src/stm32c0xx_hal_rcc.c ****       }
 598:Drivers/STM32C0xx_HAL_Driver/Src/stm32c0xx_hal_rcc.c ****     }
 599:Drivers/STM32C0xx_HAL_Driver/Src/stm32c0xx_hal_rcc.c ****   }
 600:Drivers/STM32C0xx_HAL_Driver/Src/stm32c0xx_hal_rcc.c **** #endif /* RCC_CR_HSIUSB48ON */
 601:Drivers/STM32C0xx_HAL_Driver/Src/stm32c0xx_hal_rcc.c ****   return HAL_OK;
 747              		.loc 1 601 10 view .LVU245
 748 0232 0020     		movs	r0, #0
 749 0234 23E0     		b	.L18
 750              	.L80:
 751              	.LBB8:
 518:Drivers/STM32C0xx_HAL_Driver/Src/stm32c0xx_hal_rcc.c **** 
 752              		.loc 1 518 7 is_stmt 1 discriminator 1 view .LVU246
 753 0236 174A     		ldr	r2, .L84
 754 0238 D36D     		ldr	r3, [r2, #92]
 755 023a 0121     		movs	r1, #1
 756 023c 0B43     		orrs	r3, r1
 757 023e D365     		str	r3, [r2, #92]
 758 0240 CFE7     		b	.L45
 759              	.L81:
 518:Drivers/STM32C0xx_HAL_Driver/Src/stm32c0xx_hal_rcc.c **** 
 760              		.loc 1 518 7 discriminator 3 view .LVU247
 761 0242 144B     		ldr	r3, .L84
 762 0244 DA6D     		ldr	r2, [r3, #92]
 763 0246 0421     		movs	r1, #4
 764 0248 0A43     		orrs	r2, r1
 765 024a DA65     		str	r2, [r3, #92]
 518:Drivers/STM32C0xx_HAL_Driver/Src/stm32c0xx_hal_rcc.c **** 
 766              		.loc 1 518 7 view .LVU248
 518:Drivers/STM32C0xx_HAL_Driver/Src/stm32c0xx_hal_rcc.c **** 
 767              		.loc 1 518 7 is_stmt 0 discriminator 3 view .LVU249
 768 024c DA6D     		ldr	r2, [r3, #92]
 769 024e 0339     		subs	r1, r1, #3
 770 0250 0A43     		orrs	r2, r1
ARM GAS  C:\Users\simay\AppData\Local\Temp\cctPq0DA.s 			page 27


 771 0252 DA65     		str	r2, [r3, #92]
 772 0254 C5E7     		b	.L45
 773              	.LVL56:
 774              	.L82:
 518:Drivers/STM32C0xx_HAL_Driver/Src/stm32c0xx_hal_rcc.c **** 
 775              		.loc 1 518 7 discriminator 3 view .LVU250
 776              	.LBE8:
 777              		.loc 1 601 10 view .LVU251
 778 0256 0020     		movs	r0, #0
 779 0258 11E0     		b	.L18
 780              	.LVL57:
 781              	.L47:
 782              	.LBB9:
 538:Drivers/STM32C0xx_HAL_Driver/Src/stm32c0xx_hal_rcc.c **** 
 783              		.loc 1 538 9 is_stmt 1 view .LVU252
 538:Drivers/STM32C0xx_HAL_Driver/Src/stm32c0xx_hal_rcc.c **** 
 784              		.loc 1 538 21 is_stmt 0 view .LVU253
 785 025a FFF7FEFF 		bl	HAL_GetTick
 786              	.LVL58:
 787 025e 0400     		movs	r4, r0
 788              	.LVL59:
 541:Drivers/STM32C0xx_HAL_Driver/Src/stm32c0xx_hal_rcc.c ****         {
 789              		.loc 1 541 9 is_stmt 1 view .LVU254
 790              	.L50:
 541:Drivers/STM32C0xx_HAL_Driver/Src/stm32c0xx_hal_rcc.c ****         {
 791              		.loc 1 541 53 view .LVU255
 541:Drivers/STM32C0xx_HAL_Driver/Src/stm32c0xx_hal_rcc.c ****         {
 792              		.loc 1 541 16 is_stmt 0 view .LVU256
 793 0260 0C4B     		ldr	r3, .L84
 794 0262 DB6D     		ldr	r3, [r3, #92]
 541:Drivers/STM32C0xx_HAL_Driver/Src/stm32c0xx_hal_rcc.c ****         {
 795              		.loc 1 541 53 view .LVU257
 796 0264 9B07     		lsls	r3, r3, #30
 797 0266 07D5     		bpl	.L83
 543:Drivers/STM32C0xx_HAL_Driver/Src/stm32c0xx_hal_rcc.c ****           {
 798              		.loc 1 543 11 is_stmt 1 view .LVU258
 543:Drivers/STM32C0xx_HAL_Driver/Src/stm32c0xx_hal_rcc.c ****           {
 799              		.loc 1 543 16 is_stmt 0 view .LVU259
 800 0268 FFF7FEFF 		bl	HAL_GetTick
 801              	.LVL60:
 543:Drivers/STM32C0xx_HAL_Driver/Src/stm32c0xx_hal_rcc.c ****           {
 802              		.loc 1 543 30 discriminator 1 view .LVU260
 803 026c 001B     		subs	r0, r0, r4
 543:Drivers/STM32C0xx_HAL_Driver/Src/stm32c0xx_hal_rcc.c ****           {
 804              		.loc 1 543 14 discriminator 1 view .LVU261
 805 026e 124B     		ldr	r3, .L84+36
 806 0270 9842     		cmp	r0, r3
 807 0272 F5D9     		bls	.L50
 545:Drivers/STM32C0xx_HAL_Driver/Src/stm32c0xx_hal_rcc.c ****           }
 808              		.loc 1 545 20 view .LVU262
 809 0274 0320     		movs	r0, #3
 810 0276 02E0     		b	.L18
 811              	.L83:
 545:Drivers/STM32C0xx_HAL_Driver/Src/stm32c0xx_hal_rcc.c ****           }
 812              		.loc 1 545 20 view .LVU263
 813              	.LBE9:
 814              		.loc 1 601 10 view .LVU264
ARM GAS  C:\Users\simay\AppData\Local\Temp\cctPq0DA.s 			page 28


 815 0278 0020     		movs	r0, #0
 816              	.LBB10:
 817 027a 00E0     		b	.L18
 818              	.LVL61:
 819              	.L52:
 820              		.loc 1 601 10 view .LVU265
 821              	.LBE10:
 301:Drivers/STM32C0xx_HAL_Driver/Src/stm32c0xx_hal_rcc.c ****   }
 822              		.loc 1 301 12 view .LVU266
 823 027c 0120     		movs	r0, #1
 824              	.LVL62:
 825              	.L18:
 602:Drivers/STM32C0xx_HAL_Driver/Src/stm32c0xx_hal_rcc.c **** }
 826              		.loc 1 602 1 view .LVU267
 827              		@ sp needed
 828 027e 70BD     		pop	{r4, r5, r6, pc}
 829              	.LVL63:
 830              	.L73:
 320:Drivers/STM32C0xx_HAL_Driver/Src/stm32c0xx_hal_rcc.c ****       }
 831              		.loc 1 320 16 view .LVU268
 832 0280 0120     		movs	r0, #1
 833              	.LVL64:
 320:Drivers/STM32C0xx_HAL_Driver/Src/stm32c0xx_hal_rcc.c ****       }
 834              		.loc 1 320 16 view .LVU269
 835 0282 FCE7     		b	.L18
 836              	.LVL65:
 837              	.L75:
 395:Drivers/STM32C0xx_HAL_Driver/Src/stm32c0xx_hal_rcc.c ****         }
 838              		.loc 1 395 18 view .LVU270
 839 0284 0120     		movs	r0, #1
 840 0286 FAE7     		b	.L18
 841              	.LVL66:
 842              	.L78:
 456:Drivers/STM32C0xx_HAL_Driver/Src/stm32c0xx_hal_rcc.c ****       }
 843              		.loc 1 456 16 view .LVU271
 844 0288 0120     		movs	r0, #1
 845 028a F8E7     		b	.L18
 846              	.L63:
 601:Drivers/STM32C0xx_HAL_Driver/Src/stm32c0xx_hal_rcc.c **** }
 847              		.loc 1 601 10 view .LVU272
 848 028c 0020     		movs	r0, #0
 849 028e F6E7     		b	.L18
 850              	.LVL67:
 851              	.L64:
 852              	.LBB11:
 511:Drivers/STM32C0xx_HAL_Driver/Src/stm32c0xx_hal_rcc.c ****       }
 853              		.loc 1 511 16 view .LVU273
 854 0290 0120     		movs	r0, #1
 855 0292 F4E7     		b	.L18
 856              	.L85:
 857              		.align	2
 858              	.L84:
 859 0294 00100240 		.word	1073876992
 860 0298 FFFFFEFF 		.word	-65537
 861 029c FFFFFBFF 		.word	-262145
 862 02a0 FF80FFFF 		.word	-32513
 863 02a4 FFC7FFFF 		.word	-14337
ARM GAS  C:\Users\simay\AppData\Local\Temp\cctPq0DA.s 			page 29


 864 02a8 006CDC02 		.word	48000000
 865 02ac 00000000 		.word	SystemCoreClock
 866 02b0 00000000 		.word	uwTickPrio
 867 02b4 FFFEFFFF 		.word	-257
 868 02b8 88130000 		.word	5000
 869              	.LBE11:
 870              		.cfi_endproc
 871              	.LFE231:
 873              		.section	.text.HAL_RCC_MCOConfig,"ax",%progbits
 874              		.align	1
 875              		.global	HAL_RCC_MCOConfig
 876              		.syntax unified
 877              		.code	16
 878              		.thumb_func
 880              	HAL_RCC_MCOConfig:
 881              	.LVL68:
 882              	.LFB233:
 603:Drivers/STM32C0xx_HAL_Driver/Src/stm32c0xx_hal_rcc.c **** 
 604:Drivers/STM32C0xx_HAL_Driver/Src/stm32c0xx_hal_rcc.c **** /**
 605:Drivers/STM32C0xx_HAL_Driver/Src/stm32c0xx_hal_rcc.c ****   * @brief  Initialize the CPU, AHB and APB busses clocks according to the specified
 606:Drivers/STM32C0xx_HAL_Driver/Src/stm32c0xx_hal_rcc.c ****   *         parameters in the RCC_ClkInitStruct.
 607:Drivers/STM32C0xx_HAL_Driver/Src/stm32c0xx_hal_rcc.c ****   * @param  RCC_ClkInitStruct  pointer to a @ref RCC_ClkInitTypeDef structure that
 608:Drivers/STM32C0xx_HAL_Driver/Src/stm32c0xx_hal_rcc.c ****   *         contains the configuration information for the RCC peripheral.
 609:Drivers/STM32C0xx_HAL_Driver/Src/stm32c0xx_hal_rcc.c ****   * @param  FLatency  FLASH Latency
 610:Drivers/STM32C0xx_HAL_Driver/Src/stm32c0xx_hal_rcc.c ****   *          This parameter can be one of the following values:
 611:Drivers/STM32C0xx_HAL_Driver/Src/stm32c0xx_hal_rcc.c ****   *            @arg FLASH_LATENCY_0   FLASH 0 Latency cycle
 612:Drivers/STM32C0xx_HAL_Driver/Src/stm32c0xx_hal_rcc.c ****   *            @arg FLASH_LATENCY_1   FLASH 1 Latency cycle
 613:Drivers/STM32C0xx_HAL_Driver/Src/stm32c0xx_hal_rcc.c ****   *
 614:Drivers/STM32C0xx_HAL_Driver/Src/stm32c0xx_hal_rcc.c ****   * @note   The SystemCoreClock CMSIS variable is used to store System Clock Frequency
 615:Drivers/STM32C0xx_HAL_Driver/Src/stm32c0xx_hal_rcc.c ****   *         and updated by @ref HAL_RCC_GetHCLKFreq() function called within this function
 616:Drivers/STM32C0xx_HAL_Driver/Src/stm32c0xx_hal_rcc.c ****   *
 617:Drivers/STM32C0xx_HAL_Driver/Src/stm32c0xx_hal_rcc.c ****   * @note   The HSI is used by default as system clock source after
 618:Drivers/STM32C0xx_HAL_Driver/Src/stm32c0xx_hal_rcc.c ****   *         startup from Reset, wake-up from STANDBY mode. After restart from Reset,
 619:Drivers/STM32C0xx_HAL_Driver/Src/stm32c0xx_hal_rcc.c ****   *         the HSI frequency is set to 12 Mhz, as HSI divider is set to 4.
 620:Drivers/STM32C0xx_HAL_Driver/Src/stm32c0xx_hal_rcc.c ****   *
 621:Drivers/STM32C0xx_HAL_Driver/Src/stm32c0xx_hal_rcc.c ****   * @note   The HSI can be selected as system clock source after
 622:Drivers/STM32C0xx_HAL_Driver/Src/stm32c0xx_hal_rcc.c ****   *         from STOP modes or in case of failure of the HSE used directly or indirectly
 623:Drivers/STM32C0xx_HAL_Driver/Src/stm32c0xx_hal_rcc.c ****   *         as system clock (if the Clock Security System CSS is enabled).
 624:Drivers/STM32C0xx_HAL_Driver/Src/stm32c0xx_hal_rcc.c ****   *
 625:Drivers/STM32C0xx_HAL_Driver/Src/stm32c0xx_hal_rcc.c ****   * @note   The LSI can be selected as system clock source after
 626:Drivers/STM32C0xx_HAL_Driver/Src/stm32c0xx_hal_rcc.c ****   *         in case of failure of the LSE used directly or indirectly
 627:Drivers/STM32C0xx_HAL_Driver/Src/stm32c0xx_hal_rcc.c ****   *         as system clock (if the Clock Security System LSECSS is enabled).
 628:Drivers/STM32C0xx_HAL_Driver/Src/stm32c0xx_hal_rcc.c ****   *
 629:Drivers/STM32C0xx_HAL_Driver/Src/stm32c0xx_hal_rcc.c ****   * @note   A switch from one clock source to another occurs only if the target
 630:Drivers/STM32C0xx_HAL_Driver/Src/stm32c0xx_hal_rcc.c ****   *         clock source is ready (clock stable after startup delay).
 631:Drivers/STM32C0xx_HAL_Driver/Src/stm32c0xx_hal_rcc.c ****   *         If a clock source which is not yet ready is selected, the switch will
 632:Drivers/STM32C0xx_HAL_Driver/Src/stm32c0xx_hal_rcc.c ****   *         occur when the clock source is ready.
 633:Drivers/STM32C0xx_HAL_Driver/Src/stm32c0xx_hal_rcc.c ****   *
 634:Drivers/STM32C0xx_HAL_Driver/Src/stm32c0xx_hal_rcc.c ****   * @note   You can use @ref HAL_RCC_GetClockConfig() function to know which clock is
 635:Drivers/STM32C0xx_HAL_Driver/Src/stm32c0xx_hal_rcc.c ****   *         currently used as system clock source.
 636:Drivers/STM32C0xx_HAL_Driver/Src/stm32c0xx_hal_rcc.c ****   *
 637:Drivers/STM32C0xx_HAL_Driver/Src/stm32c0xx_hal_rcc.c ****   * @note   Depending on the device voltage range, the software has to set correctly
 638:Drivers/STM32C0xx_HAL_Driver/Src/stm32c0xx_hal_rcc.c ****   *         HPRE[3:0] bits to ensure that HCLK not exceed the maximum allowed frequency
 639:Drivers/STM32C0xx_HAL_Driver/Src/stm32c0xx_hal_rcc.c ****   *         (for more details refer to section above "Initialization/de-initialization functions")
 640:Drivers/STM32C0xx_HAL_Driver/Src/stm32c0xx_hal_rcc.c ****   * @retval None
 641:Drivers/STM32C0xx_HAL_Driver/Src/stm32c0xx_hal_rcc.c ****   */
 642:Drivers/STM32C0xx_HAL_Driver/Src/stm32c0xx_hal_rcc.c **** HAL_StatusTypeDef HAL_RCC_ClockConfig(const RCC_ClkInitTypeDef  *RCC_ClkInitStruct, uint32_t FLaten
ARM GAS  C:\Users\simay\AppData\Local\Temp\cctPq0DA.s 			page 30


 643:Drivers/STM32C0xx_HAL_Driver/Src/stm32c0xx_hal_rcc.c **** {
 644:Drivers/STM32C0xx_HAL_Driver/Src/stm32c0xx_hal_rcc.c ****   uint32_t tickstart;
 645:Drivers/STM32C0xx_HAL_Driver/Src/stm32c0xx_hal_rcc.c **** 
 646:Drivers/STM32C0xx_HAL_Driver/Src/stm32c0xx_hal_rcc.c ****   /* Check Null pointer */
 647:Drivers/STM32C0xx_HAL_Driver/Src/stm32c0xx_hal_rcc.c ****   if (RCC_ClkInitStruct == NULL)
 648:Drivers/STM32C0xx_HAL_Driver/Src/stm32c0xx_hal_rcc.c ****   {
 649:Drivers/STM32C0xx_HAL_Driver/Src/stm32c0xx_hal_rcc.c ****     return HAL_ERROR;
 650:Drivers/STM32C0xx_HAL_Driver/Src/stm32c0xx_hal_rcc.c ****   }
 651:Drivers/STM32C0xx_HAL_Driver/Src/stm32c0xx_hal_rcc.c **** 
 652:Drivers/STM32C0xx_HAL_Driver/Src/stm32c0xx_hal_rcc.c ****   /* Check the parameters */
 653:Drivers/STM32C0xx_HAL_Driver/Src/stm32c0xx_hal_rcc.c ****   assert_param(IS_RCC_CLOCKTYPE(RCC_ClkInitStruct->ClockType));
 654:Drivers/STM32C0xx_HAL_Driver/Src/stm32c0xx_hal_rcc.c ****   assert_param(IS_FLASH_LATENCY(FLatency));
 655:Drivers/STM32C0xx_HAL_Driver/Src/stm32c0xx_hal_rcc.c **** 
 656:Drivers/STM32C0xx_HAL_Driver/Src/stm32c0xx_hal_rcc.c ****   /* To correctly read data from FLASH memory, the number of wait states (LATENCY)
 657:Drivers/STM32C0xx_HAL_Driver/Src/stm32c0xx_hal_rcc.c ****     must be correctly programmed according to the frequency of the FLASH clock
 658:Drivers/STM32C0xx_HAL_Driver/Src/stm32c0xx_hal_rcc.c ****     (HCLK) and the supply voltage of the device. */
 659:Drivers/STM32C0xx_HAL_Driver/Src/stm32c0xx_hal_rcc.c **** 
 660:Drivers/STM32C0xx_HAL_Driver/Src/stm32c0xx_hal_rcc.c ****   /* Increasing the number of wait states because of higher CPU frequency */
 661:Drivers/STM32C0xx_HAL_Driver/Src/stm32c0xx_hal_rcc.c ****   if (FLatency > __HAL_FLASH_GET_LATENCY())
 662:Drivers/STM32C0xx_HAL_Driver/Src/stm32c0xx_hal_rcc.c ****   {
 663:Drivers/STM32C0xx_HAL_Driver/Src/stm32c0xx_hal_rcc.c ****     /* Program the new number of wait states to the LATENCY bits in the FLASH_ACR register */
 664:Drivers/STM32C0xx_HAL_Driver/Src/stm32c0xx_hal_rcc.c ****     __HAL_FLASH_SET_LATENCY(FLatency);
 665:Drivers/STM32C0xx_HAL_Driver/Src/stm32c0xx_hal_rcc.c **** 
 666:Drivers/STM32C0xx_HAL_Driver/Src/stm32c0xx_hal_rcc.c ****     /* Check that the new number of wait states is taken into account to access the Flash
 667:Drivers/STM32C0xx_HAL_Driver/Src/stm32c0xx_hal_rcc.c ****     memory by polling the FLASH_ACR register */
 668:Drivers/STM32C0xx_HAL_Driver/Src/stm32c0xx_hal_rcc.c ****     tickstart = HAL_GetTick();
 669:Drivers/STM32C0xx_HAL_Driver/Src/stm32c0xx_hal_rcc.c **** 
 670:Drivers/STM32C0xx_HAL_Driver/Src/stm32c0xx_hal_rcc.c ****     while ((FLASH->ACR & FLASH_ACR_LATENCY) != FLatency)
 671:Drivers/STM32C0xx_HAL_Driver/Src/stm32c0xx_hal_rcc.c ****     {
 672:Drivers/STM32C0xx_HAL_Driver/Src/stm32c0xx_hal_rcc.c ****       if ((HAL_GetTick() - tickstart) > RCC_CLOCKSWITCH_TIMEOUT_VALUE)
 673:Drivers/STM32C0xx_HAL_Driver/Src/stm32c0xx_hal_rcc.c ****       {
 674:Drivers/STM32C0xx_HAL_Driver/Src/stm32c0xx_hal_rcc.c ****         return HAL_TIMEOUT;
 675:Drivers/STM32C0xx_HAL_Driver/Src/stm32c0xx_hal_rcc.c ****       }
 676:Drivers/STM32C0xx_HAL_Driver/Src/stm32c0xx_hal_rcc.c ****     }
 677:Drivers/STM32C0xx_HAL_Driver/Src/stm32c0xx_hal_rcc.c ****   }
 678:Drivers/STM32C0xx_HAL_Driver/Src/stm32c0xx_hal_rcc.c **** 
 679:Drivers/STM32C0xx_HAL_Driver/Src/stm32c0xx_hal_rcc.c ****   /*-------------------------- HCLK Configuration --------------------------*/
 680:Drivers/STM32C0xx_HAL_Driver/Src/stm32c0xx_hal_rcc.c ****   if (((RCC_ClkInitStruct->ClockType) & RCC_CLOCKTYPE_HCLK) == RCC_CLOCKTYPE_HCLK)
 681:Drivers/STM32C0xx_HAL_Driver/Src/stm32c0xx_hal_rcc.c ****   {
 682:Drivers/STM32C0xx_HAL_Driver/Src/stm32c0xx_hal_rcc.c ****     /* Set the highest APB divider in order to ensure that we do not go through
 683:Drivers/STM32C0xx_HAL_Driver/Src/stm32c0xx_hal_rcc.c ****        a non-spec phase whatever we decrease or increase HCLK. */
 684:Drivers/STM32C0xx_HAL_Driver/Src/stm32c0xx_hal_rcc.c ****     if (((RCC_ClkInitStruct->ClockType) & RCC_CLOCKTYPE_PCLK1) == RCC_CLOCKTYPE_PCLK1)
 685:Drivers/STM32C0xx_HAL_Driver/Src/stm32c0xx_hal_rcc.c ****     {
 686:Drivers/STM32C0xx_HAL_Driver/Src/stm32c0xx_hal_rcc.c ****       MODIFY_REG(RCC->CFGR, RCC_CFGR_PPRE, RCC_HCLK_DIV16);
 687:Drivers/STM32C0xx_HAL_Driver/Src/stm32c0xx_hal_rcc.c ****     }
 688:Drivers/STM32C0xx_HAL_Driver/Src/stm32c0xx_hal_rcc.c **** 
 689:Drivers/STM32C0xx_HAL_Driver/Src/stm32c0xx_hal_rcc.c ****     /* Set the new HCLK clock divider */
 690:Drivers/STM32C0xx_HAL_Driver/Src/stm32c0xx_hal_rcc.c ****     assert_param(IS_RCC_HCLK(RCC_ClkInitStruct->AHBCLKDivider));
 691:Drivers/STM32C0xx_HAL_Driver/Src/stm32c0xx_hal_rcc.c ****     MODIFY_REG(RCC->CFGR, RCC_CFGR_HPRE, RCC_ClkInitStruct->AHBCLKDivider);
 692:Drivers/STM32C0xx_HAL_Driver/Src/stm32c0xx_hal_rcc.c ****   }
 693:Drivers/STM32C0xx_HAL_Driver/Src/stm32c0xx_hal_rcc.c **** 
 694:Drivers/STM32C0xx_HAL_Driver/Src/stm32c0xx_hal_rcc.c ****   /*------------------------- SYSCLK Configuration ---------------------------*/
 695:Drivers/STM32C0xx_HAL_Driver/Src/stm32c0xx_hal_rcc.c ****   if (((RCC_ClkInitStruct->ClockType) & RCC_CLOCKTYPE_SYSCLK) == RCC_CLOCKTYPE_SYSCLK)
 696:Drivers/STM32C0xx_HAL_Driver/Src/stm32c0xx_hal_rcc.c ****   {
 697:Drivers/STM32C0xx_HAL_Driver/Src/stm32c0xx_hal_rcc.c ****     assert_param(IS_RCC_SYSCLK(RCC_ClkInitStruct->SYSCLKDivider));
 698:Drivers/STM32C0xx_HAL_Driver/Src/stm32c0xx_hal_rcc.c ****     assert_param(IS_RCC_SYSCLKSOURCE(RCC_ClkInitStruct->SYSCLKSource));
 699:Drivers/STM32C0xx_HAL_Driver/Src/stm32c0xx_hal_rcc.c **** 
ARM GAS  C:\Users\simay\AppData\Local\Temp\cctPq0DA.s 			page 31


 700:Drivers/STM32C0xx_HAL_Driver/Src/stm32c0xx_hal_rcc.c **** #if defined(RCC_CR_SYSDIV)
 701:Drivers/STM32C0xx_HAL_Driver/Src/stm32c0xx_hal_rcc.c ****     MODIFY_REG(RCC->CR, RCC_CR_SYSDIV, RCC_ClkInitStruct->SYSCLKDivider);
 702:Drivers/STM32C0xx_HAL_Driver/Src/stm32c0xx_hal_rcc.c **** #endif /* RCC_CR_SYSDIV */
 703:Drivers/STM32C0xx_HAL_Driver/Src/stm32c0xx_hal_rcc.c **** 
 704:Drivers/STM32C0xx_HAL_Driver/Src/stm32c0xx_hal_rcc.c ****     /* HSE is selected as System Clock Source */
 705:Drivers/STM32C0xx_HAL_Driver/Src/stm32c0xx_hal_rcc.c ****     if (RCC_ClkInitStruct->SYSCLKSource == RCC_SYSCLKSOURCE_HSE)
 706:Drivers/STM32C0xx_HAL_Driver/Src/stm32c0xx_hal_rcc.c ****     {
 707:Drivers/STM32C0xx_HAL_Driver/Src/stm32c0xx_hal_rcc.c ****       /* Check the HSE ready flag */
 708:Drivers/STM32C0xx_HAL_Driver/Src/stm32c0xx_hal_rcc.c ****       if (READ_BIT(RCC->CR, RCC_CR_HSERDY) == 0U)
 709:Drivers/STM32C0xx_HAL_Driver/Src/stm32c0xx_hal_rcc.c ****       {
 710:Drivers/STM32C0xx_HAL_Driver/Src/stm32c0xx_hal_rcc.c ****         return HAL_ERROR;
 711:Drivers/STM32C0xx_HAL_Driver/Src/stm32c0xx_hal_rcc.c ****       }
 712:Drivers/STM32C0xx_HAL_Driver/Src/stm32c0xx_hal_rcc.c ****     }
 713:Drivers/STM32C0xx_HAL_Driver/Src/stm32c0xx_hal_rcc.c ****     /* HSI is selected as System Clock Source */
 714:Drivers/STM32C0xx_HAL_Driver/Src/stm32c0xx_hal_rcc.c ****     else if (RCC_ClkInitStruct->SYSCLKSource == RCC_SYSCLKSOURCE_HSI)
 715:Drivers/STM32C0xx_HAL_Driver/Src/stm32c0xx_hal_rcc.c ****     {
 716:Drivers/STM32C0xx_HAL_Driver/Src/stm32c0xx_hal_rcc.c ****       /* Check the HSI ready flag */
 717:Drivers/STM32C0xx_HAL_Driver/Src/stm32c0xx_hal_rcc.c ****       if (READ_BIT(RCC->CR, RCC_CR_HSIRDY) == 0U)
 718:Drivers/STM32C0xx_HAL_Driver/Src/stm32c0xx_hal_rcc.c ****       {
 719:Drivers/STM32C0xx_HAL_Driver/Src/stm32c0xx_hal_rcc.c ****         return HAL_ERROR;
 720:Drivers/STM32C0xx_HAL_Driver/Src/stm32c0xx_hal_rcc.c ****       }
 721:Drivers/STM32C0xx_HAL_Driver/Src/stm32c0xx_hal_rcc.c ****     }
 722:Drivers/STM32C0xx_HAL_Driver/Src/stm32c0xx_hal_rcc.c **** #if defined(RCC_HSI48_SUPPORT)
 723:Drivers/STM32C0xx_HAL_Driver/Src/stm32c0xx_hal_rcc.c ****     /* HSIUSB48 is selected as System Clock Source */
 724:Drivers/STM32C0xx_HAL_Driver/Src/stm32c0xx_hal_rcc.c ****     else if (RCC_ClkInitStruct->SYSCLKSource == RCC_SYSCLKSOURCE_HSIUSB48)
 725:Drivers/STM32C0xx_HAL_Driver/Src/stm32c0xx_hal_rcc.c ****     {
 726:Drivers/STM32C0xx_HAL_Driver/Src/stm32c0xx_hal_rcc.c ****       /* Check the HSIUSB48 ready flag */
 727:Drivers/STM32C0xx_HAL_Driver/Src/stm32c0xx_hal_rcc.c ****       if (READ_BIT(RCC->CR, RCC_CR_HSIUSB48RDY) == 0U)
 728:Drivers/STM32C0xx_HAL_Driver/Src/stm32c0xx_hal_rcc.c ****       {
 729:Drivers/STM32C0xx_HAL_Driver/Src/stm32c0xx_hal_rcc.c ****         return HAL_ERROR;
 730:Drivers/STM32C0xx_HAL_Driver/Src/stm32c0xx_hal_rcc.c ****       }
 731:Drivers/STM32C0xx_HAL_Driver/Src/stm32c0xx_hal_rcc.c ****     }
 732:Drivers/STM32C0xx_HAL_Driver/Src/stm32c0xx_hal_rcc.c **** #endif /* RCC_HSI48_SUPPORT */
 733:Drivers/STM32C0xx_HAL_Driver/Src/stm32c0xx_hal_rcc.c ****     /* LSI is selected as System Clock Source */
 734:Drivers/STM32C0xx_HAL_Driver/Src/stm32c0xx_hal_rcc.c ****     else if (RCC_ClkInitStruct->SYSCLKSource == RCC_SYSCLKSOURCE_LSI)
 735:Drivers/STM32C0xx_HAL_Driver/Src/stm32c0xx_hal_rcc.c ****     {
 736:Drivers/STM32C0xx_HAL_Driver/Src/stm32c0xx_hal_rcc.c ****       /* Check the LSI ready flag */
 737:Drivers/STM32C0xx_HAL_Driver/Src/stm32c0xx_hal_rcc.c ****       if (READ_BIT(RCC->CSR2, RCC_CSR2_LSIRDY) == 0U)
 738:Drivers/STM32C0xx_HAL_Driver/Src/stm32c0xx_hal_rcc.c ****       {
 739:Drivers/STM32C0xx_HAL_Driver/Src/stm32c0xx_hal_rcc.c ****         return HAL_ERROR;
 740:Drivers/STM32C0xx_HAL_Driver/Src/stm32c0xx_hal_rcc.c ****       }
 741:Drivers/STM32C0xx_HAL_Driver/Src/stm32c0xx_hal_rcc.c ****     }
 742:Drivers/STM32C0xx_HAL_Driver/Src/stm32c0xx_hal_rcc.c ****     /* LSE is selected as System Clock Source */
 743:Drivers/STM32C0xx_HAL_Driver/Src/stm32c0xx_hal_rcc.c ****     else
 744:Drivers/STM32C0xx_HAL_Driver/Src/stm32c0xx_hal_rcc.c ****     {
 745:Drivers/STM32C0xx_HAL_Driver/Src/stm32c0xx_hal_rcc.c ****       /* Check the LSE ready flag */
 746:Drivers/STM32C0xx_HAL_Driver/Src/stm32c0xx_hal_rcc.c ****       if (READ_BIT(RCC->CSR1, RCC_CSR1_LSERDY) == 0U)
 747:Drivers/STM32C0xx_HAL_Driver/Src/stm32c0xx_hal_rcc.c ****       {
 748:Drivers/STM32C0xx_HAL_Driver/Src/stm32c0xx_hal_rcc.c ****         return HAL_ERROR;
 749:Drivers/STM32C0xx_HAL_Driver/Src/stm32c0xx_hal_rcc.c ****       }
 750:Drivers/STM32C0xx_HAL_Driver/Src/stm32c0xx_hal_rcc.c ****     }
 751:Drivers/STM32C0xx_HAL_Driver/Src/stm32c0xx_hal_rcc.c ****     MODIFY_REG(RCC->CFGR, RCC_CFGR_SW, RCC_ClkInitStruct->SYSCLKSource);
 752:Drivers/STM32C0xx_HAL_Driver/Src/stm32c0xx_hal_rcc.c **** 
 753:Drivers/STM32C0xx_HAL_Driver/Src/stm32c0xx_hal_rcc.c ****     /* Get Start Tick*/
 754:Drivers/STM32C0xx_HAL_Driver/Src/stm32c0xx_hal_rcc.c ****     tickstart = HAL_GetTick();
 755:Drivers/STM32C0xx_HAL_Driver/Src/stm32c0xx_hal_rcc.c **** 
 756:Drivers/STM32C0xx_HAL_Driver/Src/stm32c0xx_hal_rcc.c ****     while (__HAL_RCC_GET_SYSCLK_SOURCE() != (RCC_ClkInitStruct->SYSCLKSource << RCC_CFGR_SWS_Pos))
ARM GAS  C:\Users\simay\AppData\Local\Temp\cctPq0DA.s 			page 32


 757:Drivers/STM32C0xx_HAL_Driver/Src/stm32c0xx_hal_rcc.c ****     {
 758:Drivers/STM32C0xx_HAL_Driver/Src/stm32c0xx_hal_rcc.c ****       if ((HAL_GetTick() - tickstart) > RCC_CLOCKSWITCH_TIMEOUT_VALUE)
 759:Drivers/STM32C0xx_HAL_Driver/Src/stm32c0xx_hal_rcc.c ****       {
 760:Drivers/STM32C0xx_HAL_Driver/Src/stm32c0xx_hal_rcc.c ****         return HAL_TIMEOUT;
 761:Drivers/STM32C0xx_HAL_Driver/Src/stm32c0xx_hal_rcc.c ****       }
 762:Drivers/STM32C0xx_HAL_Driver/Src/stm32c0xx_hal_rcc.c ****     }
 763:Drivers/STM32C0xx_HAL_Driver/Src/stm32c0xx_hal_rcc.c ****   }
 764:Drivers/STM32C0xx_HAL_Driver/Src/stm32c0xx_hal_rcc.c **** 
 765:Drivers/STM32C0xx_HAL_Driver/Src/stm32c0xx_hal_rcc.c ****   /* Decreasing the number of wait states because of lower CPU frequency */
 766:Drivers/STM32C0xx_HAL_Driver/Src/stm32c0xx_hal_rcc.c ****   if (FLatency < __HAL_FLASH_GET_LATENCY())
 767:Drivers/STM32C0xx_HAL_Driver/Src/stm32c0xx_hal_rcc.c ****   {
 768:Drivers/STM32C0xx_HAL_Driver/Src/stm32c0xx_hal_rcc.c ****     /* Program the new number of wait states to the LATENCY bits in the FLASH_ACR register */
 769:Drivers/STM32C0xx_HAL_Driver/Src/stm32c0xx_hal_rcc.c ****     __HAL_FLASH_SET_LATENCY(FLatency);
 770:Drivers/STM32C0xx_HAL_Driver/Src/stm32c0xx_hal_rcc.c **** 
 771:Drivers/STM32C0xx_HAL_Driver/Src/stm32c0xx_hal_rcc.c ****     /* Check that the new number of wait states is taken into account to access the Flash
 772:Drivers/STM32C0xx_HAL_Driver/Src/stm32c0xx_hal_rcc.c ****     memory by polling the FLASH_ACR register */
 773:Drivers/STM32C0xx_HAL_Driver/Src/stm32c0xx_hal_rcc.c ****     tickstart = HAL_GetTick();
 774:Drivers/STM32C0xx_HAL_Driver/Src/stm32c0xx_hal_rcc.c **** 
 775:Drivers/STM32C0xx_HAL_Driver/Src/stm32c0xx_hal_rcc.c ****     while ((FLASH->ACR & FLASH_ACR_LATENCY) != FLatency)
 776:Drivers/STM32C0xx_HAL_Driver/Src/stm32c0xx_hal_rcc.c ****     {
 777:Drivers/STM32C0xx_HAL_Driver/Src/stm32c0xx_hal_rcc.c ****       if ((HAL_GetTick() - tickstart) > RCC_CLOCKSWITCH_TIMEOUT_VALUE)
 778:Drivers/STM32C0xx_HAL_Driver/Src/stm32c0xx_hal_rcc.c ****       {
 779:Drivers/STM32C0xx_HAL_Driver/Src/stm32c0xx_hal_rcc.c ****         return HAL_TIMEOUT;
 780:Drivers/STM32C0xx_HAL_Driver/Src/stm32c0xx_hal_rcc.c ****       }
 781:Drivers/STM32C0xx_HAL_Driver/Src/stm32c0xx_hal_rcc.c ****     }
 782:Drivers/STM32C0xx_HAL_Driver/Src/stm32c0xx_hal_rcc.c ****   }
 783:Drivers/STM32C0xx_HAL_Driver/Src/stm32c0xx_hal_rcc.c **** 
 784:Drivers/STM32C0xx_HAL_Driver/Src/stm32c0xx_hal_rcc.c ****   /*-------------------------- PCLK1 Configuration ---------------------------*/
 785:Drivers/STM32C0xx_HAL_Driver/Src/stm32c0xx_hal_rcc.c ****   if (((RCC_ClkInitStruct->ClockType) & RCC_CLOCKTYPE_PCLK1) == RCC_CLOCKTYPE_PCLK1)
 786:Drivers/STM32C0xx_HAL_Driver/Src/stm32c0xx_hal_rcc.c ****   {
 787:Drivers/STM32C0xx_HAL_Driver/Src/stm32c0xx_hal_rcc.c ****     assert_param(IS_RCC_PCLK(RCC_ClkInitStruct->APB1CLKDivider));
 788:Drivers/STM32C0xx_HAL_Driver/Src/stm32c0xx_hal_rcc.c ****     MODIFY_REG(RCC->CFGR, RCC_CFGR_PPRE, RCC_ClkInitStruct->APB1CLKDivider);
 789:Drivers/STM32C0xx_HAL_Driver/Src/stm32c0xx_hal_rcc.c ****   }
 790:Drivers/STM32C0xx_HAL_Driver/Src/stm32c0xx_hal_rcc.c **** 
 791:Drivers/STM32C0xx_HAL_Driver/Src/stm32c0xx_hal_rcc.c ****   /* Update the SystemCoreClock global variable */
 792:Drivers/STM32C0xx_HAL_Driver/Src/stm32c0xx_hal_rcc.c ****   SystemCoreClock = (HAL_RCC_GetSysClockFreq() >> ((AHBPrescTable[(RCC->CFGR & RCC_CFGR_HPRE) \
 793:Drivers/STM32C0xx_HAL_Driver/Src/stm32c0xx_hal_rcc.c ****                                                                   >> RCC_CFGR_HPRE_Pos]) & 0x1FU));
 794:Drivers/STM32C0xx_HAL_Driver/Src/stm32c0xx_hal_rcc.c **** 
 795:Drivers/STM32C0xx_HAL_Driver/Src/stm32c0xx_hal_rcc.c ****   /* Configure the source of time base considering new system clocks settings*/
 796:Drivers/STM32C0xx_HAL_Driver/Src/stm32c0xx_hal_rcc.c ****   return HAL_InitTick(uwTickPrio);
 797:Drivers/STM32C0xx_HAL_Driver/Src/stm32c0xx_hal_rcc.c **** }
 798:Drivers/STM32C0xx_HAL_Driver/Src/stm32c0xx_hal_rcc.c **** 
 799:Drivers/STM32C0xx_HAL_Driver/Src/stm32c0xx_hal_rcc.c **** /**
 800:Drivers/STM32C0xx_HAL_Driver/Src/stm32c0xx_hal_rcc.c ****   * @}
 801:Drivers/STM32C0xx_HAL_Driver/Src/stm32c0xx_hal_rcc.c ****   */
 802:Drivers/STM32C0xx_HAL_Driver/Src/stm32c0xx_hal_rcc.c **** 
 803:Drivers/STM32C0xx_HAL_Driver/Src/stm32c0xx_hal_rcc.c **** /** @defgroup RCC_Exported_Functions_Group2 Peripheral Control functions
 804:Drivers/STM32C0xx_HAL_Driver/Src/stm32c0xx_hal_rcc.c ****   *  @brief   RCC clocks control functions
 805:Drivers/STM32C0xx_HAL_Driver/Src/stm32c0xx_hal_rcc.c ****   *
 806:Drivers/STM32C0xx_HAL_Driver/Src/stm32c0xx_hal_rcc.c **** @verbatim
 807:Drivers/STM32C0xx_HAL_Driver/Src/stm32c0xx_hal_rcc.c ****  ===============================================================================
 808:Drivers/STM32C0xx_HAL_Driver/Src/stm32c0xx_hal_rcc.c ****                       ##### Peripheral Control functions #####
 809:Drivers/STM32C0xx_HAL_Driver/Src/stm32c0xx_hal_rcc.c ****  ===============================================================================
 810:Drivers/STM32C0xx_HAL_Driver/Src/stm32c0xx_hal_rcc.c ****     [..]
 811:Drivers/STM32C0xx_HAL_Driver/Src/stm32c0xx_hal_rcc.c ****     This subsection provides a set of functions allowing to:
 812:Drivers/STM32C0xx_HAL_Driver/Src/stm32c0xx_hal_rcc.c **** 
 813:Drivers/STM32C0xx_HAL_Driver/Src/stm32c0xx_hal_rcc.c ****     (+) output clock to MCO pin.
ARM GAS  C:\Users\simay\AppData\Local\Temp\cctPq0DA.s 			page 33


 814:Drivers/STM32C0xx_HAL_Driver/Src/stm32c0xx_hal_rcc.c ****     (+) Retrieve current clock frequencies.
 815:Drivers/STM32C0xx_HAL_Driver/Src/stm32c0xx_hal_rcc.c ****     (+) Enable the Clock Security System.
 816:Drivers/STM32C0xx_HAL_Driver/Src/stm32c0xx_hal_rcc.c **** 
 817:Drivers/STM32C0xx_HAL_Driver/Src/stm32c0xx_hal_rcc.c **** @endverbatim
 818:Drivers/STM32C0xx_HAL_Driver/Src/stm32c0xx_hal_rcc.c ****   * @{
 819:Drivers/STM32C0xx_HAL_Driver/Src/stm32c0xx_hal_rcc.c ****   */
 820:Drivers/STM32C0xx_HAL_Driver/Src/stm32c0xx_hal_rcc.c **** 
 821:Drivers/STM32C0xx_HAL_Driver/Src/stm32c0xx_hal_rcc.c **** /**
 822:Drivers/STM32C0xx_HAL_Driver/Src/stm32c0xx_hal_rcc.c ****   * @brief  Select the clock source to output on MCOx pin.
 823:Drivers/STM32C0xx_HAL_Driver/Src/stm32c0xx_hal_rcc.c ****   * @note   PA8 for MCO1 and PB2 for MCO2 should be configured in alternate function mode.
 824:Drivers/STM32C0xx_HAL_Driver/Src/stm32c0xx_hal_rcc.c ****   * @param  RCC_MCOx  specifies the output direction for the clock source.
 825:Drivers/STM32C0xx_HAL_Driver/Src/stm32c0xx_hal_rcc.c ****   *            @arg @ref RCC_MCO1  Clock source to output on MCO1 pins.
 826:Drivers/STM32C0xx_HAL_Driver/Src/stm32c0xx_hal_rcc.c ****   *            @arg @ref RCC_MCO2  Clock source to output on MCO2 pins.
 827:Drivers/STM32C0xx_HAL_Driver/Src/stm32c0xx_hal_rcc.c ****   * @param  RCC_MCOSource  specifies the clock source to output.
 828:Drivers/STM32C0xx_HAL_Driver/Src/stm32c0xx_hal_rcc.c ****   *          This parameter can be one of the following values:
 829:Drivers/STM32C0xx_HAL_Driver/Src/stm32c0xx_hal_rcc.c ****   *            @arg @ref RCC_MCO1SOURCE_NOCLOCK  MCO1 output disabled, no clock on MCO1
 830:Drivers/STM32C0xx_HAL_Driver/Src/stm32c0xx_hal_rcc.c ****   *            @arg @ref RCC_MCO1SOURCE_SYSCLK  system  clock selected as MCO1 source
 831:Drivers/STM32C0xx_HAL_Driver/Src/stm32c0xx_hal_rcc.c ****   *            @arg @ref RCC_MCO1SOURCE_HSI  HSI clock selected as MCO1 source
 832:Drivers/STM32C0xx_HAL_Driver/Src/stm32c0xx_hal_rcc.c ****   *            @arg @ref RCC_MCO1SOURCE_HSI48  HSI48 clock selected as MCO1 source (*)
 833:Drivers/STM32C0xx_HAL_Driver/Src/stm32c0xx_hal_rcc.c ****   *            @arg @ref RCC_MCO1SOURCE_HSE  HSE clock selected as MCO1 source
 834:Drivers/STM32C0xx_HAL_Driver/Src/stm32c0xx_hal_rcc.c ****   *            @arg @ref RCC_MCO1SOURCE_LSI  LSI clock selected as MCO1 source
 835:Drivers/STM32C0xx_HAL_Driver/Src/stm32c0xx_hal_rcc.c ****   *            @arg @ref RCC_MCO1SOURCE_LSE  LSE clock selected as MCO1 source
 836:Drivers/STM32C0xx_HAL_Driver/Src/stm32c0xx_hal_rcc.c ****   *            @arg @ref RCC_MCO2SOURCE_NOCLOCK  MCO2 output disabled, no clock on MCO2
 837:Drivers/STM32C0xx_HAL_Driver/Src/stm32c0xx_hal_rcc.c ****   *            @arg @ref RCC_MCO2SOURCE_SYSCLK  system  clock selected as MCO2 source
 838:Drivers/STM32C0xx_HAL_Driver/Src/stm32c0xx_hal_rcc.c ****   *            @arg @ref RCC_MCO2SOURCE_HSI  HSI clock selected as MCO2 source
 839:Drivers/STM32C0xx_HAL_Driver/Src/stm32c0xx_hal_rcc.c ****   *            @arg @ref RCC_MCO2SOURCE_HSI48  HSI48 clock selected as MCO2 source (*)
 840:Drivers/STM32C0xx_HAL_Driver/Src/stm32c0xx_hal_rcc.c ****   *            @arg @ref RCC_MCO2SOURCE_HSE  HSE clock selected as MCO2 source
 841:Drivers/STM32C0xx_HAL_Driver/Src/stm32c0xx_hal_rcc.c ****   *            @arg @ref RCC_MCO2SOURCE_LSI  LSI clock selected as MCO2 source
 842:Drivers/STM32C0xx_HAL_Driver/Src/stm32c0xx_hal_rcc.c ****   *            @arg @ref RCC_MCO2SOURCE_LSE  LSE clock selected as MCO2 source
 843:Drivers/STM32C0xx_HAL_Driver/Src/stm32c0xx_hal_rcc.c ****   * @param  RCC_MCODiv  specifies the MCO prescaler.
 844:Drivers/STM32C0xx_HAL_Driver/Src/stm32c0xx_hal_rcc.c ****   *          This parameter can be one of the following values:
 845:Drivers/STM32C0xx_HAL_Driver/Src/stm32c0xx_hal_rcc.c ****   *            @arg @ref RCC_MCODIV_1  no division applied to MCO clock
 846:Drivers/STM32C0xx_HAL_Driver/Src/stm32c0xx_hal_rcc.c ****   *            @arg @ref RCC_MCODIV_2  division by 2 applied to MCO clock
 847:Drivers/STM32C0xx_HAL_Driver/Src/stm32c0xx_hal_rcc.c ****   *            @arg @ref RCC_MCODIV_4  division by 4 applied to MCO clock
 848:Drivers/STM32C0xx_HAL_Driver/Src/stm32c0xx_hal_rcc.c ****   *            @arg @ref RCC_MCODIV_8  division by 8 applied to MCO clock
 849:Drivers/STM32C0xx_HAL_Driver/Src/stm32c0xx_hal_rcc.c ****   *            @arg @ref RCC_MCODIV_16  division by 16 applied to MCO clock
 850:Drivers/STM32C0xx_HAL_Driver/Src/stm32c0xx_hal_rcc.c ****   *            @arg @ref RCC_MCODIV_32  division by 32 applied to MCO clock
 851:Drivers/STM32C0xx_HAL_Driver/Src/stm32c0xx_hal_rcc.c ****   *            @arg @ref RCC_MCODIV_64  division by 64 applied to MCO clock
 852:Drivers/STM32C0xx_HAL_Driver/Src/stm32c0xx_hal_rcc.c ****   *            @arg @ref RCC_MCODIV_128  division by 128 applied to MCO clock
 853:Drivers/STM32C0xx_HAL_Driver/Src/stm32c0xx_hal_rcc.c ****   * @note (*) peripheral not available on all devices
 854:Drivers/STM32C0xx_HAL_Driver/Src/stm32c0xx_hal_rcc.c ****   * @retval None
 855:Drivers/STM32C0xx_HAL_Driver/Src/stm32c0xx_hal_rcc.c ****   */
 856:Drivers/STM32C0xx_HAL_Driver/Src/stm32c0xx_hal_rcc.c **** void HAL_RCC_MCOConfig(uint32_t RCC_MCOx, uint32_t RCC_MCOSource, uint32_t RCC_MCODiv)
 857:Drivers/STM32C0xx_HAL_Driver/Src/stm32c0xx_hal_rcc.c **** {
 883              		.loc 1 857 1 is_stmt 1 view -0
 884              		.cfi_startproc
 885              		@ args = 0, pretend = 0, frame = 24
 886              		@ frame_needed = 0, uses_anonymous_args = 0
 887              		.loc 1 857 1 is_stmt 0 view .LVU275
 888 0000 F0B5     		push	{r4, r5, r6, r7, lr}
 889              	.LCFI2:
 890              		.cfi_def_cfa_offset 20
 891              		.cfi_offset 4, -20
 892              		.cfi_offset 5, -16
 893              		.cfi_offset 6, -12
 894              		.cfi_offset 7, -8
 895              		.cfi_offset 14, -4
ARM GAS  C:\Users\simay\AppData\Local\Temp\cctPq0DA.s 			page 34


 896 0002 CE46     		mov	lr, r9
 897 0004 4746     		mov	r7, r8
 898 0006 80B5     		push	{r7, lr}
 899              	.LCFI3:
 900              		.cfi_def_cfa_offset 28
 901              		.cfi_offset 8, -28
 902              		.cfi_offset 9, -24
 903 0008 87B0     		sub	sp, sp, #28
 904              	.LCFI4:
 905              		.cfi_def_cfa_offset 56
 906 000a 0300     		movs	r3, r0
 907 000c 8846     		mov	r8, r1
 908 000e 1500     		movs	r5, r2
 858:Drivers/STM32C0xx_HAL_Driver/Src/stm32c0xx_hal_rcc.c ****   GPIO_InitTypeDef gpio_initstruct;
 909              		.loc 1 858 3 is_stmt 1 view .LVU276
 859:Drivers/STM32C0xx_HAL_Driver/Src/stm32c0xx_hal_rcc.c ****   uint32_t mcoindex;
 910              		.loc 1 859 3 view .LVU277
 860:Drivers/STM32C0xx_HAL_Driver/Src/stm32c0xx_hal_rcc.c ****   uint32_t mco_gpio_index;
 911              		.loc 1 860 3 view .LVU278
 861:Drivers/STM32C0xx_HAL_Driver/Src/stm32c0xx_hal_rcc.c ****   GPIO_TypeDef *mco_gpio_port;
 912              		.loc 1 861 3 view .LVU279
 862:Drivers/STM32C0xx_HAL_Driver/Src/stm32c0xx_hal_rcc.c **** 
 863:Drivers/STM32C0xx_HAL_Driver/Src/stm32c0xx_hal_rcc.c ****   /* Check the parameters */
 864:Drivers/STM32C0xx_HAL_Driver/Src/stm32c0xx_hal_rcc.c ****   assert_param(IS_RCC_MCO(RCC_MCOx));
 913              		.loc 1 864 3 view .LVU280
 865:Drivers/STM32C0xx_HAL_Driver/Src/stm32c0xx_hal_rcc.c **** 
 866:Drivers/STM32C0xx_HAL_Driver/Src/stm32c0xx_hal_rcc.c ****   /* Common GPIO init parameters */
 867:Drivers/STM32C0xx_HAL_Driver/Src/stm32c0xx_hal_rcc.c ****   gpio_initstruct.Mode      = GPIO_MODE_AF_PP;
 914              		.loc 1 867 3 view .LVU281
 915              		.loc 1 867 29 is_stmt 0 view .LVU282
 916 0010 01A9     		add	r1, sp, #4
 917              	.LVL69:
 918              		.loc 1 867 29 view .LVU283
 919 0012 0222     		movs	r2, #2
 920              	.LVL70:
 921              		.loc 1 867 29 view .LVU284
 922 0014 4A60     		str	r2, [r1, #4]
 868:Drivers/STM32C0xx_HAL_Driver/Src/stm32c0xx_hal_rcc.c ****   gpio_initstruct.Speed     = GPIO_SPEED_FREQ_VERY_HIGH;
 923              		.loc 1 868 3 is_stmt 1 view .LVU285
 924              		.loc 1 868 29 is_stmt 0 view .LVU286
 925 0016 0132     		adds	r2, r2, #1
 926 0018 CA60     		str	r2, [r1, #12]
 869:Drivers/STM32C0xx_HAL_Driver/Src/stm32c0xx_hal_rcc.c ****   gpio_initstruct.Pull      = GPIO_NOPULL;
 927              		.loc 1 869 3 is_stmt 1 view .LVU287
 928              		.loc 1 869 29 is_stmt 0 view .LVU288
 929 001a 0022     		movs	r2, #0
 930 001c 8A60     		str	r2, [r1, #8]
 870:Drivers/STM32C0xx_HAL_Driver/Src/stm32c0xx_hal_rcc.c **** 
 871:Drivers/STM32C0xx_HAL_Driver/Src/stm32c0xx_hal_rcc.c ****   /* Get MCOx selection */
 872:Drivers/STM32C0xx_HAL_Driver/Src/stm32c0xx_hal_rcc.c ****   mcoindex = RCC_MCOx & RCC_MCO_INDEX_MASK;
 931              		.loc 1 872 3 is_stmt 1 view .LVU289
 932              		.loc 1 872 12 is_stmt 0 view .LVU290
 933 001e 8026     		movs	r6, #128
 934 0020 7605     		lsls	r6, r6, #21
 935 0022 0640     		ands	r6, r0
 936              	.LVL71:
 873:Drivers/STM32C0xx_HAL_Driver/Src/stm32c0xx_hal_rcc.c **** 
ARM GAS  C:\Users\simay\AppData\Local\Temp\cctPq0DA.s 			page 35


 874:Drivers/STM32C0xx_HAL_Driver/Src/stm32c0xx_hal_rcc.c ****   /* Get MCOx GPIO Port */
 875:Drivers/STM32C0xx_HAL_Driver/Src/stm32c0xx_hal_rcc.c ****   mco_gpio_port = (GPIO_TypeDef *) RCC_GET_MCO_GPIO_PORT(RCC_MCOx);
 937              		.loc 1 875 3 is_stmt 1 view .LVU291
 938              		.loc 1 875 36 is_stmt 0 view .LVU292
 939 0024 000C     		lsrs	r0, r0, #16
 940              	.LVL72:
 941              		.loc 1 875 36 view .LVU293
 942 0026 0F32     		adds	r2, r2, #15
 943 0028 0240     		ands	r2, r0
 944 002a A020     		movs	r0, #160
 945 002c 4003     		lsls	r0, r0, #13
 946 002e 1018     		adds	r0, r2, r0
 947 0030 8002     		lsls	r0, r0, #10
 948 0032 8146     		mov	r9, r0
 949              	.LVL73:
 876:Drivers/STM32C0xx_HAL_Driver/Src/stm32c0xx_hal_rcc.c **** 
 877:Drivers/STM32C0xx_HAL_Driver/Src/stm32c0xx_hal_rcc.c ****   /* MCOx Clock Enable */
 878:Drivers/STM32C0xx_HAL_Driver/Src/stm32c0xx_hal_rcc.c ****   mco_gpio_index = RCC_GET_MCO_GPIO_INDEX(RCC_MCOx);
 950              		.loc 1 878 3 is_stmt 1 view .LVU294
 879:Drivers/STM32C0xx_HAL_Driver/Src/stm32c0xx_hal_rcc.c ****   SET_BIT(RCC->IOPENR, (1UL << mco_gpio_index));
 951              		.loc 1 879 3 view .LVU295
 952 0034 144C     		ldr	r4, .L89
 953 0036 676B     		ldr	r7, [r4, #52]
 954 0038 0120     		movs	r0, #1
 955              	.LVL74:
 956              		.loc 1 879 3 is_stmt 0 view .LVU296
 957 003a 9040     		lsls	r0, r0, r2
 958 003c 0200     		movs	r2, r0
 959              	.LVL75:
 960              		.loc 1 879 3 view .LVU297
 961 003e 3A43     		orrs	r2, r7
 962 0040 6263     		str	r2, [r4, #52]
 963              	.LVL76:
 880:Drivers/STM32C0xx_HAL_Driver/Src/stm32c0xx_hal_rcc.c **** 
 881:Drivers/STM32C0xx_HAL_Driver/Src/stm32c0xx_hal_rcc.c ****   /* Configure the MCOx pin in alternate function mode */
 882:Drivers/STM32C0xx_HAL_Driver/Src/stm32c0xx_hal_rcc.c ****   gpio_initstruct.Pin = RCC_GET_MCO_GPIO_PIN(RCC_MCOx);
 964              		.loc 1 882 3 is_stmt 1 view .LVU298
 965              		.loc 1 882 25 is_stmt 0 view .LVU299
 966 0042 1A04     		lsls	r2, r3, #16
 967 0044 120C     		lsrs	r2, r2, #16
 968              		.loc 1 882 23 view .LVU300
 969 0046 0192     		str	r2, [sp, #4]
 883:Drivers/STM32C0xx_HAL_Driver/Src/stm32c0xx_hal_rcc.c ****   gpio_initstruct.Alternate = RCC_GET_MCO_GPIO_AF(RCC_MCOx);
 970              		.loc 1 883 3 is_stmt 1 view .LVU301
 971              		.loc 1 883 31 is_stmt 0 view .LVU302
 972 0048 1B0D     		lsrs	r3, r3, #20
 973              	.LVL77:
 974              		.loc 1 883 31 view .LVU303
 975 004a FF22     		movs	r2, #255
 976 004c 1340     		ands	r3, r2
 977              		.loc 1 883 29 view .LVU304
 978 004e 0B61     		str	r3, [r1, #16]
 884:Drivers/STM32C0xx_HAL_Driver/Src/stm32c0xx_hal_rcc.c ****   HAL_GPIO_Init(mco_gpio_port, &gpio_initstruct);
 979              		.loc 1 884 3 is_stmt 1 view .LVU305
 980 0050 4846     		mov	r0, r9
 981 0052 FFF7FEFF 		bl	HAL_GPIO_Init
 982              	.LVL78:
ARM GAS  C:\Users\simay\AppData\Local\Temp\cctPq0DA.s 			page 36


 885:Drivers/STM32C0xx_HAL_Driver/Src/stm32c0xx_hal_rcc.c **** 
 886:Drivers/STM32C0xx_HAL_Driver/Src/stm32c0xx_hal_rcc.c ****   if (mcoindex == RCC_MCO1_INDEX)
 983              		.loc 1 886 3 view .LVU306
 984              		.loc 1 886 6 is_stmt 0 view .LVU307
 985 0056 002E     		cmp	r6, #0
 986 0058 0CD1     		bne	.L87
 887:Drivers/STM32C0xx_HAL_Driver/Src/stm32c0xx_hal_rcc.c ****   {
 888:Drivers/STM32C0xx_HAL_Driver/Src/stm32c0xx_hal_rcc.c ****     assert_param(IS_RCC_MCODIV(RCC_MCODiv));
 987              		.loc 1 888 5 is_stmt 1 view .LVU308
 889:Drivers/STM32C0xx_HAL_Driver/Src/stm32c0xx_hal_rcc.c ****     assert_param(IS_RCC_MCO1SOURCE(RCC_MCOSource));
 988              		.loc 1 889 5 view .LVU309
 890:Drivers/STM32C0xx_HAL_Driver/Src/stm32c0xx_hal_rcc.c ****     /* Mask MCOSEL[] and MCOPRE[] bits then set MCO clock source and prescaler */
 891:Drivers/STM32C0xx_HAL_Driver/Src/stm32c0xx_hal_rcc.c ****     LL_RCC_ConfigMCO(RCC_MCOSource, RCC_MCODiv);
 989              		.loc 1 891 5 view .LVU310
 990              	.LVL79:
 991              	.LBB12:
 992              	.LBI12:
 993              		.file 2 "Drivers/STM32C0xx_HAL_Driver/Inc/stm32c0xx_ll_rcc.h"
   1:Drivers/STM32C0xx_HAL_Driver/Inc/stm32c0xx_ll_rcc.h **** /**
   2:Drivers/STM32C0xx_HAL_Driver/Inc/stm32c0xx_ll_rcc.h ****   ******************************************************************************
   3:Drivers/STM32C0xx_HAL_Driver/Inc/stm32c0xx_ll_rcc.h ****   * @file    stm32c0xx_ll_rcc.h
   4:Drivers/STM32C0xx_HAL_Driver/Inc/stm32c0xx_ll_rcc.h ****   * @author  MCD Application Team
   5:Drivers/STM32C0xx_HAL_Driver/Inc/stm32c0xx_ll_rcc.h ****   * @brief   Header file of RCC LL module.
   6:Drivers/STM32C0xx_HAL_Driver/Inc/stm32c0xx_ll_rcc.h ****   ******************************************************************************
   7:Drivers/STM32C0xx_HAL_Driver/Inc/stm32c0xx_ll_rcc.h ****   * @attention
   8:Drivers/STM32C0xx_HAL_Driver/Inc/stm32c0xx_ll_rcc.h ****   *
   9:Drivers/STM32C0xx_HAL_Driver/Inc/stm32c0xx_ll_rcc.h ****   * Copyright (c) 2022 STMicroelectronics.
  10:Drivers/STM32C0xx_HAL_Driver/Inc/stm32c0xx_ll_rcc.h ****   * All rights reserved.
  11:Drivers/STM32C0xx_HAL_Driver/Inc/stm32c0xx_ll_rcc.h ****   *
  12:Drivers/STM32C0xx_HAL_Driver/Inc/stm32c0xx_ll_rcc.h ****   * This software is licensed under terms that can be found in the LICENSE file
  13:Drivers/STM32C0xx_HAL_Driver/Inc/stm32c0xx_ll_rcc.h ****   * in the root directory of this software component.
  14:Drivers/STM32C0xx_HAL_Driver/Inc/stm32c0xx_ll_rcc.h ****   * If no LICENSE file comes with this software, it is provided AS-IS.
  15:Drivers/STM32C0xx_HAL_Driver/Inc/stm32c0xx_ll_rcc.h ****   *
  16:Drivers/STM32C0xx_HAL_Driver/Inc/stm32c0xx_ll_rcc.h ****   ******************************************************************************
  17:Drivers/STM32C0xx_HAL_Driver/Inc/stm32c0xx_ll_rcc.h ****   */
  18:Drivers/STM32C0xx_HAL_Driver/Inc/stm32c0xx_ll_rcc.h **** 
  19:Drivers/STM32C0xx_HAL_Driver/Inc/stm32c0xx_ll_rcc.h **** /* Define to prevent recursive inclusion -------------------------------------*/
  20:Drivers/STM32C0xx_HAL_Driver/Inc/stm32c0xx_ll_rcc.h **** #ifndef STM32C0xx_LL_RCC_H
  21:Drivers/STM32C0xx_HAL_Driver/Inc/stm32c0xx_ll_rcc.h **** #define STM32C0xx_LL_RCC_H
  22:Drivers/STM32C0xx_HAL_Driver/Inc/stm32c0xx_ll_rcc.h **** 
  23:Drivers/STM32C0xx_HAL_Driver/Inc/stm32c0xx_ll_rcc.h **** #ifdef __cplusplus
  24:Drivers/STM32C0xx_HAL_Driver/Inc/stm32c0xx_ll_rcc.h **** extern "C" {
  25:Drivers/STM32C0xx_HAL_Driver/Inc/stm32c0xx_ll_rcc.h **** #endif
  26:Drivers/STM32C0xx_HAL_Driver/Inc/stm32c0xx_ll_rcc.h **** 
  27:Drivers/STM32C0xx_HAL_Driver/Inc/stm32c0xx_ll_rcc.h **** /* Includes ------------------------------------------------------------------*/
  28:Drivers/STM32C0xx_HAL_Driver/Inc/stm32c0xx_ll_rcc.h **** #include "stm32c0xx.h"
  29:Drivers/STM32C0xx_HAL_Driver/Inc/stm32c0xx_ll_rcc.h **** 
  30:Drivers/STM32C0xx_HAL_Driver/Inc/stm32c0xx_ll_rcc.h **** /** @addtogroup STM32C0xx_LL_Driver
  31:Drivers/STM32C0xx_HAL_Driver/Inc/stm32c0xx_ll_rcc.h ****   * @{
  32:Drivers/STM32C0xx_HAL_Driver/Inc/stm32c0xx_ll_rcc.h ****   */
  33:Drivers/STM32C0xx_HAL_Driver/Inc/stm32c0xx_ll_rcc.h **** 
  34:Drivers/STM32C0xx_HAL_Driver/Inc/stm32c0xx_ll_rcc.h **** #if defined(RCC)
  35:Drivers/STM32C0xx_HAL_Driver/Inc/stm32c0xx_ll_rcc.h **** 
  36:Drivers/STM32C0xx_HAL_Driver/Inc/stm32c0xx_ll_rcc.h **** /** @defgroup RCC_LL RCC
  37:Drivers/STM32C0xx_HAL_Driver/Inc/stm32c0xx_ll_rcc.h ****   * @{
  38:Drivers/STM32C0xx_HAL_Driver/Inc/stm32c0xx_ll_rcc.h ****   */
  39:Drivers/STM32C0xx_HAL_Driver/Inc/stm32c0xx_ll_rcc.h **** 
ARM GAS  C:\Users\simay\AppData\Local\Temp\cctPq0DA.s 			page 37


  40:Drivers/STM32C0xx_HAL_Driver/Inc/stm32c0xx_ll_rcc.h **** /* Private types -------------------------------------------------------------*/
  41:Drivers/STM32C0xx_HAL_Driver/Inc/stm32c0xx_ll_rcc.h **** /* Private variables ---------------------------------------------------------*/
  42:Drivers/STM32C0xx_HAL_Driver/Inc/stm32c0xx_ll_rcc.h **** /** @defgroup RCC_LL_Private_Variables RCC Private Variables
  43:Drivers/STM32C0xx_HAL_Driver/Inc/stm32c0xx_ll_rcc.h ****   * @{
  44:Drivers/STM32C0xx_HAL_Driver/Inc/stm32c0xx_ll_rcc.h ****   */
  45:Drivers/STM32C0xx_HAL_Driver/Inc/stm32c0xx_ll_rcc.h **** /**
  46:Drivers/STM32C0xx_HAL_Driver/Inc/stm32c0xx_ll_rcc.h ****   * @}
  47:Drivers/STM32C0xx_HAL_Driver/Inc/stm32c0xx_ll_rcc.h ****   */
  48:Drivers/STM32C0xx_HAL_Driver/Inc/stm32c0xx_ll_rcc.h **** 
  49:Drivers/STM32C0xx_HAL_Driver/Inc/stm32c0xx_ll_rcc.h **** /* Private constants ---------------------------------------------------------*/
  50:Drivers/STM32C0xx_HAL_Driver/Inc/stm32c0xx_ll_rcc.h **** /* Private macros ------------------------------------------------------------*/
  51:Drivers/STM32C0xx_HAL_Driver/Inc/stm32c0xx_ll_rcc.h **** #if defined(USE_FULL_LL_DRIVER)
  52:Drivers/STM32C0xx_HAL_Driver/Inc/stm32c0xx_ll_rcc.h **** /** @defgroup RCC_LL_Private_Macros RCC Private Macros
  53:Drivers/STM32C0xx_HAL_Driver/Inc/stm32c0xx_ll_rcc.h ****   * @{
  54:Drivers/STM32C0xx_HAL_Driver/Inc/stm32c0xx_ll_rcc.h ****   */
  55:Drivers/STM32C0xx_HAL_Driver/Inc/stm32c0xx_ll_rcc.h **** /**
  56:Drivers/STM32C0xx_HAL_Driver/Inc/stm32c0xx_ll_rcc.h ****   * @}
  57:Drivers/STM32C0xx_HAL_Driver/Inc/stm32c0xx_ll_rcc.h ****   */
  58:Drivers/STM32C0xx_HAL_Driver/Inc/stm32c0xx_ll_rcc.h **** #endif /*USE_FULL_LL_DRIVER*/
  59:Drivers/STM32C0xx_HAL_Driver/Inc/stm32c0xx_ll_rcc.h **** 
  60:Drivers/STM32C0xx_HAL_Driver/Inc/stm32c0xx_ll_rcc.h **** /* Exported types ------------------------------------------------------------*/
  61:Drivers/STM32C0xx_HAL_Driver/Inc/stm32c0xx_ll_rcc.h **** #if defined(USE_FULL_LL_DRIVER)
  62:Drivers/STM32C0xx_HAL_Driver/Inc/stm32c0xx_ll_rcc.h **** /** @defgroup RCC_LL_Exported_Types RCC Exported Types
  63:Drivers/STM32C0xx_HAL_Driver/Inc/stm32c0xx_ll_rcc.h ****   * @{
  64:Drivers/STM32C0xx_HAL_Driver/Inc/stm32c0xx_ll_rcc.h ****   */
  65:Drivers/STM32C0xx_HAL_Driver/Inc/stm32c0xx_ll_rcc.h **** 
  66:Drivers/STM32C0xx_HAL_Driver/Inc/stm32c0xx_ll_rcc.h **** /** @defgroup LL_ES_CLOCK_FREQ Clocks Frequency Structure
  67:Drivers/STM32C0xx_HAL_Driver/Inc/stm32c0xx_ll_rcc.h ****   * @{
  68:Drivers/STM32C0xx_HAL_Driver/Inc/stm32c0xx_ll_rcc.h ****   */
  69:Drivers/STM32C0xx_HAL_Driver/Inc/stm32c0xx_ll_rcc.h **** 
  70:Drivers/STM32C0xx_HAL_Driver/Inc/stm32c0xx_ll_rcc.h **** /**
  71:Drivers/STM32C0xx_HAL_Driver/Inc/stm32c0xx_ll_rcc.h ****   * @brief  RCC Clocks Frequency Structure
  72:Drivers/STM32C0xx_HAL_Driver/Inc/stm32c0xx_ll_rcc.h ****   */
  73:Drivers/STM32C0xx_HAL_Driver/Inc/stm32c0xx_ll_rcc.h **** typedef struct
  74:Drivers/STM32C0xx_HAL_Driver/Inc/stm32c0xx_ll_rcc.h **** {
  75:Drivers/STM32C0xx_HAL_Driver/Inc/stm32c0xx_ll_rcc.h ****   uint32_t SYSCLK_Frequency;        /*!< SYSCLK clock frequency */
  76:Drivers/STM32C0xx_HAL_Driver/Inc/stm32c0xx_ll_rcc.h ****   uint32_t HCLK_Frequency;          /*!< HCLK clock frequency */
  77:Drivers/STM32C0xx_HAL_Driver/Inc/stm32c0xx_ll_rcc.h ****   uint32_t PCLK1_Frequency;         /*!< PCLK1 clock frequency */
  78:Drivers/STM32C0xx_HAL_Driver/Inc/stm32c0xx_ll_rcc.h **** } LL_RCC_ClocksTypeDef;
  79:Drivers/STM32C0xx_HAL_Driver/Inc/stm32c0xx_ll_rcc.h **** 
  80:Drivers/STM32C0xx_HAL_Driver/Inc/stm32c0xx_ll_rcc.h **** /**
  81:Drivers/STM32C0xx_HAL_Driver/Inc/stm32c0xx_ll_rcc.h ****   * @}
  82:Drivers/STM32C0xx_HAL_Driver/Inc/stm32c0xx_ll_rcc.h ****   */
  83:Drivers/STM32C0xx_HAL_Driver/Inc/stm32c0xx_ll_rcc.h **** 
  84:Drivers/STM32C0xx_HAL_Driver/Inc/stm32c0xx_ll_rcc.h **** /**
  85:Drivers/STM32C0xx_HAL_Driver/Inc/stm32c0xx_ll_rcc.h ****   * @}
  86:Drivers/STM32C0xx_HAL_Driver/Inc/stm32c0xx_ll_rcc.h ****   */
  87:Drivers/STM32C0xx_HAL_Driver/Inc/stm32c0xx_ll_rcc.h **** #endif /* USE_FULL_LL_DRIVER */
  88:Drivers/STM32C0xx_HAL_Driver/Inc/stm32c0xx_ll_rcc.h **** 
  89:Drivers/STM32C0xx_HAL_Driver/Inc/stm32c0xx_ll_rcc.h **** /* Exported constants --------------------------------------------------------*/
  90:Drivers/STM32C0xx_HAL_Driver/Inc/stm32c0xx_ll_rcc.h **** /** @defgroup RCC_LL_Exported_Constants RCC Exported Constants
  91:Drivers/STM32C0xx_HAL_Driver/Inc/stm32c0xx_ll_rcc.h ****   * @{
  92:Drivers/STM32C0xx_HAL_Driver/Inc/stm32c0xx_ll_rcc.h ****   */
  93:Drivers/STM32C0xx_HAL_Driver/Inc/stm32c0xx_ll_rcc.h **** 
  94:Drivers/STM32C0xx_HAL_Driver/Inc/stm32c0xx_ll_rcc.h **** /** @defgroup RCC_LL_EC_OSC_VALUES Oscillator Values adaptation
  95:Drivers/STM32C0xx_HAL_Driver/Inc/stm32c0xx_ll_rcc.h ****   * @brief    Defines used to adapt values of different oscillators
  96:Drivers/STM32C0xx_HAL_Driver/Inc/stm32c0xx_ll_rcc.h ****   * @note     These values could be modified in the user environment according to
ARM GAS  C:\Users\simay\AppData\Local\Temp\cctPq0DA.s 			page 38


  97:Drivers/STM32C0xx_HAL_Driver/Inc/stm32c0xx_ll_rcc.h ****   *           HW set-up.
  98:Drivers/STM32C0xx_HAL_Driver/Inc/stm32c0xx_ll_rcc.h ****   * @{
  99:Drivers/STM32C0xx_HAL_Driver/Inc/stm32c0xx_ll_rcc.h ****   */
 100:Drivers/STM32C0xx_HAL_Driver/Inc/stm32c0xx_ll_rcc.h **** #if !defined  (HSE_VALUE)
 101:Drivers/STM32C0xx_HAL_Driver/Inc/stm32c0xx_ll_rcc.h **** #define HSE_VALUE    48000000U   /*!< Value of the HSE oscillator in Hz */
 102:Drivers/STM32C0xx_HAL_Driver/Inc/stm32c0xx_ll_rcc.h **** #endif /* HSE_VALUE */
 103:Drivers/STM32C0xx_HAL_Driver/Inc/stm32c0xx_ll_rcc.h **** 
 104:Drivers/STM32C0xx_HAL_Driver/Inc/stm32c0xx_ll_rcc.h **** #if !defined  (HSI_VALUE)
 105:Drivers/STM32C0xx_HAL_Driver/Inc/stm32c0xx_ll_rcc.h **** #define HSI_VALUE    48000000U  /*!< Value of the HSI oscillator in Hz */
 106:Drivers/STM32C0xx_HAL_Driver/Inc/stm32c0xx_ll_rcc.h **** #endif /* HSI_VALUE */
 107:Drivers/STM32C0xx_HAL_Driver/Inc/stm32c0xx_ll_rcc.h **** 
 108:Drivers/STM32C0xx_HAL_Driver/Inc/stm32c0xx_ll_rcc.h **** #if !defined  (LSE_VALUE)
 109:Drivers/STM32C0xx_HAL_Driver/Inc/stm32c0xx_ll_rcc.h **** #define LSE_VALUE    32768U     /*!< Value of the LSE oscillator in Hz */
 110:Drivers/STM32C0xx_HAL_Driver/Inc/stm32c0xx_ll_rcc.h **** #endif /* LSE_VALUE */
 111:Drivers/STM32C0xx_HAL_Driver/Inc/stm32c0xx_ll_rcc.h **** 
 112:Drivers/STM32C0xx_HAL_Driver/Inc/stm32c0xx_ll_rcc.h **** #if !defined  (LSI_VALUE)
 113:Drivers/STM32C0xx_HAL_Driver/Inc/stm32c0xx_ll_rcc.h **** #define LSI_VALUE    32000U     /*!< Value of the LSI oscillator in Hz */
 114:Drivers/STM32C0xx_HAL_Driver/Inc/stm32c0xx_ll_rcc.h **** #endif /* LSI_VALUE */
 115:Drivers/STM32C0xx_HAL_Driver/Inc/stm32c0xx_ll_rcc.h **** #if !defined  (EXTERNAL_CLOCK_VALUE)
 116:Drivers/STM32C0xx_HAL_Driver/Inc/stm32c0xx_ll_rcc.h **** #define EXTERNAL_CLOCK_VALUE    48000000U /*!< Value of the I2S_CKIN external oscillator in Hz */
 117:Drivers/STM32C0xx_HAL_Driver/Inc/stm32c0xx_ll_rcc.h **** #endif /* EXTERNAL_CLOCK_VALUE */
 118:Drivers/STM32C0xx_HAL_Driver/Inc/stm32c0xx_ll_rcc.h **** 
 119:Drivers/STM32C0xx_HAL_Driver/Inc/stm32c0xx_ll_rcc.h **** #if defined(RCC_HSI48_SUPPORT)
 120:Drivers/STM32C0xx_HAL_Driver/Inc/stm32c0xx_ll_rcc.h **** #if !defined  (HSI48_VALUE)
 121:Drivers/STM32C0xx_HAL_Driver/Inc/stm32c0xx_ll_rcc.h **** #define HSI48_VALUE  48000000U  /*!< Value of the HSI48 oscillator in Hz */
 122:Drivers/STM32C0xx_HAL_Driver/Inc/stm32c0xx_ll_rcc.h **** #endif /* HSI48_VALUE */
 123:Drivers/STM32C0xx_HAL_Driver/Inc/stm32c0xx_ll_rcc.h **** #endif /* RCC_HSI48_SUPPORT */
 124:Drivers/STM32C0xx_HAL_Driver/Inc/stm32c0xx_ll_rcc.h **** /**
 125:Drivers/STM32C0xx_HAL_Driver/Inc/stm32c0xx_ll_rcc.h ****   * @}
 126:Drivers/STM32C0xx_HAL_Driver/Inc/stm32c0xx_ll_rcc.h ****   */
 127:Drivers/STM32C0xx_HAL_Driver/Inc/stm32c0xx_ll_rcc.h **** 
 128:Drivers/STM32C0xx_HAL_Driver/Inc/stm32c0xx_ll_rcc.h **** /** @defgroup RCC_LL_EC_CLEAR_FLAG Clear Flags Defines
 129:Drivers/STM32C0xx_HAL_Driver/Inc/stm32c0xx_ll_rcc.h ****   * @brief    Flags defines which can be used with LL_RCC_WriteReg function
 130:Drivers/STM32C0xx_HAL_Driver/Inc/stm32c0xx_ll_rcc.h ****   * @{
 131:Drivers/STM32C0xx_HAL_Driver/Inc/stm32c0xx_ll_rcc.h ****   */
 132:Drivers/STM32C0xx_HAL_Driver/Inc/stm32c0xx_ll_rcc.h **** #define LL_RCC_CICR_LSIRDYC                RCC_CICR_LSIRDYC     /*!< LSI Ready Interrupt Clear */
 133:Drivers/STM32C0xx_HAL_Driver/Inc/stm32c0xx_ll_rcc.h **** #define LL_RCC_CICR_LSERDYC                RCC_CICR_LSERDYC     /*!< LSE Ready Interrupt Clear */
 134:Drivers/STM32C0xx_HAL_Driver/Inc/stm32c0xx_ll_rcc.h **** #define LL_RCC_CICR_HSIRDYC                RCC_CICR_HSIRDYC     /*!< HSI Ready Interrupt Clear */
 135:Drivers/STM32C0xx_HAL_Driver/Inc/stm32c0xx_ll_rcc.h **** #define LL_RCC_CICR_HSERDYC                RCC_CICR_HSERDYC     /*!< HSE Ready Interrupt Clear */
 136:Drivers/STM32C0xx_HAL_Driver/Inc/stm32c0xx_ll_rcc.h **** #define LL_RCC_CICR_LSECSSC                RCC_CICR_LSECSSC     /*!< LSE Clock Security System Inte
 137:Drivers/STM32C0xx_HAL_Driver/Inc/stm32c0xx_ll_rcc.h **** #define LL_RCC_CICR_CSSC                   RCC_CICR_CSSC        /*!< Clock Security System Interrup
 138:Drivers/STM32C0xx_HAL_Driver/Inc/stm32c0xx_ll_rcc.h **** #if defined(RCC_HSI48_SUPPORT)
 139:Drivers/STM32C0xx_HAL_Driver/Inc/stm32c0xx_ll_rcc.h **** #define LL_RCC_CICR_HSI48CSSC              RCC_CICR_HSIUSB48RDYC  /*!< HSI48 Ready Interrupt Clear 
 140:Drivers/STM32C0xx_HAL_Driver/Inc/stm32c0xx_ll_rcc.h **** #endif /* RCC_HSI48_SUPPORT */
 141:Drivers/STM32C0xx_HAL_Driver/Inc/stm32c0xx_ll_rcc.h **** /**
 142:Drivers/STM32C0xx_HAL_Driver/Inc/stm32c0xx_ll_rcc.h ****   * @}
 143:Drivers/STM32C0xx_HAL_Driver/Inc/stm32c0xx_ll_rcc.h ****   */
 144:Drivers/STM32C0xx_HAL_Driver/Inc/stm32c0xx_ll_rcc.h **** 
 145:Drivers/STM32C0xx_HAL_Driver/Inc/stm32c0xx_ll_rcc.h **** /** @defgroup RCC_LL_EC_GET_FLAG Get Flags Defines
 146:Drivers/STM32C0xx_HAL_Driver/Inc/stm32c0xx_ll_rcc.h ****   * @brief    Flags defines which can be used with LL_RCC_ReadReg function
 147:Drivers/STM32C0xx_HAL_Driver/Inc/stm32c0xx_ll_rcc.h ****   * @{
 148:Drivers/STM32C0xx_HAL_Driver/Inc/stm32c0xx_ll_rcc.h ****   */
 149:Drivers/STM32C0xx_HAL_Driver/Inc/stm32c0xx_ll_rcc.h **** #define LL_RCC_CIFR_LSIRDYF                RCC_CIFR_LSIRDYF     /*!< LSI Ready Interrupt flag */
 150:Drivers/STM32C0xx_HAL_Driver/Inc/stm32c0xx_ll_rcc.h **** #define LL_RCC_CIFR_LSERDYF                RCC_CIFR_LSERDYF     /*!< LSE Ready Interrupt flag */
 151:Drivers/STM32C0xx_HAL_Driver/Inc/stm32c0xx_ll_rcc.h **** #define LL_RCC_CIFR_HSIRDYF                RCC_CIFR_HSIRDYF     /*!< HSI Ready Interrupt flag */
 152:Drivers/STM32C0xx_HAL_Driver/Inc/stm32c0xx_ll_rcc.h **** #define LL_RCC_CIFR_HSERDYF                RCC_CIFR_HSERDYF     /*!< HSE Ready Interrupt flag */
 153:Drivers/STM32C0xx_HAL_Driver/Inc/stm32c0xx_ll_rcc.h **** #define LL_RCC_CIFR_LSECSSF                RCC_CIFR_LSECSSF     /*!< LSE Clock Security System Inte
ARM GAS  C:\Users\simay\AppData\Local\Temp\cctPq0DA.s 			page 39


 154:Drivers/STM32C0xx_HAL_Driver/Inc/stm32c0xx_ll_rcc.h **** #define LL_RCC_CIFR_CSSF                   RCC_CIFR_CSSF        /*!< Clock Security System Interrup
 155:Drivers/STM32C0xx_HAL_Driver/Inc/stm32c0xx_ll_rcc.h **** #if defined(RCC_HSI48_SUPPORT)
 156:Drivers/STM32C0xx_HAL_Driver/Inc/stm32c0xx_ll_rcc.h **** #define LL_RCC_CIFR_HSI48RDYF              RCC_CIFR_HSIUSB48RDYF  /*!< HSI48 Ready Interrupt flag *
 157:Drivers/STM32C0xx_HAL_Driver/Inc/stm32c0xx_ll_rcc.h **** #endif /* RCC_HSI48_SUPPORT */
 158:Drivers/STM32C0xx_HAL_Driver/Inc/stm32c0xx_ll_rcc.h **** #define LL_RCC_CSR_LPWRRSTF                RCC_CSR2_LPWRRSTF    /*!< Low-Power reset flag */
 159:Drivers/STM32C0xx_HAL_Driver/Inc/stm32c0xx_ll_rcc.h **** #define LL_RCC_CSR_OBLRSTF                 RCC_CSR2_OBLRSTF     /*!< OBL reset flag */
 160:Drivers/STM32C0xx_HAL_Driver/Inc/stm32c0xx_ll_rcc.h **** #define LL_RCC_CSR_PINRSTF                 RCC_CSR2_PINRSTF     /*!< PIN reset flag */
 161:Drivers/STM32C0xx_HAL_Driver/Inc/stm32c0xx_ll_rcc.h **** #define LL_RCC_CSR_SFTRSTF                 RCC_CSR2_SFTRSTF     /*!< Software Reset flag */
 162:Drivers/STM32C0xx_HAL_Driver/Inc/stm32c0xx_ll_rcc.h **** #define LL_RCC_CSR_IWDGRSTF                RCC_CSR2_IWDGRSTF    /*!< Independent Watchdog reset fla
 163:Drivers/STM32C0xx_HAL_Driver/Inc/stm32c0xx_ll_rcc.h **** #define LL_RCC_CSR_WWDGRSTF                RCC_CSR2_WWDGRSTF    /*!< Window watchdog reset flag */
 164:Drivers/STM32C0xx_HAL_Driver/Inc/stm32c0xx_ll_rcc.h **** #define LL_RCC_CSR_PWRRSTF                 RCC_CSR2_PWRRSTF     /*!< BOR or POR/PDR reset flag */
 165:Drivers/STM32C0xx_HAL_Driver/Inc/stm32c0xx_ll_rcc.h **** /**
 166:Drivers/STM32C0xx_HAL_Driver/Inc/stm32c0xx_ll_rcc.h ****   * @}
 167:Drivers/STM32C0xx_HAL_Driver/Inc/stm32c0xx_ll_rcc.h ****   */
 168:Drivers/STM32C0xx_HAL_Driver/Inc/stm32c0xx_ll_rcc.h **** 
 169:Drivers/STM32C0xx_HAL_Driver/Inc/stm32c0xx_ll_rcc.h **** /** @defgroup RCC_LL_EC_IT IT Defines
 170:Drivers/STM32C0xx_HAL_Driver/Inc/stm32c0xx_ll_rcc.h ****   * @brief    IT defines which can be used with LL_RCC_ReadReg and  LL_RCC_WriteReg functions
 171:Drivers/STM32C0xx_HAL_Driver/Inc/stm32c0xx_ll_rcc.h ****   * @{
 172:Drivers/STM32C0xx_HAL_Driver/Inc/stm32c0xx_ll_rcc.h ****   */
 173:Drivers/STM32C0xx_HAL_Driver/Inc/stm32c0xx_ll_rcc.h **** #define LL_RCC_CIER_LSIRDYIE               RCC_CIER_LSIRDYIE      /*!< LSI Ready Interrupt Enable *
 174:Drivers/STM32C0xx_HAL_Driver/Inc/stm32c0xx_ll_rcc.h **** #define LL_RCC_CIER_LSERDYIE               RCC_CIER_LSERDYIE      /*!< LSE Ready Interrupt Enable *
 175:Drivers/STM32C0xx_HAL_Driver/Inc/stm32c0xx_ll_rcc.h **** #define LL_RCC_CIER_HSIRDYIE               RCC_CIER_HSIRDYIE      /*!< HSI Ready Interrupt Enable *
 176:Drivers/STM32C0xx_HAL_Driver/Inc/stm32c0xx_ll_rcc.h **** #define LL_RCC_CIER_HSERDYIE               RCC_CIER_HSERDYIE      /*!< HSE Ready Interrupt Enable *
 177:Drivers/STM32C0xx_HAL_Driver/Inc/stm32c0xx_ll_rcc.h **** /**
 178:Drivers/STM32C0xx_HAL_Driver/Inc/stm32c0xx_ll_rcc.h ****   * @}
 179:Drivers/STM32C0xx_HAL_Driver/Inc/stm32c0xx_ll_rcc.h ****   */
 180:Drivers/STM32C0xx_HAL_Driver/Inc/stm32c0xx_ll_rcc.h **** 
 181:Drivers/STM32C0xx_HAL_Driver/Inc/stm32c0xx_ll_rcc.h **** /** @defgroup RCC_LL_EC_LSEDRIVE  LSE oscillator drive capability
 182:Drivers/STM32C0xx_HAL_Driver/Inc/stm32c0xx_ll_rcc.h ****   * @{
 183:Drivers/STM32C0xx_HAL_Driver/Inc/stm32c0xx_ll_rcc.h ****   */
 184:Drivers/STM32C0xx_HAL_Driver/Inc/stm32c0xx_ll_rcc.h **** #define LL_RCC_LSEDRIVE_LOW                0x00000000U             /*!< Xtal mode lower driving cap
 185:Drivers/STM32C0xx_HAL_Driver/Inc/stm32c0xx_ll_rcc.h **** #define LL_RCC_LSEDRIVE_MEDIUMLOW          RCC_CSR1_LSEDRV_0       /*!< Xtal mode medium low drivin
 186:Drivers/STM32C0xx_HAL_Driver/Inc/stm32c0xx_ll_rcc.h **** #define LL_RCC_LSEDRIVE_MEDIUMHIGH         RCC_CSR1_LSEDRV_1       /*!< Xtal mode medium high drivi
 187:Drivers/STM32C0xx_HAL_Driver/Inc/stm32c0xx_ll_rcc.h **** #define LL_RCC_LSEDRIVE_HIGH               RCC_CSR1_LSEDRV         /*!< Xtal mode higher driving ca
 188:Drivers/STM32C0xx_HAL_Driver/Inc/stm32c0xx_ll_rcc.h **** /**
 189:Drivers/STM32C0xx_HAL_Driver/Inc/stm32c0xx_ll_rcc.h ****   * @}
 190:Drivers/STM32C0xx_HAL_Driver/Inc/stm32c0xx_ll_rcc.h ****   */
 191:Drivers/STM32C0xx_HAL_Driver/Inc/stm32c0xx_ll_rcc.h **** 
 192:Drivers/STM32C0xx_HAL_Driver/Inc/stm32c0xx_ll_rcc.h **** /** @defgroup RCC_LL_EC_LSCO_CLKSOURCE  LSCO Selection
 193:Drivers/STM32C0xx_HAL_Driver/Inc/stm32c0xx_ll_rcc.h ****   * @{
 194:Drivers/STM32C0xx_HAL_Driver/Inc/stm32c0xx_ll_rcc.h ****   */
 195:Drivers/STM32C0xx_HAL_Driver/Inc/stm32c0xx_ll_rcc.h **** #define LL_RCC_LSCO_CLKSOURCE_LSI          0x00000000U                 /*!< LSI selection for low s
 196:Drivers/STM32C0xx_HAL_Driver/Inc/stm32c0xx_ll_rcc.h **** #define LL_RCC_LSCO_CLKSOURCE_LSE          RCC_CSR1_LSCOSEL            /*!< LSE selection for low s
 197:Drivers/STM32C0xx_HAL_Driver/Inc/stm32c0xx_ll_rcc.h **** /**
 198:Drivers/STM32C0xx_HAL_Driver/Inc/stm32c0xx_ll_rcc.h ****   * @}
 199:Drivers/STM32C0xx_HAL_Driver/Inc/stm32c0xx_ll_rcc.h ****   */
 200:Drivers/STM32C0xx_HAL_Driver/Inc/stm32c0xx_ll_rcc.h **** 
 201:Drivers/STM32C0xx_HAL_Driver/Inc/stm32c0xx_ll_rcc.h **** /** @defgroup RCC_LL_EC_SYS_CLKSOURCE  System clock switch
 202:Drivers/STM32C0xx_HAL_Driver/Inc/stm32c0xx_ll_rcc.h ****   * @{
 203:Drivers/STM32C0xx_HAL_Driver/Inc/stm32c0xx_ll_rcc.h ****   */
 204:Drivers/STM32C0xx_HAL_Driver/Inc/stm32c0xx_ll_rcc.h **** #define LL_RCC_SYS_CLKSOURCE_HSI           0x00000000U                        /*!< HSI selection as
 205:Drivers/STM32C0xx_HAL_Driver/Inc/stm32c0xx_ll_rcc.h **** #define LL_RCC_SYS_CLKSOURCE_HSE           RCC_CFGR_SW_0                      /*!< HSE selection as
 206:Drivers/STM32C0xx_HAL_Driver/Inc/stm32c0xx_ll_rcc.h **** #if defined(RCC_HSI48_SUPPORT)
 207:Drivers/STM32C0xx_HAL_Driver/Inc/stm32c0xx_ll_rcc.h **** #define LL_RCC_SYS_CLKSOURCE_HSIUSB48      RCC_CFGR_SW_1                      /*!< HSIUSB48 selecti
 208:Drivers/STM32C0xx_HAL_Driver/Inc/stm32c0xx_ll_rcc.h **** #endif /* RCC_HSI48_SUPPORT */
 209:Drivers/STM32C0xx_HAL_Driver/Inc/stm32c0xx_ll_rcc.h **** #define LL_RCC_SYS_CLKSOURCE_LSI           (RCC_CFGR_SW_1 | RCC_CFGR_SW_0)    /*!< LSI selection us
 210:Drivers/STM32C0xx_HAL_Driver/Inc/stm32c0xx_ll_rcc.h **** #define LL_RCC_SYS_CLKSOURCE_LSE           RCC_CFGR_SW_2                      /*!< LSE selection us
ARM GAS  C:\Users\simay\AppData\Local\Temp\cctPq0DA.s 			page 40


 211:Drivers/STM32C0xx_HAL_Driver/Inc/stm32c0xx_ll_rcc.h **** /**
 212:Drivers/STM32C0xx_HAL_Driver/Inc/stm32c0xx_ll_rcc.h ****   * @}
 213:Drivers/STM32C0xx_HAL_Driver/Inc/stm32c0xx_ll_rcc.h ****   */
 214:Drivers/STM32C0xx_HAL_Driver/Inc/stm32c0xx_ll_rcc.h **** 
 215:Drivers/STM32C0xx_HAL_Driver/Inc/stm32c0xx_ll_rcc.h **** /** @defgroup RCC_LL_EC_SYS_CLKSOURCE_STATUS  System clock switch status
 216:Drivers/STM32C0xx_HAL_Driver/Inc/stm32c0xx_ll_rcc.h ****   * @{
 217:Drivers/STM32C0xx_HAL_Driver/Inc/stm32c0xx_ll_rcc.h ****   */
 218:Drivers/STM32C0xx_HAL_Driver/Inc/stm32c0xx_ll_rcc.h **** #define LL_RCC_SYS_CLKSOURCE_STATUS_HSI           0x00000000U                         /*!< HSI used
 219:Drivers/STM32C0xx_HAL_Driver/Inc/stm32c0xx_ll_rcc.h **** #define LL_RCC_SYS_CLKSOURCE_STATUS_HSE           RCC_CFGR_SWS_0                      /*!< HSE used
 220:Drivers/STM32C0xx_HAL_Driver/Inc/stm32c0xx_ll_rcc.h **** #if defined(RCC_HSI48_SUPPORT)
 221:Drivers/STM32C0xx_HAL_Driver/Inc/stm32c0xx_ll_rcc.h **** #define LL_RCC_SYS_CLKSOURCE_STATUS_HSIUSB48      RCC_CFGR_SWS_1                      /*!< HSIUSB48
 222:Drivers/STM32C0xx_HAL_Driver/Inc/stm32c0xx_ll_rcc.h **** #endif /* RCC_HSI48_SUPPORT */
 223:Drivers/STM32C0xx_HAL_Driver/Inc/stm32c0xx_ll_rcc.h **** #define LL_RCC_SYS_CLKSOURCE_STATUS_LSI           (RCC_CFGR_SWS_1 | RCC_CFGR_SWS_0)   /*!< LSI used
 224:Drivers/STM32C0xx_HAL_Driver/Inc/stm32c0xx_ll_rcc.h **** #define LL_RCC_SYS_CLKSOURCE_STATUS_LSE           RCC_CFGR_SWS_2                      /*!< LSE used
 225:Drivers/STM32C0xx_HAL_Driver/Inc/stm32c0xx_ll_rcc.h **** /**
 226:Drivers/STM32C0xx_HAL_Driver/Inc/stm32c0xx_ll_rcc.h ****   * @}
 227:Drivers/STM32C0xx_HAL_Driver/Inc/stm32c0xx_ll_rcc.h ****   */
 228:Drivers/STM32C0xx_HAL_Driver/Inc/stm32c0xx_ll_rcc.h **** 
 229:Drivers/STM32C0xx_HAL_Driver/Inc/stm32c0xx_ll_rcc.h **** /** @defgroup RCC_LL_EC_SYSCLK_DIV  AHB prescaler
 230:Drivers/STM32C0xx_HAL_Driver/Inc/stm32c0xx_ll_rcc.h ****   * @{
 231:Drivers/STM32C0xx_HAL_Driver/Inc/stm32c0xx_ll_rcc.h ****   */
 232:Drivers/STM32C0xx_HAL_Driver/Inc/stm32c0xx_ll_rcc.h **** #if defined(RCC_CR_SYSDIV)
 233:Drivers/STM32C0xx_HAL_Driver/Inc/stm32c0xx_ll_rcc.h **** #define LL_RCC_SYSCLK_DIV_1            0x00000000U                                 /*!< SYSCLK not 
 234:Drivers/STM32C0xx_HAL_Driver/Inc/stm32c0xx_ll_rcc.h **** #define LL_RCC_SYSCLK_DIV_2            RCC_CR_SYSDIV_0                             /*!< SYSCLK divi
 235:Drivers/STM32C0xx_HAL_Driver/Inc/stm32c0xx_ll_rcc.h **** #define LL_RCC_SYSCLK_DIV_3            RCC_CR_SYSDIV_1                             /*!< SYSCLK divi
 236:Drivers/STM32C0xx_HAL_Driver/Inc/stm32c0xx_ll_rcc.h **** #define LL_RCC_SYSCLK_DIV_4            (RCC_CR_SYSDIV_1 | RCC_CR_SYSDIV_0)         /*!< SYSCLK divi
 237:Drivers/STM32C0xx_HAL_Driver/Inc/stm32c0xx_ll_rcc.h **** #define LL_RCC_SYSCLK_DIV_5            RCC_CR_SYSDIV_2                             /*!< SYSCLK divi
 238:Drivers/STM32C0xx_HAL_Driver/Inc/stm32c0xx_ll_rcc.h **** #define LL_RCC_SYSCLK_DIV_6            (RCC_CR_SYSDIV_2 | RCC_CR_SYSDIV_0)         /*!< SYSCLK divi
 239:Drivers/STM32C0xx_HAL_Driver/Inc/stm32c0xx_ll_rcc.h **** #define LL_RCC_SYSCLK_DIV_7            (RCC_CR_SYSDIV_2 | RCC_CR_SYSDIV_1)         /*!< SYSCLK divi
 240:Drivers/STM32C0xx_HAL_Driver/Inc/stm32c0xx_ll_rcc.h **** #define LL_RCC_SYSCLK_DIV_8            (RCC_CR_SYSDIV_2 | RCC_CR_SYSDIV_1 | RCC_CR_SYSDIV_0) /*!< S
 241:Drivers/STM32C0xx_HAL_Driver/Inc/stm32c0xx_ll_rcc.h **** #else
 242:Drivers/STM32C0xx_HAL_Driver/Inc/stm32c0xx_ll_rcc.h **** #define LL_RCC_SYSCLK_DIV_1            0x00000000U                                           /*!< S
 243:Drivers/STM32C0xx_HAL_Driver/Inc/stm32c0xx_ll_rcc.h **** #endif /* RCC_CR_SYSDIV */
 244:Drivers/STM32C0xx_HAL_Driver/Inc/stm32c0xx_ll_rcc.h **** /**
 245:Drivers/STM32C0xx_HAL_Driver/Inc/stm32c0xx_ll_rcc.h ****   * @}
 246:Drivers/STM32C0xx_HAL_Driver/Inc/stm32c0xx_ll_rcc.h ****   */
 247:Drivers/STM32C0xx_HAL_Driver/Inc/stm32c0xx_ll_rcc.h **** 
 248:Drivers/STM32C0xx_HAL_Driver/Inc/stm32c0xx_ll_rcc.h **** /** @defgroup RCC_HCLK_Clock_Source  RCC HCLK Clock Source
 249:Drivers/STM32C0xx_HAL_Driver/Inc/stm32c0xx_ll_rcc.h ****   * @{
 250:Drivers/STM32C0xx_HAL_Driver/Inc/stm32c0xx_ll_rcc.h ****   */
 251:Drivers/STM32C0xx_HAL_Driver/Inc/stm32c0xx_ll_rcc.h **** #define LL_RCC_HCLK_DIV_1                  0x00000000U                                             
 252:Drivers/STM32C0xx_HAL_Driver/Inc/stm32c0xx_ll_rcc.h **** #define LL_RCC_HCLK_DIV_2                  RCC_CFGR_HPRE_3                                         
 253:Drivers/STM32C0xx_HAL_Driver/Inc/stm32c0xx_ll_rcc.h **** #define LL_RCC_HCLK_DIV_4                  (RCC_CFGR_HPRE_3 | RCC_CFGR_HPRE_0)                     
 254:Drivers/STM32C0xx_HAL_Driver/Inc/stm32c0xx_ll_rcc.h **** #define LL_RCC_HCLK_DIV_8                  (RCC_CFGR_HPRE_3 | RCC_CFGR_HPRE_1)                     
 255:Drivers/STM32C0xx_HAL_Driver/Inc/stm32c0xx_ll_rcc.h **** #define LL_RCC_HCLK_DIV_16                 (RCC_CFGR_HPRE_3 | RCC_CFGR_HPRE_1 | RCC_CFGR_HPRE_0)   
 256:Drivers/STM32C0xx_HAL_Driver/Inc/stm32c0xx_ll_rcc.h **** #define LL_RCC_HCLK_DIV_64                 (RCC_CFGR_HPRE_3 | RCC_CFGR_HPRE_2)                     
 257:Drivers/STM32C0xx_HAL_Driver/Inc/stm32c0xx_ll_rcc.h **** #define LL_RCC_HCLK_DIV_128                (RCC_CFGR_HPRE_3 | RCC_CFGR_HPRE_2 | RCC_CFGR_HPRE_0)   
 258:Drivers/STM32C0xx_HAL_Driver/Inc/stm32c0xx_ll_rcc.h **** #define LL_RCC_HCLK_DIV_256                (RCC_CFGR_HPRE_3 | RCC_CFGR_HPRE_2 | RCC_CFGR_HPRE_1)   
 259:Drivers/STM32C0xx_HAL_Driver/Inc/stm32c0xx_ll_rcc.h **** #define LL_RCC_HCLK_DIV_512                (RCC_CFGR_HPRE_3 | RCC_CFGR_HPRE_2 | RCC_CFGR_HPRE_1 | R
 260:Drivers/STM32C0xx_HAL_Driver/Inc/stm32c0xx_ll_rcc.h **** /**
 261:Drivers/STM32C0xx_HAL_Driver/Inc/stm32c0xx_ll_rcc.h ****   * @}
 262:Drivers/STM32C0xx_HAL_Driver/Inc/stm32c0xx_ll_rcc.h ****   */
 263:Drivers/STM32C0xx_HAL_Driver/Inc/stm32c0xx_ll_rcc.h **** 
 264:Drivers/STM32C0xx_HAL_Driver/Inc/stm32c0xx_ll_rcc.h **** /** @defgroup RCC_LL_EC_APB1_DIV  APB low-speed prescaler (APB1)
 265:Drivers/STM32C0xx_HAL_Driver/Inc/stm32c0xx_ll_rcc.h ****   * @{
 266:Drivers/STM32C0xx_HAL_Driver/Inc/stm32c0xx_ll_rcc.h ****   */
 267:Drivers/STM32C0xx_HAL_Driver/Inc/stm32c0xx_ll_rcc.h **** #define LL_RCC_APB1_DIV_1              0x00000000U                                           /*!< H
ARM GAS  C:\Users\simay\AppData\Local\Temp\cctPq0DA.s 			page 41


 268:Drivers/STM32C0xx_HAL_Driver/Inc/stm32c0xx_ll_rcc.h **** #define LL_RCC_APB1_DIV_2              RCC_CFGR_PPRE_2                                       /*!< H
 269:Drivers/STM32C0xx_HAL_Driver/Inc/stm32c0xx_ll_rcc.h **** #define LL_RCC_APB1_DIV_4              (RCC_CFGR_PPRE_2 | RCC_CFGR_PPRE_0)                   /*!< H
 270:Drivers/STM32C0xx_HAL_Driver/Inc/stm32c0xx_ll_rcc.h **** #define LL_RCC_APB1_DIV_8              (RCC_CFGR_PPRE_2 | RCC_CFGR_PPRE_1)                   /*!< H
 271:Drivers/STM32C0xx_HAL_Driver/Inc/stm32c0xx_ll_rcc.h **** #define LL_RCC_APB1_DIV_16             (RCC_CFGR_PPRE_2 | RCC_CFGR_PPRE_1 | RCC_CFGR_PPRE_0) /*!< H
 272:Drivers/STM32C0xx_HAL_Driver/Inc/stm32c0xx_ll_rcc.h **** /**
 273:Drivers/STM32C0xx_HAL_Driver/Inc/stm32c0xx_ll_rcc.h ****   * @}
 274:Drivers/STM32C0xx_HAL_Driver/Inc/stm32c0xx_ll_rcc.h ****   */
 275:Drivers/STM32C0xx_HAL_Driver/Inc/stm32c0xx_ll_rcc.h **** 
 276:Drivers/STM32C0xx_HAL_Driver/Inc/stm32c0xx_ll_rcc.h **** /** @defgroup RCC_LL_EC_HSI_DIV  HSI division factor
 277:Drivers/STM32C0xx_HAL_Driver/Inc/stm32c0xx_ll_rcc.h ****   * @{
 278:Drivers/STM32C0xx_HAL_Driver/Inc/stm32c0xx_ll_rcc.h ****   */
 279:Drivers/STM32C0xx_HAL_Driver/Inc/stm32c0xx_ll_rcc.h **** #define LL_RCC_HSI_DIV_1                  0x00000000U                                /*!< HSI not d
 280:Drivers/STM32C0xx_HAL_Driver/Inc/stm32c0xx_ll_rcc.h **** #define LL_RCC_HSI_DIV_2                  RCC_CR_HSIDIV_0                            /*!< HSI divid
 281:Drivers/STM32C0xx_HAL_Driver/Inc/stm32c0xx_ll_rcc.h **** #define LL_RCC_HSI_DIV_4                  RCC_CR_HSIDIV_1                            /*!< HSI divid
 282:Drivers/STM32C0xx_HAL_Driver/Inc/stm32c0xx_ll_rcc.h **** #define LL_RCC_HSI_DIV_8                  (RCC_CR_HSIDIV_1 | RCC_CR_HSIDIV_0)        /*!< HSI divid
 283:Drivers/STM32C0xx_HAL_Driver/Inc/stm32c0xx_ll_rcc.h **** #define LL_RCC_HSI_DIV_16                 RCC_CR_HSIDIV_2                            /*!< HSI divid
 284:Drivers/STM32C0xx_HAL_Driver/Inc/stm32c0xx_ll_rcc.h **** #define LL_RCC_HSI_DIV_32                 (RCC_CR_HSIDIV_2 | RCC_CR_HSIDIV_0)        /*!< HSI divid
 285:Drivers/STM32C0xx_HAL_Driver/Inc/stm32c0xx_ll_rcc.h **** #define LL_RCC_HSI_DIV_64                 (RCC_CR_HSIDIV_2 | RCC_CR_HSIDIV_1)        /*!< HSI divid
 286:Drivers/STM32C0xx_HAL_Driver/Inc/stm32c0xx_ll_rcc.h **** #define LL_RCC_HSI_DIV_128                RCC_CR_HSIDIV                              /*!< HSI divid
 287:Drivers/STM32C0xx_HAL_Driver/Inc/stm32c0xx_ll_rcc.h **** /**
 288:Drivers/STM32C0xx_HAL_Driver/Inc/stm32c0xx_ll_rcc.h ****   * @}
 289:Drivers/STM32C0xx_HAL_Driver/Inc/stm32c0xx_ll_rcc.h ****   */
 290:Drivers/STM32C0xx_HAL_Driver/Inc/stm32c0xx_ll_rcc.h **** 
 291:Drivers/STM32C0xx_HAL_Driver/Inc/stm32c0xx_ll_rcc.h **** /** @defgroup RCC_LL_EC_HSIKER_DIV  HSI Kernel division factor
 292:Drivers/STM32C0xx_HAL_Driver/Inc/stm32c0xx_ll_rcc.h ****   * @{
 293:Drivers/STM32C0xx_HAL_Driver/Inc/stm32c0xx_ll_rcc.h ****   */
 294:Drivers/STM32C0xx_HAL_Driver/Inc/stm32c0xx_ll_rcc.h **** #define LL_RCC_HSIKER_DIV_1                  0x00000000U                                /*!< HSI ke
 295:Drivers/STM32C0xx_HAL_Driver/Inc/stm32c0xx_ll_rcc.h **** #define LL_RCC_HSIKER_DIV_2                  RCC_CR_HSIKERDIV_0                         /*!< HSI ke
 296:Drivers/STM32C0xx_HAL_Driver/Inc/stm32c0xx_ll_rcc.h **** #define LL_RCC_HSIKER_DIV_3                  RCC_CR_HSIKERDIV_1                         /*!< HSI ke
 297:Drivers/STM32C0xx_HAL_Driver/Inc/stm32c0xx_ll_rcc.h **** #define LL_RCC_HSIKER_DIV_4                  (RCC_CR_HSIKERDIV_1 | RCC_CR_HSIKERDIV_0)  /*!< HSI ke
 298:Drivers/STM32C0xx_HAL_Driver/Inc/stm32c0xx_ll_rcc.h **** #define LL_RCC_HSIKER_DIV_5                  RCC_CR_HSIKERDIV_2                         /*!< HSI ke
 299:Drivers/STM32C0xx_HAL_Driver/Inc/stm32c0xx_ll_rcc.h **** #define LL_RCC_HSIKER_DIV_6                  (RCC_CR_HSIKERDIV_2 | RCC_CR_HSIKERDIV_0)  /*!< HSI ke
 300:Drivers/STM32C0xx_HAL_Driver/Inc/stm32c0xx_ll_rcc.h **** #define LL_RCC_HSIKER_DIV_7                  (RCC_CR_HSIKERDIV_2 | RCC_CR_HSIKERDIV_1)  /*!< HSI ke
 301:Drivers/STM32C0xx_HAL_Driver/Inc/stm32c0xx_ll_rcc.h **** #define LL_RCC_HSIKER_DIV_8                  RCC_CR_HSIKERDIV                           /*!< HSI ke
 302:Drivers/STM32C0xx_HAL_Driver/Inc/stm32c0xx_ll_rcc.h **** /**
 303:Drivers/STM32C0xx_HAL_Driver/Inc/stm32c0xx_ll_rcc.h ****   * @}
 304:Drivers/STM32C0xx_HAL_Driver/Inc/stm32c0xx_ll_rcc.h ****   */
 305:Drivers/STM32C0xx_HAL_Driver/Inc/stm32c0xx_ll_rcc.h **** 
 306:Drivers/STM32C0xx_HAL_Driver/Inc/stm32c0xx_ll_rcc.h **** /** @defgroup RCC_LL_EC_MCO1SOURCE  MCO1 SOURCE selection
 307:Drivers/STM32C0xx_HAL_Driver/Inc/stm32c0xx_ll_rcc.h ****   * @{
 308:Drivers/STM32C0xx_HAL_Driver/Inc/stm32c0xx_ll_rcc.h ****   */
 309:Drivers/STM32C0xx_HAL_Driver/Inc/stm32c0xx_ll_rcc.h **** #define LL_RCC_MCO1SOURCE_NOCLOCK          0x00000000U                            /*!< MCO output d
 310:Drivers/STM32C0xx_HAL_Driver/Inc/stm32c0xx_ll_rcc.h **** #define LL_RCC_MCO1SOURCE_SYSCLK           RCC_CFGR_MCOSEL_0                      /*!< SYSCLK selec
 311:Drivers/STM32C0xx_HAL_Driver/Inc/stm32c0xx_ll_rcc.h **** #define LL_RCC_MCO1SOURCE_HSI              (RCC_CFGR_MCOSEL_0| RCC_CFGR_MCOSEL_1) /*!< HSI16 select
 312:Drivers/STM32C0xx_HAL_Driver/Inc/stm32c0xx_ll_rcc.h **** #define LL_RCC_MCO1SOURCE_HSE              RCC_CFGR_MCOSEL_2                      /*!< HSE selectio
 313:Drivers/STM32C0xx_HAL_Driver/Inc/stm32c0xx_ll_rcc.h **** #define LL_RCC_MCO1SOURCE_LSI              (RCC_CFGR_MCOSEL_1|RCC_CFGR_MCOSEL_2)  /*!< LSI selectio
 314:Drivers/STM32C0xx_HAL_Driver/Inc/stm32c0xx_ll_rcc.h **** #define LL_RCC_MCO1SOURCE_LSE              (RCC_CFGR_MCOSEL_0|RCC_CFGR_MCOSEL_1|RCC_CFGR_MCOSEL_2) 
 315:Drivers/STM32C0xx_HAL_Driver/Inc/stm32c0xx_ll_rcc.h **** #if defined(RCC_HSI48_SUPPORT)
 316:Drivers/STM32C0xx_HAL_Driver/Inc/stm32c0xx_ll_rcc.h **** #define LL_RCC_MCO1SOURCE_HSIUSB48         RCC_CFGR_MCOSEL_3                      /*!< HSIUSB48 sel
 317:Drivers/STM32C0xx_HAL_Driver/Inc/stm32c0xx_ll_rcc.h **** #endif /* RCC_HSI48_SUPPORT */
 318:Drivers/STM32C0xx_HAL_Driver/Inc/stm32c0xx_ll_rcc.h **** /**
 319:Drivers/STM32C0xx_HAL_Driver/Inc/stm32c0xx_ll_rcc.h ****   * @}
 320:Drivers/STM32C0xx_HAL_Driver/Inc/stm32c0xx_ll_rcc.h ****   */
 321:Drivers/STM32C0xx_HAL_Driver/Inc/stm32c0xx_ll_rcc.h **** 
 322:Drivers/STM32C0xx_HAL_Driver/Inc/stm32c0xx_ll_rcc.h **** /** @defgroup RCC_LL_EC_MCO1_DIV  MCO1 prescaler
 323:Drivers/STM32C0xx_HAL_Driver/Inc/stm32c0xx_ll_rcc.h ****   * @{
 324:Drivers/STM32C0xx_HAL_Driver/Inc/stm32c0xx_ll_rcc.h ****   */
ARM GAS  C:\Users\simay\AppData\Local\Temp\cctPq0DA.s 			page 42


 325:Drivers/STM32C0xx_HAL_Driver/Inc/stm32c0xx_ll_rcc.h **** #define LL_RCC_MCO1_DIV_1        0x00000000U                                                 /*!< M
 326:Drivers/STM32C0xx_HAL_Driver/Inc/stm32c0xx_ll_rcc.h **** #define LL_RCC_MCO1_DIV_2        RCC_CFGR_MCOPRE_0                                           /*!< M
 327:Drivers/STM32C0xx_HAL_Driver/Inc/stm32c0xx_ll_rcc.h **** #define LL_RCC_MCO1_DIV_4        RCC_CFGR_MCOPRE_1                                           /*!< M
 328:Drivers/STM32C0xx_HAL_Driver/Inc/stm32c0xx_ll_rcc.h **** #define LL_RCC_MCO1_DIV_8        (RCC_CFGR_MCOPRE_1 | RCC_CFGR_MCOPRE_0)                     /*!< M
 329:Drivers/STM32C0xx_HAL_Driver/Inc/stm32c0xx_ll_rcc.h **** #define LL_RCC_MCO1_DIV_16       RCC_CFGR_MCOPRE_2                                           /*!< M
 330:Drivers/STM32C0xx_HAL_Driver/Inc/stm32c0xx_ll_rcc.h **** #define LL_RCC_MCO1_DIV_32       (RCC_CFGR_MCOPRE_2 | RCC_CFGR_MCOPRE_0)                     /*!< M
 331:Drivers/STM32C0xx_HAL_Driver/Inc/stm32c0xx_ll_rcc.h **** #define LL_RCC_MCO1_DIV_64       (RCC_CFGR_MCOPRE_2 | RCC_CFGR_MCOPRE_1)                     /*!< M
 332:Drivers/STM32C0xx_HAL_Driver/Inc/stm32c0xx_ll_rcc.h **** #define LL_RCC_MCO1_DIV_128      (RCC_CFGR_MCOPRE_2 | RCC_CFGR_MCOPRE_1 | RCC_CFGR_MCOPRE_0) /*!< M
 333:Drivers/STM32C0xx_HAL_Driver/Inc/stm32c0xx_ll_rcc.h **** #if defined(RCC_CFGR_MCOPRE_3)
 334:Drivers/STM32C0xx_HAL_Driver/Inc/stm32c0xx_ll_rcc.h **** #define LL_RCC_MCO1_DIV_256      RCC_CFGR_MCOPRE_3                                           /*!< M
 335:Drivers/STM32C0xx_HAL_Driver/Inc/stm32c0xx_ll_rcc.h **** #define LL_RCC_MCO1_DIV_512      (RCC_CFGR_MCOPRE_3 | RCC_CFGR_MCOPRE_0)                     /*!< M
 336:Drivers/STM32C0xx_HAL_Driver/Inc/stm32c0xx_ll_rcc.h **** #define LL_RCC_MCO1_DIV_1024     (RCC_CFGR_MCOPRE_3 | RCC_CFGR_MCOPRE_1)                    /*!< MC
 337:Drivers/STM32C0xx_HAL_Driver/Inc/stm32c0xx_ll_rcc.h **** #endif /* RCC_CFGR_MCOPRE_3 */
 338:Drivers/STM32C0xx_HAL_Driver/Inc/stm32c0xx_ll_rcc.h **** /**
 339:Drivers/STM32C0xx_HAL_Driver/Inc/stm32c0xx_ll_rcc.h ****   * @}
 340:Drivers/STM32C0xx_HAL_Driver/Inc/stm32c0xx_ll_rcc.h ****   */
 341:Drivers/STM32C0xx_HAL_Driver/Inc/stm32c0xx_ll_rcc.h **** 
 342:Drivers/STM32C0xx_HAL_Driver/Inc/stm32c0xx_ll_rcc.h **** /** @defgroup RCC_LL_EC_MCO2SOURCE  MCO2 SOURCE selection
 343:Drivers/STM32C0xx_HAL_Driver/Inc/stm32c0xx_ll_rcc.h ****   * @{
 344:Drivers/STM32C0xx_HAL_Driver/Inc/stm32c0xx_ll_rcc.h ****   */
 345:Drivers/STM32C0xx_HAL_Driver/Inc/stm32c0xx_ll_rcc.h **** #define LL_RCC_MCO2SOURCE_NOCLOCK          0x00000000U                               /*!< MCO2 outp
 346:Drivers/STM32C0xx_HAL_Driver/Inc/stm32c0xx_ll_rcc.h **** #define LL_RCC_MCO2SOURCE_SYSCLK           RCC_CFGR_MCO2SEL_0                        /*!< SYSCLK se
 347:Drivers/STM32C0xx_HAL_Driver/Inc/stm32c0xx_ll_rcc.h **** #define LL_RCC_MCO2SOURCE_HSI              (RCC_CFGR_MCO2SEL_0| RCC_CFGR_MCO2SEL_1)  /*!< HSI16 sel
 348:Drivers/STM32C0xx_HAL_Driver/Inc/stm32c0xx_ll_rcc.h **** #define LL_RCC_MCO2SOURCE_HSE              RCC_CFGR_MCO2SEL_2                        /*!< HSE selec
 349:Drivers/STM32C0xx_HAL_Driver/Inc/stm32c0xx_ll_rcc.h **** #define LL_RCC_MCO2SOURCE_LSI              (RCC_CFGR_MCO2SEL_1|RCC_CFGR_MCO2SEL_2)   /*!< LSI selec
 350:Drivers/STM32C0xx_HAL_Driver/Inc/stm32c0xx_ll_rcc.h **** #define LL_RCC_MCO2SOURCE_LSE              (RCC_CFGR_MCO2SEL_0|RCC_CFGR_MCO2SEL_1|RCC_CFGR_MCO2SEL_
 351:Drivers/STM32C0xx_HAL_Driver/Inc/stm32c0xx_ll_rcc.h **** #if defined(RCC_HSI48_SUPPORT)
 352:Drivers/STM32C0xx_HAL_Driver/Inc/stm32c0xx_ll_rcc.h **** #define LL_RCC_MCO2SOURCE_HSIUSB48         RCC_CFGR_MCO2SEL_3                      /*!< HSIUSB48 se
 353:Drivers/STM32C0xx_HAL_Driver/Inc/stm32c0xx_ll_rcc.h **** #endif /* RCC_HSI48_SUPPORT */
 354:Drivers/STM32C0xx_HAL_Driver/Inc/stm32c0xx_ll_rcc.h **** /**
 355:Drivers/STM32C0xx_HAL_Driver/Inc/stm32c0xx_ll_rcc.h ****   * @}
 356:Drivers/STM32C0xx_HAL_Driver/Inc/stm32c0xx_ll_rcc.h ****   */
 357:Drivers/STM32C0xx_HAL_Driver/Inc/stm32c0xx_ll_rcc.h **** 
 358:Drivers/STM32C0xx_HAL_Driver/Inc/stm32c0xx_ll_rcc.h **** /** @defgroup RCC_LL_EC_MCO2_DIV  MCO2 prescaler
 359:Drivers/STM32C0xx_HAL_Driver/Inc/stm32c0xx_ll_rcc.h ****   * @{
 360:Drivers/STM32C0xx_HAL_Driver/Inc/stm32c0xx_ll_rcc.h ****   */
 361:Drivers/STM32C0xx_HAL_Driver/Inc/stm32c0xx_ll_rcc.h **** #define LL_RCC_MCO2_DIV_1      0x00000000U                                                    /*!< 
 362:Drivers/STM32C0xx_HAL_Driver/Inc/stm32c0xx_ll_rcc.h **** #define LL_RCC_MCO2_DIV_2      RCC_CFGR_MCO2PRE_0                                             /*!< 
 363:Drivers/STM32C0xx_HAL_Driver/Inc/stm32c0xx_ll_rcc.h **** #define LL_RCC_MCO2_DIV_4      RCC_CFGR_MCO2PRE_1                                             /*!< 
 364:Drivers/STM32C0xx_HAL_Driver/Inc/stm32c0xx_ll_rcc.h **** #define LL_RCC_MCO2_DIV_8      (RCC_CFGR_MCO2PRE_1 | RCC_CFGR_MCO2PRE_0)                      /*!< 
 365:Drivers/STM32C0xx_HAL_Driver/Inc/stm32c0xx_ll_rcc.h **** #define LL_RCC_MCO2_DIV_16     RCC_CFGR_MCO2PRE_2                                             /*!< 
 366:Drivers/STM32C0xx_HAL_Driver/Inc/stm32c0xx_ll_rcc.h **** #define LL_RCC_MCO2_DIV_32     (RCC_CFGR_MCO2PRE_2 | RCC_CFGR_MCO2PRE_0)                      /*!< 
 367:Drivers/STM32C0xx_HAL_Driver/Inc/stm32c0xx_ll_rcc.h **** #define LL_RCC_MCO2_DIV_64     (RCC_CFGR_MCO2PRE_2 | RCC_CFGR_MCO2PRE_1)                      /*!< 
 368:Drivers/STM32C0xx_HAL_Driver/Inc/stm32c0xx_ll_rcc.h **** #define LL_RCC_MCO2_DIV_128    (RCC_CFGR_MCO2PRE_2 | RCC_CFGR_MCO2PRE_1 | RCC_CFGR_MCO2PRE_0) /*!< 
 369:Drivers/STM32C0xx_HAL_Driver/Inc/stm32c0xx_ll_rcc.h **** #if defined(RCC_CFGR_MCO2PRE_3)
 370:Drivers/STM32C0xx_HAL_Driver/Inc/stm32c0xx_ll_rcc.h **** #define LL_RCC_MCO2_DIV_256    RCC_CFGR_MCO2PRE_3                                            /*!< M
 371:Drivers/STM32C0xx_HAL_Driver/Inc/stm32c0xx_ll_rcc.h **** #define LL_RCC_MCO2_DIV_512    (RCC_CFGR_MCO2PRE_3 | RCC_CFGR_MCO2PRE_0)                     /*!< M
 372:Drivers/STM32C0xx_HAL_Driver/Inc/stm32c0xx_ll_rcc.h **** #define LL_RCC_MCO2_DIV_1024   (RCC_CFGR_MCO2PRE_3 | RCC_CFGR_MCO2PRE_1)                     /*!< M
 373:Drivers/STM32C0xx_HAL_Driver/Inc/stm32c0xx_ll_rcc.h **** #endif /* RCC_CFGR_MCO2PRE_3 */
 374:Drivers/STM32C0xx_HAL_Driver/Inc/stm32c0xx_ll_rcc.h **** /**
 375:Drivers/STM32C0xx_HAL_Driver/Inc/stm32c0xx_ll_rcc.h ****   * @}
 376:Drivers/STM32C0xx_HAL_Driver/Inc/stm32c0xx_ll_rcc.h ****   */
 377:Drivers/STM32C0xx_HAL_Driver/Inc/stm32c0xx_ll_rcc.h **** #if defined(USE_FULL_LL_DRIVER)
 378:Drivers/STM32C0xx_HAL_Driver/Inc/stm32c0xx_ll_rcc.h **** /** @defgroup RCC_LL_EC_PERIPH_FREQUENCY Peripheral clock frequency
 379:Drivers/STM32C0xx_HAL_Driver/Inc/stm32c0xx_ll_rcc.h ****   * @{
 380:Drivers/STM32C0xx_HAL_Driver/Inc/stm32c0xx_ll_rcc.h ****   */
 381:Drivers/STM32C0xx_HAL_Driver/Inc/stm32c0xx_ll_rcc.h **** #define LL_RCC_PERIPH_FREQUENCY_NO        0x00000000U           /*!< No clock enabled for the perip
ARM GAS  C:\Users\simay\AppData\Local\Temp\cctPq0DA.s 			page 43


 382:Drivers/STM32C0xx_HAL_Driver/Inc/stm32c0xx_ll_rcc.h **** #define LL_RCC_PERIPH_FREQUENCY_NA        0xFFFFFFFFU           /*!< Frequency cannot be provided a
 383:Drivers/STM32C0xx_HAL_Driver/Inc/stm32c0xx_ll_rcc.h **** /**
 384:Drivers/STM32C0xx_HAL_Driver/Inc/stm32c0xx_ll_rcc.h ****   * @}
 385:Drivers/STM32C0xx_HAL_Driver/Inc/stm32c0xx_ll_rcc.h ****   */
 386:Drivers/STM32C0xx_HAL_Driver/Inc/stm32c0xx_ll_rcc.h **** #endif /* USE_FULL_LL_DRIVER */
 387:Drivers/STM32C0xx_HAL_Driver/Inc/stm32c0xx_ll_rcc.h **** 
 388:Drivers/STM32C0xx_HAL_Driver/Inc/stm32c0xx_ll_rcc.h **** /** @defgroup RCC_LL_EC_USARTx_CLKSOURCE  Peripheral USART clock source selection
 389:Drivers/STM32C0xx_HAL_Driver/Inc/stm32c0xx_ll_rcc.h ****   * @{
 390:Drivers/STM32C0xx_HAL_Driver/Inc/stm32c0xx_ll_rcc.h ****   */
 391:Drivers/STM32C0xx_HAL_Driver/Inc/stm32c0xx_ll_rcc.h **** #define LL_RCC_USART1_CLKSOURCE_PCLK1      ((RCC_CCIPR_USART1SEL << 16U) | 0x00000000U)            
 392:Drivers/STM32C0xx_HAL_Driver/Inc/stm32c0xx_ll_rcc.h **** #define LL_RCC_USART1_CLKSOURCE_SYSCLK     ((RCC_CCIPR_USART1SEL << 16U) | RCC_CCIPR_USART1SEL_0)  
 393:Drivers/STM32C0xx_HAL_Driver/Inc/stm32c0xx_ll_rcc.h **** #define LL_RCC_USART1_CLKSOURCE_HSIKER     ((RCC_CCIPR_USART1SEL << 16U) | RCC_CCIPR_USART1SEL_1)  
 394:Drivers/STM32C0xx_HAL_Driver/Inc/stm32c0xx_ll_rcc.h **** #define LL_RCC_USART1_CLKSOURCE_LSE        ((RCC_CCIPR_USART1SEL << 16U) | RCC_CCIPR_USART1SEL)    
 395:Drivers/STM32C0xx_HAL_Driver/Inc/stm32c0xx_ll_rcc.h **** 
 396:Drivers/STM32C0xx_HAL_Driver/Inc/stm32c0xx_ll_rcc.h **** /**
 397:Drivers/STM32C0xx_HAL_Driver/Inc/stm32c0xx_ll_rcc.h ****   * @}
 398:Drivers/STM32C0xx_HAL_Driver/Inc/stm32c0xx_ll_rcc.h ****   */
 399:Drivers/STM32C0xx_HAL_Driver/Inc/stm32c0xx_ll_rcc.h **** 
 400:Drivers/STM32C0xx_HAL_Driver/Inc/stm32c0xx_ll_rcc.h **** 
 401:Drivers/STM32C0xx_HAL_Driver/Inc/stm32c0xx_ll_rcc.h **** /** @defgroup RCC_LL_EC_I2Cx_CLKSOURCE Peripheral I2C clock source selection
 402:Drivers/STM32C0xx_HAL_Driver/Inc/stm32c0xx_ll_rcc.h ****   * @{
 403:Drivers/STM32C0xx_HAL_Driver/Inc/stm32c0xx_ll_rcc.h ****   */
 404:Drivers/STM32C0xx_HAL_Driver/Inc/stm32c0xx_ll_rcc.h **** #define LL_RCC_I2C1_CLKSOURCE_PCLK1        0x00000000U                  /*!< PCLK1 clock used as I2
 405:Drivers/STM32C0xx_HAL_Driver/Inc/stm32c0xx_ll_rcc.h **** #define LL_RCC_I2C1_CLKSOURCE_SYSCLK       RCC_CCIPR_I2C1SEL_0          /*!< SYSCLK clock used as I
 406:Drivers/STM32C0xx_HAL_Driver/Inc/stm32c0xx_ll_rcc.h **** #define LL_RCC_I2C1_CLKSOURCE_HSIKER       RCC_CCIPR_I2C1SEL_1          /*!< HSIKER clock used as I
 407:Drivers/STM32C0xx_HAL_Driver/Inc/stm32c0xx_ll_rcc.h **** #if defined(I2C2)
 408:Drivers/STM32C0xx_HAL_Driver/Inc/stm32c0xx_ll_rcc.h **** #define LL_RCC_I2C2_CLKSOURCE_PCLK1        0x00000000U                  /*!< PCLK1 clock used as I2
 409:Drivers/STM32C0xx_HAL_Driver/Inc/stm32c0xx_ll_rcc.h **** #define LL_RCC_I2C2_CLKSOURCE_SYSCLK       RCC_CCIPR_I2C1SEL_0          /*!< SYSCLK clock used as I
 410:Drivers/STM32C0xx_HAL_Driver/Inc/stm32c0xx_ll_rcc.h **** #define LL_RCC_I2C2_CLKSOURCE_HSIKER       RCC_CCIPR_I2C1SEL_1          /*!< HSIKER clock used as I
 411:Drivers/STM32C0xx_HAL_Driver/Inc/stm32c0xx_ll_rcc.h **** #endif /* I2C2 */
 412:Drivers/STM32C0xx_HAL_Driver/Inc/stm32c0xx_ll_rcc.h **** /**
 413:Drivers/STM32C0xx_HAL_Driver/Inc/stm32c0xx_ll_rcc.h ****   * @}
 414:Drivers/STM32C0xx_HAL_Driver/Inc/stm32c0xx_ll_rcc.h ****   */
 415:Drivers/STM32C0xx_HAL_Driver/Inc/stm32c0xx_ll_rcc.h **** 
 416:Drivers/STM32C0xx_HAL_Driver/Inc/stm32c0xx_ll_rcc.h **** /** @defgroup RCC_LL_EC_I2S1_CLKSOURCE Peripheral I2S clock source selection
 417:Drivers/STM32C0xx_HAL_Driver/Inc/stm32c0xx_ll_rcc.h ****   * @{
 418:Drivers/STM32C0xx_HAL_Driver/Inc/stm32c0xx_ll_rcc.h ****   */
 419:Drivers/STM32C0xx_HAL_Driver/Inc/stm32c0xx_ll_rcc.h **** #define LL_RCC_I2S1_CLKSOURCE_SYSCLK      0x00000000U                  /*!< SYSCLK clock used as I2
 420:Drivers/STM32C0xx_HAL_Driver/Inc/stm32c0xx_ll_rcc.h **** #define LL_RCC_I2S1_CLKSOURCE_HSIKER      RCC_CCIPR_I2S1SEL_1          /*!< HSIKER clock used as I2
 421:Drivers/STM32C0xx_HAL_Driver/Inc/stm32c0xx_ll_rcc.h **** #define LL_RCC_I2S1_CLKSOURCE_PIN         RCC_CCIPR_I2S1SEL            /*!< External clock used as 
 422:Drivers/STM32C0xx_HAL_Driver/Inc/stm32c0xx_ll_rcc.h **** /**
 423:Drivers/STM32C0xx_HAL_Driver/Inc/stm32c0xx_ll_rcc.h ****   * @}
 424:Drivers/STM32C0xx_HAL_Driver/Inc/stm32c0xx_ll_rcc.h ****   */
 425:Drivers/STM32C0xx_HAL_Driver/Inc/stm32c0xx_ll_rcc.h **** 
 426:Drivers/STM32C0xx_HAL_Driver/Inc/stm32c0xx_ll_rcc.h **** /** @defgroup RCC_LL_EC_ADC_CLKSOURCE Peripheral ADC clock source selection
 427:Drivers/STM32C0xx_HAL_Driver/Inc/stm32c0xx_ll_rcc.h ****   * @{
 428:Drivers/STM32C0xx_HAL_Driver/Inc/stm32c0xx_ll_rcc.h ****   */
 429:Drivers/STM32C0xx_HAL_Driver/Inc/stm32c0xx_ll_rcc.h **** #define LL_RCC_ADC_CLKSOURCE_SYSCLK        0x00000000U                   /*!< SYSCLK used as ADC cl
 430:Drivers/STM32C0xx_HAL_Driver/Inc/stm32c0xx_ll_rcc.h **** #define LL_RCC_ADC_CLKSOURCE_HSIKER        RCC_CCIPR_ADCSEL_1            /*!< HSIKER kernel used as
 431:Drivers/STM32C0xx_HAL_Driver/Inc/stm32c0xx_ll_rcc.h **** /**
 432:Drivers/STM32C0xx_HAL_Driver/Inc/stm32c0xx_ll_rcc.h ****   * @}
 433:Drivers/STM32C0xx_HAL_Driver/Inc/stm32c0xx_ll_rcc.h ****   */
 434:Drivers/STM32C0xx_HAL_Driver/Inc/stm32c0xx_ll_rcc.h **** 
 435:Drivers/STM32C0xx_HAL_Driver/Inc/stm32c0xx_ll_rcc.h **** /** @defgroup RCC_LL_EC_USARTx Peripheral USARTx get clock source
 436:Drivers/STM32C0xx_HAL_Driver/Inc/stm32c0xx_ll_rcc.h ****   * @{
 437:Drivers/STM32C0xx_HAL_Driver/Inc/stm32c0xx_ll_rcc.h ****   */
 438:Drivers/STM32C0xx_HAL_Driver/Inc/stm32c0xx_ll_rcc.h **** #define LL_RCC_USART1_CLKSOURCE            RCC_CCIPR_USART1SEL /*!< USART1 Clock source selection *
ARM GAS  C:\Users\simay\AppData\Local\Temp\cctPq0DA.s 			page 44


 439:Drivers/STM32C0xx_HAL_Driver/Inc/stm32c0xx_ll_rcc.h **** /**
 440:Drivers/STM32C0xx_HAL_Driver/Inc/stm32c0xx_ll_rcc.h ****   * @}
 441:Drivers/STM32C0xx_HAL_Driver/Inc/stm32c0xx_ll_rcc.h ****   */
 442:Drivers/STM32C0xx_HAL_Driver/Inc/stm32c0xx_ll_rcc.h **** 
 443:Drivers/STM32C0xx_HAL_Driver/Inc/stm32c0xx_ll_rcc.h **** /** @defgroup RCC_LL_EC_I2C1 Peripheral I2C get clock source
 444:Drivers/STM32C0xx_HAL_Driver/Inc/stm32c0xx_ll_rcc.h ****   * @{
 445:Drivers/STM32C0xx_HAL_Driver/Inc/stm32c0xx_ll_rcc.h ****   */
 446:Drivers/STM32C0xx_HAL_Driver/Inc/stm32c0xx_ll_rcc.h **** #define LL_RCC_I2C1_CLKSOURCE              RCC_CCIPR_I2C1SEL /*!< I2C1 Clock source selection */
 447:Drivers/STM32C0xx_HAL_Driver/Inc/stm32c0xx_ll_rcc.h **** #if defined(I2C2)
 448:Drivers/STM32C0xx_HAL_Driver/Inc/stm32c0xx_ll_rcc.h **** #define LL_RCC_I2C2_CLKSOURCE              RCC_CCIPR_I2C1SEL /*!< I2C2 Clock source selection */
 449:Drivers/STM32C0xx_HAL_Driver/Inc/stm32c0xx_ll_rcc.h **** #endif /* I2C2 */
 450:Drivers/STM32C0xx_HAL_Driver/Inc/stm32c0xx_ll_rcc.h **** /**
 451:Drivers/STM32C0xx_HAL_Driver/Inc/stm32c0xx_ll_rcc.h ****   * @}
 452:Drivers/STM32C0xx_HAL_Driver/Inc/stm32c0xx_ll_rcc.h ****   */
 453:Drivers/STM32C0xx_HAL_Driver/Inc/stm32c0xx_ll_rcc.h **** 
 454:Drivers/STM32C0xx_HAL_Driver/Inc/stm32c0xx_ll_rcc.h **** /** @defgroup RCC_LL_EC_I2S1 Peripheral I2S get clock source
 455:Drivers/STM32C0xx_HAL_Driver/Inc/stm32c0xx_ll_rcc.h ****   * @{
 456:Drivers/STM32C0xx_HAL_Driver/Inc/stm32c0xx_ll_rcc.h ****   */
 457:Drivers/STM32C0xx_HAL_Driver/Inc/stm32c0xx_ll_rcc.h **** #define LL_RCC_I2S1_CLKSOURCE              RCC_CCIPR_I2S1SEL /*!< I2S1 Clock source selection */
 458:Drivers/STM32C0xx_HAL_Driver/Inc/stm32c0xx_ll_rcc.h **** /**
 459:Drivers/STM32C0xx_HAL_Driver/Inc/stm32c0xx_ll_rcc.h ****   * @}
 460:Drivers/STM32C0xx_HAL_Driver/Inc/stm32c0xx_ll_rcc.h ****   */
 461:Drivers/STM32C0xx_HAL_Driver/Inc/stm32c0xx_ll_rcc.h **** 
 462:Drivers/STM32C0xx_HAL_Driver/Inc/stm32c0xx_ll_rcc.h **** /** @defgroup RCC_LL_EC_ADC Peripheral ADC get clock source
 463:Drivers/STM32C0xx_HAL_Driver/Inc/stm32c0xx_ll_rcc.h ****   * @{
 464:Drivers/STM32C0xx_HAL_Driver/Inc/stm32c0xx_ll_rcc.h ****   */
 465:Drivers/STM32C0xx_HAL_Driver/Inc/stm32c0xx_ll_rcc.h **** #define LL_RCC_ADC_CLKSOURCE               RCC_CCIPR_ADCSEL        /*!< ADC Clock source selection 
 466:Drivers/STM32C0xx_HAL_Driver/Inc/stm32c0xx_ll_rcc.h **** /**
 467:Drivers/STM32C0xx_HAL_Driver/Inc/stm32c0xx_ll_rcc.h ****   * @}
 468:Drivers/STM32C0xx_HAL_Driver/Inc/stm32c0xx_ll_rcc.h ****   */
 469:Drivers/STM32C0xx_HAL_Driver/Inc/stm32c0xx_ll_rcc.h **** 
 470:Drivers/STM32C0xx_HAL_Driver/Inc/stm32c0xx_ll_rcc.h **** /** @defgroup RCC_LL_EC_RTC_CLKSOURCE  RTC clock source selection
 471:Drivers/STM32C0xx_HAL_Driver/Inc/stm32c0xx_ll_rcc.h ****   * @{
 472:Drivers/STM32C0xx_HAL_Driver/Inc/stm32c0xx_ll_rcc.h ****   */
 473:Drivers/STM32C0xx_HAL_Driver/Inc/stm32c0xx_ll_rcc.h **** #define LL_RCC_RTC_CLKSOURCE_NONE          0x00000000U             /*!< No clock used as RTC clock 
 474:Drivers/STM32C0xx_HAL_Driver/Inc/stm32c0xx_ll_rcc.h **** #define LL_RCC_RTC_CLKSOURCE_LSE           RCC_CSR1_RTCSEL_0       /*!< LSE oscillator clock used a
 475:Drivers/STM32C0xx_HAL_Driver/Inc/stm32c0xx_ll_rcc.h **** #define LL_RCC_RTC_CLKSOURCE_LSI           RCC_CSR1_RTCSEL_1       /*!< LSI oscillator clock used a
 476:Drivers/STM32C0xx_HAL_Driver/Inc/stm32c0xx_ll_rcc.h **** #define LL_RCC_RTC_CLKSOURCE_HSE_DIV32     RCC_CSR1_RTCSEL         /*!< HSE oscillator clock divide
 477:Drivers/STM32C0xx_HAL_Driver/Inc/stm32c0xx_ll_rcc.h **** /**
 478:Drivers/STM32C0xx_HAL_Driver/Inc/stm32c0xx_ll_rcc.h ****   * @}
 479:Drivers/STM32C0xx_HAL_Driver/Inc/stm32c0xx_ll_rcc.h ****   */
 480:Drivers/STM32C0xx_HAL_Driver/Inc/stm32c0xx_ll_rcc.h **** #if defined(USB_DRD_FS)
 481:Drivers/STM32C0xx_HAL_Driver/Inc/stm32c0xx_ll_rcc.h **** /** @defgroup RCC_LL_EC_USB_CLKSOURCE  Peripheral USB clock source selection
 482:Drivers/STM32C0xx_HAL_Driver/Inc/stm32c0xx_ll_rcc.h ****   * @{
 483:Drivers/STM32C0xx_HAL_Driver/Inc/stm32c0xx_ll_rcc.h ****   */
 484:Drivers/STM32C0xx_HAL_Driver/Inc/stm32c0xx_ll_rcc.h **** #define LL_RCC_USB_CLKSOURCE_HSI48         0x00000000U        /*!< HSI48 clock used as USB clock so
 485:Drivers/STM32C0xx_HAL_Driver/Inc/stm32c0xx_ll_rcc.h **** #define LL_RCC_USB_CLKSOURCE_HSE           RCC_CCIPR2_USBSEL  /*!< HSE clock used as USB clock sour
 486:Drivers/STM32C0xx_HAL_Driver/Inc/stm32c0xx_ll_rcc.h **** /** @defgroup RCC_LL_EC_USB  Peripheral USB get clock source
 487:Drivers/STM32C0xx_HAL_Driver/Inc/stm32c0xx_ll_rcc.h ****   * @{
 488:Drivers/STM32C0xx_HAL_Driver/Inc/stm32c0xx_ll_rcc.h ****   */
 489:Drivers/STM32C0xx_HAL_Driver/Inc/stm32c0xx_ll_rcc.h **** #define LL_RCC_USB_CLKSOURCE               RCC_CCIPR2_USBSEL /*!< USB Clock source selection */
 490:Drivers/STM32C0xx_HAL_Driver/Inc/stm32c0xx_ll_rcc.h **** /**
 491:Drivers/STM32C0xx_HAL_Driver/Inc/stm32c0xx_ll_rcc.h ****   * @}
 492:Drivers/STM32C0xx_HAL_Driver/Inc/stm32c0xx_ll_rcc.h ****   */
 493:Drivers/STM32C0xx_HAL_Driver/Inc/stm32c0xx_ll_rcc.h **** 
 494:Drivers/STM32C0xx_HAL_Driver/Inc/stm32c0xx_ll_rcc.h **** /**
 495:Drivers/STM32C0xx_HAL_Driver/Inc/stm32c0xx_ll_rcc.h ****   * @}
ARM GAS  C:\Users\simay\AppData\Local\Temp\cctPq0DA.s 			page 45


 496:Drivers/STM32C0xx_HAL_Driver/Inc/stm32c0xx_ll_rcc.h ****   */
 497:Drivers/STM32C0xx_HAL_Driver/Inc/stm32c0xx_ll_rcc.h **** #endif /* USB_DRD_FS */
 498:Drivers/STM32C0xx_HAL_Driver/Inc/stm32c0xx_ll_rcc.h **** 
 499:Drivers/STM32C0xx_HAL_Driver/Inc/stm32c0xx_ll_rcc.h **** #if defined(FDCAN1)
 500:Drivers/STM32C0xx_HAL_Driver/Inc/stm32c0xx_ll_rcc.h **** /** @defgroup RCC_LL_EC_FDCAN1_CLKSOURCE  Peripheral FDCAN1 clock source selection
 501:Drivers/STM32C0xx_HAL_Driver/Inc/stm32c0xx_ll_rcc.h ****   * @{
 502:Drivers/STM32C0xx_HAL_Driver/Inc/stm32c0xx_ll_rcc.h ****   */
 503:Drivers/STM32C0xx_HAL_Driver/Inc/stm32c0xx_ll_rcc.h **** #define LL_RCC_FDCAN1_CLKSOURCE_PCLK1         0x00000000U            /*!< PCLK1 clock used as FDCAN
 504:Drivers/STM32C0xx_HAL_Driver/Inc/stm32c0xx_ll_rcc.h **** #define LL_RCC_FDCAN1_CLKSOURCE_HSIKER        RCC_CCIPR_FDCAN1SEL_0  /*!< HSIKER clock used as FDCA
 505:Drivers/STM32C0xx_HAL_Driver/Inc/stm32c0xx_ll_rcc.h **** #define LL_RCC_FDCAN1_CLKSOURCE_HSE           RCC_CCIPR_FDCAN1SEL_1  /*!< HSE clock used as FDCAN1 
 506:Drivers/STM32C0xx_HAL_Driver/Inc/stm32c0xx_ll_rcc.h **** /** @defgroup RCC_LL_EC_FDCAN1  Peripheral FDCAN1 get clock source
 507:Drivers/STM32C0xx_HAL_Driver/Inc/stm32c0xx_ll_rcc.h ****   * @{
 508:Drivers/STM32C0xx_HAL_Driver/Inc/stm32c0xx_ll_rcc.h ****   */
 509:Drivers/STM32C0xx_HAL_Driver/Inc/stm32c0xx_ll_rcc.h **** #define LL_RCC_FDCAN1_CLKSOURCE               RCC_CCIPR_FDCAN1SEL /*!< FDCAN1 Clock source selectio
 510:Drivers/STM32C0xx_HAL_Driver/Inc/stm32c0xx_ll_rcc.h **** /**
 511:Drivers/STM32C0xx_HAL_Driver/Inc/stm32c0xx_ll_rcc.h ****   * @}
 512:Drivers/STM32C0xx_HAL_Driver/Inc/stm32c0xx_ll_rcc.h ****   */
 513:Drivers/STM32C0xx_HAL_Driver/Inc/stm32c0xx_ll_rcc.h **** 
 514:Drivers/STM32C0xx_HAL_Driver/Inc/stm32c0xx_ll_rcc.h **** /**
 515:Drivers/STM32C0xx_HAL_Driver/Inc/stm32c0xx_ll_rcc.h ****   * @}
 516:Drivers/STM32C0xx_HAL_Driver/Inc/stm32c0xx_ll_rcc.h ****   */
 517:Drivers/STM32C0xx_HAL_Driver/Inc/stm32c0xx_ll_rcc.h **** #endif /* FDCAN1 */
 518:Drivers/STM32C0xx_HAL_Driver/Inc/stm32c0xx_ll_rcc.h **** /**
 519:Drivers/STM32C0xx_HAL_Driver/Inc/stm32c0xx_ll_rcc.h ****   * @}
 520:Drivers/STM32C0xx_HAL_Driver/Inc/stm32c0xx_ll_rcc.h ****   */
 521:Drivers/STM32C0xx_HAL_Driver/Inc/stm32c0xx_ll_rcc.h **** 
 522:Drivers/STM32C0xx_HAL_Driver/Inc/stm32c0xx_ll_rcc.h **** /* Exported macro ------------------------------------------------------------*/
 523:Drivers/STM32C0xx_HAL_Driver/Inc/stm32c0xx_ll_rcc.h **** /** @defgroup RCC_LL_Exported_Macros RCC Exported Macros
 524:Drivers/STM32C0xx_HAL_Driver/Inc/stm32c0xx_ll_rcc.h ****   * @{
 525:Drivers/STM32C0xx_HAL_Driver/Inc/stm32c0xx_ll_rcc.h ****   */
 526:Drivers/STM32C0xx_HAL_Driver/Inc/stm32c0xx_ll_rcc.h **** 
 527:Drivers/STM32C0xx_HAL_Driver/Inc/stm32c0xx_ll_rcc.h **** /** @defgroup RCC_LL_EM_WRITE_READ Common Write and read registers Macros
 528:Drivers/STM32C0xx_HAL_Driver/Inc/stm32c0xx_ll_rcc.h ****   * @{
 529:Drivers/STM32C0xx_HAL_Driver/Inc/stm32c0xx_ll_rcc.h ****   */
 530:Drivers/STM32C0xx_HAL_Driver/Inc/stm32c0xx_ll_rcc.h **** 
 531:Drivers/STM32C0xx_HAL_Driver/Inc/stm32c0xx_ll_rcc.h **** /**
 532:Drivers/STM32C0xx_HAL_Driver/Inc/stm32c0xx_ll_rcc.h ****   * @brief  Write a value in RCC register
 533:Drivers/STM32C0xx_HAL_Driver/Inc/stm32c0xx_ll_rcc.h ****   * @param  __REG__ Register to be written
 534:Drivers/STM32C0xx_HAL_Driver/Inc/stm32c0xx_ll_rcc.h ****   * @param  __VALUE__ Value to be written in the register
 535:Drivers/STM32C0xx_HAL_Driver/Inc/stm32c0xx_ll_rcc.h ****   * @retval None
 536:Drivers/STM32C0xx_HAL_Driver/Inc/stm32c0xx_ll_rcc.h ****   */
 537:Drivers/STM32C0xx_HAL_Driver/Inc/stm32c0xx_ll_rcc.h **** #define LL_RCC_WriteReg(__REG__, __VALUE__) WRITE_REG((RCC->__REG__), (__VALUE__))
 538:Drivers/STM32C0xx_HAL_Driver/Inc/stm32c0xx_ll_rcc.h **** 
 539:Drivers/STM32C0xx_HAL_Driver/Inc/stm32c0xx_ll_rcc.h **** /**
 540:Drivers/STM32C0xx_HAL_Driver/Inc/stm32c0xx_ll_rcc.h ****   * @brief  Read a value in RCC register
 541:Drivers/STM32C0xx_HAL_Driver/Inc/stm32c0xx_ll_rcc.h ****   * @param  __REG__ Register to be read
 542:Drivers/STM32C0xx_HAL_Driver/Inc/stm32c0xx_ll_rcc.h ****   * @retval Register value
 543:Drivers/STM32C0xx_HAL_Driver/Inc/stm32c0xx_ll_rcc.h ****   */
 544:Drivers/STM32C0xx_HAL_Driver/Inc/stm32c0xx_ll_rcc.h **** #define LL_RCC_ReadReg(__REG__) READ_REG(RCC->__REG__)
 545:Drivers/STM32C0xx_HAL_Driver/Inc/stm32c0xx_ll_rcc.h **** /**
 546:Drivers/STM32C0xx_HAL_Driver/Inc/stm32c0xx_ll_rcc.h ****   * @}
 547:Drivers/STM32C0xx_HAL_Driver/Inc/stm32c0xx_ll_rcc.h ****   */
 548:Drivers/STM32C0xx_HAL_Driver/Inc/stm32c0xx_ll_rcc.h **** 
 549:Drivers/STM32C0xx_HAL_Driver/Inc/stm32c0xx_ll_rcc.h **** /**
 550:Drivers/STM32C0xx_HAL_Driver/Inc/stm32c0xx_ll_rcc.h ****   * @brief  Helper macro to calculate the HCLK frequency
 551:Drivers/STM32C0xx_HAL_Driver/Inc/stm32c0xx_ll_rcc.h ****   * @param  __SYSCLKFREQ__ SYSCLK frequency (based on HSE/HSI/LSE/LSI)
 552:Drivers/STM32C0xx_HAL_Driver/Inc/stm32c0xx_ll_rcc.h ****   * @param  __AHBPRESCALER__ This parameter can be one of the following values:
ARM GAS  C:\Users\simay\AppData\Local\Temp\cctPq0DA.s 			page 46


 553:Drivers/STM32C0xx_HAL_Driver/Inc/stm32c0xx_ll_rcc.h ****   *         @arg @ref LL_RCC_HCLK_DIV_1
 554:Drivers/STM32C0xx_HAL_Driver/Inc/stm32c0xx_ll_rcc.h ****   *         @arg @ref LL_RCC_HCLK_DIV_2
 555:Drivers/STM32C0xx_HAL_Driver/Inc/stm32c0xx_ll_rcc.h ****   *         @arg @ref LL_RCC_HCLK_DIV_4
 556:Drivers/STM32C0xx_HAL_Driver/Inc/stm32c0xx_ll_rcc.h ****   *         @arg @ref LL_RCC_HCLK_DIV_8
 557:Drivers/STM32C0xx_HAL_Driver/Inc/stm32c0xx_ll_rcc.h ****   *         @arg @ref LL_RCC_HCLK_DIV_16
 558:Drivers/STM32C0xx_HAL_Driver/Inc/stm32c0xx_ll_rcc.h ****   *         @arg @ref LL_RCC_HCLK_DIV_64
 559:Drivers/STM32C0xx_HAL_Driver/Inc/stm32c0xx_ll_rcc.h ****   *         @arg @ref LL_RCC_HCLK_DIV_128
 560:Drivers/STM32C0xx_HAL_Driver/Inc/stm32c0xx_ll_rcc.h ****   *         @arg @ref LL_RCC_HCLK_DIV_256
 561:Drivers/STM32C0xx_HAL_Driver/Inc/stm32c0xx_ll_rcc.h ****   *         @arg @ref LL_RCC_HCLK_DIV_512
 562:Drivers/STM32C0xx_HAL_Driver/Inc/stm32c0xx_ll_rcc.h ****   * @retval HCLK clock frequency (in Hz)
 563:Drivers/STM32C0xx_HAL_Driver/Inc/stm32c0xx_ll_rcc.h ****   */
 564:Drivers/STM32C0xx_HAL_Driver/Inc/stm32c0xx_ll_rcc.h **** #define __LL_RCC_CALC_HCLK_FREQ(__SYSCLKFREQ__,__AHBPRESCALER__) \
 565:Drivers/STM32C0xx_HAL_Driver/Inc/stm32c0xx_ll_rcc.h ****   ((__SYSCLKFREQ__) >> (AHBPrescTable[((__AHBPRESCALER__)\
 566:Drivers/STM32C0xx_HAL_Driver/Inc/stm32c0xx_ll_rcc.h ****                                        & RCC_CFGR_HPRE) >>  RCC_CFGR_HPRE_Pos] & 0x1FU))
 567:Drivers/STM32C0xx_HAL_Driver/Inc/stm32c0xx_ll_rcc.h **** 
 568:Drivers/STM32C0xx_HAL_Driver/Inc/stm32c0xx_ll_rcc.h **** /**
 569:Drivers/STM32C0xx_HAL_Driver/Inc/stm32c0xx_ll_rcc.h ****   * @brief  Helper macro to calculate the PCLK1 frequency (APB1)
 570:Drivers/STM32C0xx_HAL_Driver/Inc/stm32c0xx_ll_rcc.h ****   * @param  __HCLKFREQ__ HCLK frequency
 571:Drivers/STM32C0xx_HAL_Driver/Inc/stm32c0xx_ll_rcc.h ****   * @param  __APB1PRESCALER__ This parameter can be one of the following values:
 572:Drivers/STM32C0xx_HAL_Driver/Inc/stm32c0xx_ll_rcc.h ****   *         @arg @ref LL_RCC_APB1_DIV_1
 573:Drivers/STM32C0xx_HAL_Driver/Inc/stm32c0xx_ll_rcc.h ****   *         @arg @ref LL_RCC_APB1_DIV_2
 574:Drivers/STM32C0xx_HAL_Driver/Inc/stm32c0xx_ll_rcc.h ****   *         @arg @ref LL_RCC_APB1_DIV_4
 575:Drivers/STM32C0xx_HAL_Driver/Inc/stm32c0xx_ll_rcc.h ****   *         @arg @ref LL_RCC_APB1_DIV_8
 576:Drivers/STM32C0xx_HAL_Driver/Inc/stm32c0xx_ll_rcc.h ****   *         @arg @ref LL_RCC_APB1_DIV_16
 577:Drivers/STM32C0xx_HAL_Driver/Inc/stm32c0xx_ll_rcc.h ****   * @retval PCLK1 clock frequency (in Hz)
 578:Drivers/STM32C0xx_HAL_Driver/Inc/stm32c0xx_ll_rcc.h ****   */
 579:Drivers/STM32C0xx_HAL_Driver/Inc/stm32c0xx_ll_rcc.h **** #define __LL_RCC_CALC_PCLK1_FREQ(__HCLKFREQ__, __APB1PRESCALER__) \
 580:Drivers/STM32C0xx_HAL_Driver/Inc/stm32c0xx_ll_rcc.h ****   ((__HCLKFREQ__) >> (APBPrescTable[(__APB1PRESCALER__) >>  RCC_CFGR_PPRE_Pos]\
 581:Drivers/STM32C0xx_HAL_Driver/Inc/stm32c0xx_ll_rcc.h ****                       & 0x1FU))
 582:Drivers/STM32C0xx_HAL_Driver/Inc/stm32c0xx_ll_rcc.h **** 
 583:Drivers/STM32C0xx_HAL_Driver/Inc/stm32c0xx_ll_rcc.h **** /**
 584:Drivers/STM32C0xx_HAL_Driver/Inc/stm32c0xx_ll_rcc.h ****   * @brief  Helper macro to calculate the HSISYS frequency
 585:Drivers/STM32C0xx_HAL_Driver/Inc/stm32c0xx_ll_rcc.h ****   * @param  __HSIDIV__ This parameter can be one of the following values:
 586:Drivers/STM32C0xx_HAL_Driver/Inc/stm32c0xx_ll_rcc.h ****   *         @arg @ref LL_RCC_HSI_DIV_1
 587:Drivers/STM32C0xx_HAL_Driver/Inc/stm32c0xx_ll_rcc.h ****   *         @arg @ref LL_RCC_HSI_DIV_2
 588:Drivers/STM32C0xx_HAL_Driver/Inc/stm32c0xx_ll_rcc.h ****   *         @arg @ref LL_RCC_HSI_DIV_4
 589:Drivers/STM32C0xx_HAL_Driver/Inc/stm32c0xx_ll_rcc.h ****   *         @arg @ref LL_RCC_HSI_DIV_8
 590:Drivers/STM32C0xx_HAL_Driver/Inc/stm32c0xx_ll_rcc.h ****   *         @arg @ref LL_RCC_HSI_DIV_16
 591:Drivers/STM32C0xx_HAL_Driver/Inc/stm32c0xx_ll_rcc.h ****   *         @arg @ref LL_RCC_HSI_DIV_32
 592:Drivers/STM32C0xx_HAL_Driver/Inc/stm32c0xx_ll_rcc.h ****   *         @arg @ref LL_RCC_HSI_DIV_64
 593:Drivers/STM32C0xx_HAL_Driver/Inc/stm32c0xx_ll_rcc.h ****   *         @arg @ref LL_RCC_HSI_DIV_128
 594:Drivers/STM32C0xx_HAL_Driver/Inc/stm32c0xx_ll_rcc.h ****   * @retval HSISYS clock frequency (in Hz)
 595:Drivers/STM32C0xx_HAL_Driver/Inc/stm32c0xx_ll_rcc.h ****   */
 596:Drivers/STM32C0xx_HAL_Driver/Inc/stm32c0xx_ll_rcc.h **** #define __LL_RCC_CALC_HSI_FREQ(__HSIDIV__) (HSI_VALUE / (1U << ((__HSIDIV__)>> RCC_CR_HSIDIV_Pos)))
 597:Drivers/STM32C0xx_HAL_Driver/Inc/stm32c0xx_ll_rcc.h **** 
 598:Drivers/STM32C0xx_HAL_Driver/Inc/stm32c0xx_ll_rcc.h **** /**
 599:Drivers/STM32C0xx_HAL_Driver/Inc/stm32c0xx_ll_rcc.h ****   * @brief  Helper macro to calculate the HSI Kernel frequency
 600:Drivers/STM32C0xx_HAL_Driver/Inc/stm32c0xx_ll_rcc.h ****   * @param  __HSIKERDIV__ This parameter can be one of the following values:
 601:Drivers/STM32C0xx_HAL_Driver/Inc/stm32c0xx_ll_rcc.h ****   *         @arg @ref LL_RCC_HSIKER_DIV_1
 602:Drivers/STM32C0xx_HAL_Driver/Inc/stm32c0xx_ll_rcc.h ****   *         @arg @ref LL_RCC_HSIKER_DIV_2
 603:Drivers/STM32C0xx_HAL_Driver/Inc/stm32c0xx_ll_rcc.h ****   *         @arg @ref LL_RCC_HSIKER_DIV_3
 604:Drivers/STM32C0xx_HAL_Driver/Inc/stm32c0xx_ll_rcc.h ****   *         @arg @ref LL_RCC_HSIKER_DIV_4
 605:Drivers/STM32C0xx_HAL_Driver/Inc/stm32c0xx_ll_rcc.h ****   *         @arg @ref LL_RCC_HSIKER_DIV_5
 606:Drivers/STM32C0xx_HAL_Driver/Inc/stm32c0xx_ll_rcc.h ****   *         @arg @ref LL_RCC_HSIKER_DIV_6
 607:Drivers/STM32C0xx_HAL_Driver/Inc/stm32c0xx_ll_rcc.h ****   *         @arg @ref LL_RCC_HSIKER_DIV_7
 608:Drivers/STM32C0xx_HAL_Driver/Inc/stm32c0xx_ll_rcc.h ****   *         @arg @ref LL_RCC_HSIKER_DIV_8
 609:Drivers/STM32C0xx_HAL_Driver/Inc/stm32c0xx_ll_rcc.h ****   * @retval HSIKER clock frequency (in Hz)
ARM GAS  C:\Users\simay\AppData\Local\Temp\cctPq0DA.s 			page 47


 610:Drivers/STM32C0xx_HAL_Driver/Inc/stm32c0xx_ll_rcc.h ****   */
 611:Drivers/STM32C0xx_HAL_Driver/Inc/stm32c0xx_ll_rcc.h **** #define __LL_RCC_CALC_HSIKER_FREQ(__HSIKERDIV__) (HSI_VALUE / (((__HSIKERDIV__)>> RCC_CR_HSIKERDIV_
 612:Drivers/STM32C0xx_HAL_Driver/Inc/stm32c0xx_ll_rcc.h **** /**
 613:Drivers/STM32C0xx_HAL_Driver/Inc/stm32c0xx_ll_rcc.h ****   * @}
 614:Drivers/STM32C0xx_HAL_Driver/Inc/stm32c0xx_ll_rcc.h ****   */
 615:Drivers/STM32C0xx_HAL_Driver/Inc/stm32c0xx_ll_rcc.h **** 
 616:Drivers/STM32C0xx_HAL_Driver/Inc/stm32c0xx_ll_rcc.h **** 
 617:Drivers/STM32C0xx_HAL_Driver/Inc/stm32c0xx_ll_rcc.h **** /* Exported functions --------------------------------------------------------*/
 618:Drivers/STM32C0xx_HAL_Driver/Inc/stm32c0xx_ll_rcc.h **** /** @defgroup RCC_LL_Exported_Functions RCC Exported Functions
 619:Drivers/STM32C0xx_HAL_Driver/Inc/stm32c0xx_ll_rcc.h ****   * @{
 620:Drivers/STM32C0xx_HAL_Driver/Inc/stm32c0xx_ll_rcc.h ****   */
 621:Drivers/STM32C0xx_HAL_Driver/Inc/stm32c0xx_ll_rcc.h **** 
 622:Drivers/STM32C0xx_HAL_Driver/Inc/stm32c0xx_ll_rcc.h **** /** @defgroup RCC_LL_EF_HSE HSE
 623:Drivers/STM32C0xx_HAL_Driver/Inc/stm32c0xx_ll_rcc.h ****   * @{
 624:Drivers/STM32C0xx_HAL_Driver/Inc/stm32c0xx_ll_rcc.h ****   */
 625:Drivers/STM32C0xx_HAL_Driver/Inc/stm32c0xx_ll_rcc.h **** 
 626:Drivers/STM32C0xx_HAL_Driver/Inc/stm32c0xx_ll_rcc.h **** /**
 627:Drivers/STM32C0xx_HAL_Driver/Inc/stm32c0xx_ll_rcc.h ****   * @brief  Enable the Clock Security System.
 628:Drivers/STM32C0xx_HAL_Driver/Inc/stm32c0xx_ll_rcc.h ****   * @rmtoll CR           CSSON         LL_RCC_HSE_EnableCSS
 629:Drivers/STM32C0xx_HAL_Driver/Inc/stm32c0xx_ll_rcc.h ****   * @retval None
 630:Drivers/STM32C0xx_HAL_Driver/Inc/stm32c0xx_ll_rcc.h ****   */
 631:Drivers/STM32C0xx_HAL_Driver/Inc/stm32c0xx_ll_rcc.h **** __STATIC_INLINE void LL_RCC_HSE_EnableCSS(void)
 632:Drivers/STM32C0xx_HAL_Driver/Inc/stm32c0xx_ll_rcc.h **** {
 633:Drivers/STM32C0xx_HAL_Driver/Inc/stm32c0xx_ll_rcc.h ****   SET_BIT(RCC->CR, RCC_CR_CSSON);
 634:Drivers/STM32C0xx_HAL_Driver/Inc/stm32c0xx_ll_rcc.h **** }
 635:Drivers/STM32C0xx_HAL_Driver/Inc/stm32c0xx_ll_rcc.h **** 
 636:Drivers/STM32C0xx_HAL_Driver/Inc/stm32c0xx_ll_rcc.h **** /**
 637:Drivers/STM32C0xx_HAL_Driver/Inc/stm32c0xx_ll_rcc.h ****   * @brief  Enable HSE external oscillator (HSE Bypass)
 638:Drivers/STM32C0xx_HAL_Driver/Inc/stm32c0xx_ll_rcc.h ****   * @rmtoll CR           HSEBYP        LL_RCC_HSE_EnableBypass
 639:Drivers/STM32C0xx_HAL_Driver/Inc/stm32c0xx_ll_rcc.h ****   * @retval None
 640:Drivers/STM32C0xx_HAL_Driver/Inc/stm32c0xx_ll_rcc.h ****   */
 641:Drivers/STM32C0xx_HAL_Driver/Inc/stm32c0xx_ll_rcc.h **** __STATIC_INLINE void LL_RCC_HSE_EnableBypass(void)
 642:Drivers/STM32C0xx_HAL_Driver/Inc/stm32c0xx_ll_rcc.h **** {
 643:Drivers/STM32C0xx_HAL_Driver/Inc/stm32c0xx_ll_rcc.h ****   SET_BIT(RCC->CR, RCC_CR_HSEBYP);
 644:Drivers/STM32C0xx_HAL_Driver/Inc/stm32c0xx_ll_rcc.h **** }
 645:Drivers/STM32C0xx_HAL_Driver/Inc/stm32c0xx_ll_rcc.h **** 
 646:Drivers/STM32C0xx_HAL_Driver/Inc/stm32c0xx_ll_rcc.h **** /**
 647:Drivers/STM32C0xx_HAL_Driver/Inc/stm32c0xx_ll_rcc.h ****   * @brief  Disable HSE external oscillator (HSE Bypass)
 648:Drivers/STM32C0xx_HAL_Driver/Inc/stm32c0xx_ll_rcc.h ****   * @rmtoll CR           HSEBYP        LL_RCC_HSE_DisableBypass
 649:Drivers/STM32C0xx_HAL_Driver/Inc/stm32c0xx_ll_rcc.h ****   * @retval None
 650:Drivers/STM32C0xx_HAL_Driver/Inc/stm32c0xx_ll_rcc.h ****   */
 651:Drivers/STM32C0xx_HAL_Driver/Inc/stm32c0xx_ll_rcc.h **** __STATIC_INLINE void LL_RCC_HSE_DisableBypass(void)
 652:Drivers/STM32C0xx_HAL_Driver/Inc/stm32c0xx_ll_rcc.h **** {
 653:Drivers/STM32C0xx_HAL_Driver/Inc/stm32c0xx_ll_rcc.h ****   CLEAR_BIT(RCC->CR, RCC_CR_HSEBYP);
 654:Drivers/STM32C0xx_HAL_Driver/Inc/stm32c0xx_ll_rcc.h **** }
 655:Drivers/STM32C0xx_HAL_Driver/Inc/stm32c0xx_ll_rcc.h **** 
 656:Drivers/STM32C0xx_HAL_Driver/Inc/stm32c0xx_ll_rcc.h **** /**
 657:Drivers/STM32C0xx_HAL_Driver/Inc/stm32c0xx_ll_rcc.h ****   * @brief  Enable HSE crystal oscillator (HSE ON)
 658:Drivers/STM32C0xx_HAL_Driver/Inc/stm32c0xx_ll_rcc.h ****   * @rmtoll CR           HSEON         LL_RCC_HSE_Enable
 659:Drivers/STM32C0xx_HAL_Driver/Inc/stm32c0xx_ll_rcc.h ****   * @retval None
 660:Drivers/STM32C0xx_HAL_Driver/Inc/stm32c0xx_ll_rcc.h ****   */
 661:Drivers/STM32C0xx_HAL_Driver/Inc/stm32c0xx_ll_rcc.h **** __STATIC_INLINE void LL_RCC_HSE_Enable(void)
 662:Drivers/STM32C0xx_HAL_Driver/Inc/stm32c0xx_ll_rcc.h **** {
 663:Drivers/STM32C0xx_HAL_Driver/Inc/stm32c0xx_ll_rcc.h ****   SET_BIT(RCC->CR, RCC_CR_HSEON);
 664:Drivers/STM32C0xx_HAL_Driver/Inc/stm32c0xx_ll_rcc.h **** }
 665:Drivers/STM32C0xx_HAL_Driver/Inc/stm32c0xx_ll_rcc.h **** 
 666:Drivers/STM32C0xx_HAL_Driver/Inc/stm32c0xx_ll_rcc.h **** /**
ARM GAS  C:\Users\simay\AppData\Local\Temp\cctPq0DA.s 			page 48


 667:Drivers/STM32C0xx_HAL_Driver/Inc/stm32c0xx_ll_rcc.h ****   * @brief  Disable HSE crystal oscillator (HSE ON)
 668:Drivers/STM32C0xx_HAL_Driver/Inc/stm32c0xx_ll_rcc.h ****   * @rmtoll CR           HSEON         LL_RCC_HSE_Disable
 669:Drivers/STM32C0xx_HAL_Driver/Inc/stm32c0xx_ll_rcc.h ****   * @retval None
 670:Drivers/STM32C0xx_HAL_Driver/Inc/stm32c0xx_ll_rcc.h ****   */
 671:Drivers/STM32C0xx_HAL_Driver/Inc/stm32c0xx_ll_rcc.h **** __STATIC_INLINE void LL_RCC_HSE_Disable(void)
 672:Drivers/STM32C0xx_HAL_Driver/Inc/stm32c0xx_ll_rcc.h **** {
 673:Drivers/STM32C0xx_HAL_Driver/Inc/stm32c0xx_ll_rcc.h ****   CLEAR_BIT(RCC->CR, RCC_CR_HSEON);
 674:Drivers/STM32C0xx_HAL_Driver/Inc/stm32c0xx_ll_rcc.h **** }
 675:Drivers/STM32C0xx_HAL_Driver/Inc/stm32c0xx_ll_rcc.h **** 
 676:Drivers/STM32C0xx_HAL_Driver/Inc/stm32c0xx_ll_rcc.h **** /**
 677:Drivers/STM32C0xx_HAL_Driver/Inc/stm32c0xx_ll_rcc.h ****   * @brief  Check if HSE oscillator Ready
 678:Drivers/STM32C0xx_HAL_Driver/Inc/stm32c0xx_ll_rcc.h ****   * @rmtoll CR           HSERDY        LL_RCC_HSE_IsReady
 679:Drivers/STM32C0xx_HAL_Driver/Inc/stm32c0xx_ll_rcc.h ****   * @retval State of bit (1 or 0).
 680:Drivers/STM32C0xx_HAL_Driver/Inc/stm32c0xx_ll_rcc.h ****   */
 681:Drivers/STM32C0xx_HAL_Driver/Inc/stm32c0xx_ll_rcc.h **** __STATIC_INLINE uint32_t LL_RCC_HSE_IsReady(void)
 682:Drivers/STM32C0xx_HAL_Driver/Inc/stm32c0xx_ll_rcc.h **** {
 683:Drivers/STM32C0xx_HAL_Driver/Inc/stm32c0xx_ll_rcc.h ****   return ((READ_BIT(RCC->CR, RCC_CR_HSERDY) == (RCC_CR_HSERDY)) ? 1UL : 0UL);
 684:Drivers/STM32C0xx_HAL_Driver/Inc/stm32c0xx_ll_rcc.h **** }
 685:Drivers/STM32C0xx_HAL_Driver/Inc/stm32c0xx_ll_rcc.h **** 
 686:Drivers/STM32C0xx_HAL_Driver/Inc/stm32c0xx_ll_rcc.h **** /**
 687:Drivers/STM32C0xx_HAL_Driver/Inc/stm32c0xx_ll_rcc.h ****   * @}
 688:Drivers/STM32C0xx_HAL_Driver/Inc/stm32c0xx_ll_rcc.h ****   */
 689:Drivers/STM32C0xx_HAL_Driver/Inc/stm32c0xx_ll_rcc.h **** 
 690:Drivers/STM32C0xx_HAL_Driver/Inc/stm32c0xx_ll_rcc.h **** /** @defgroup RCC_LL_EF_HSI HSI
 691:Drivers/STM32C0xx_HAL_Driver/Inc/stm32c0xx_ll_rcc.h ****   * @{
 692:Drivers/STM32C0xx_HAL_Driver/Inc/stm32c0xx_ll_rcc.h ****   */
 693:Drivers/STM32C0xx_HAL_Driver/Inc/stm32c0xx_ll_rcc.h **** 
 694:Drivers/STM32C0xx_HAL_Driver/Inc/stm32c0xx_ll_rcc.h **** /**
 695:Drivers/STM32C0xx_HAL_Driver/Inc/stm32c0xx_ll_rcc.h ****   * @brief  Enable HSI even in stop mode
 696:Drivers/STM32C0xx_HAL_Driver/Inc/stm32c0xx_ll_rcc.h ****   * @note HSI oscillator is forced ON even in Stop mode
 697:Drivers/STM32C0xx_HAL_Driver/Inc/stm32c0xx_ll_rcc.h ****   * @rmtoll CR           HSIKERON      LL_RCC_HSI_EnableInStopMode
 698:Drivers/STM32C0xx_HAL_Driver/Inc/stm32c0xx_ll_rcc.h ****   * @retval None
 699:Drivers/STM32C0xx_HAL_Driver/Inc/stm32c0xx_ll_rcc.h ****   */
 700:Drivers/STM32C0xx_HAL_Driver/Inc/stm32c0xx_ll_rcc.h **** __STATIC_INLINE void LL_RCC_HSI_EnableInStopMode(void)
 701:Drivers/STM32C0xx_HAL_Driver/Inc/stm32c0xx_ll_rcc.h **** {
 702:Drivers/STM32C0xx_HAL_Driver/Inc/stm32c0xx_ll_rcc.h ****   SET_BIT(RCC->CR, RCC_CR_HSIKERON);
 703:Drivers/STM32C0xx_HAL_Driver/Inc/stm32c0xx_ll_rcc.h **** }
 704:Drivers/STM32C0xx_HAL_Driver/Inc/stm32c0xx_ll_rcc.h **** 
 705:Drivers/STM32C0xx_HAL_Driver/Inc/stm32c0xx_ll_rcc.h **** /**
 706:Drivers/STM32C0xx_HAL_Driver/Inc/stm32c0xx_ll_rcc.h ****   * @brief  Disable HSI in stop mode
 707:Drivers/STM32C0xx_HAL_Driver/Inc/stm32c0xx_ll_rcc.h ****   * @rmtoll CR           HSIKERON      LL_RCC_HSI_DisableInStopMode
 708:Drivers/STM32C0xx_HAL_Driver/Inc/stm32c0xx_ll_rcc.h ****   * @retval None
 709:Drivers/STM32C0xx_HAL_Driver/Inc/stm32c0xx_ll_rcc.h ****   */
 710:Drivers/STM32C0xx_HAL_Driver/Inc/stm32c0xx_ll_rcc.h **** __STATIC_INLINE void LL_RCC_HSI_DisableInStopMode(void)
 711:Drivers/STM32C0xx_HAL_Driver/Inc/stm32c0xx_ll_rcc.h **** {
 712:Drivers/STM32C0xx_HAL_Driver/Inc/stm32c0xx_ll_rcc.h ****   CLEAR_BIT(RCC->CR, RCC_CR_HSIKERON);
 713:Drivers/STM32C0xx_HAL_Driver/Inc/stm32c0xx_ll_rcc.h **** }
 714:Drivers/STM32C0xx_HAL_Driver/Inc/stm32c0xx_ll_rcc.h **** 
 715:Drivers/STM32C0xx_HAL_Driver/Inc/stm32c0xx_ll_rcc.h **** /**
 716:Drivers/STM32C0xx_HAL_Driver/Inc/stm32c0xx_ll_rcc.h ****   * @brief  Check if HSI in stop mode is enabled
 717:Drivers/STM32C0xx_HAL_Driver/Inc/stm32c0xx_ll_rcc.h ****   * @rmtoll CR           HSIKERON        LL_RCC_HSI_IsEnabledInStopMode
 718:Drivers/STM32C0xx_HAL_Driver/Inc/stm32c0xx_ll_rcc.h ****   * @retval State of bit (1 or 0).
 719:Drivers/STM32C0xx_HAL_Driver/Inc/stm32c0xx_ll_rcc.h ****   */
 720:Drivers/STM32C0xx_HAL_Driver/Inc/stm32c0xx_ll_rcc.h **** __STATIC_INLINE uint32_t LL_RCC_HSI_IsEnabledInStopMode(void)
 721:Drivers/STM32C0xx_HAL_Driver/Inc/stm32c0xx_ll_rcc.h **** {
 722:Drivers/STM32C0xx_HAL_Driver/Inc/stm32c0xx_ll_rcc.h ****   return ((READ_BIT(RCC->CR, RCC_CR_HSIKERON) == (RCC_CR_HSIKERON)) ? 1UL : 0UL);
 723:Drivers/STM32C0xx_HAL_Driver/Inc/stm32c0xx_ll_rcc.h **** }
ARM GAS  C:\Users\simay\AppData\Local\Temp\cctPq0DA.s 			page 49


 724:Drivers/STM32C0xx_HAL_Driver/Inc/stm32c0xx_ll_rcc.h **** 
 725:Drivers/STM32C0xx_HAL_Driver/Inc/stm32c0xx_ll_rcc.h **** /**
 726:Drivers/STM32C0xx_HAL_Driver/Inc/stm32c0xx_ll_rcc.h ****   * @brief  Set HSIKER divider
 727:Drivers/STM32C0xx_HAL_Driver/Inc/stm32c0xx_ll_rcc.h ****   * @rmtoll CR           HSIKERDIV        LL_RCC_HSIKER_SetDivider
 728:Drivers/STM32C0xx_HAL_Driver/Inc/stm32c0xx_ll_rcc.h ****   * @param  Divider This parameter can be one of the following values:
 729:Drivers/STM32C0xx_HAL_Driver/Inc/stm32c0xx_ll_rcc.h ****   *         @arg @ref LL_RCC_HSIKER_DIV_1
 730:Drivers/STM32C0xx_HAL_Driver/Inc/stm32c0xx_ll_rcc.h ****   *         @arg @ref LL_RCC_HSIKER_DIV_2
 731:Drivers/STM32C0xx_HAL_Driver/Inc/stm32c0xx_ll_rcc.h ****   *         @arg @ref LL_RCC_HSIKER_DIV_3
 732:Drivers/STM32C0xx_HAL_Driver/Inc/stm32c0xx_ll_rcc.h ****   *         @arg @ref LL_RCC_HSIKER_DIV_4
 733:Drivers/STM32C0xx_HAL_Driver/Inc/stm32c0xx_ll_rcc.h ****   *         @arg @ref LL_RCC_HSIKER_DIV_5
 734:Drivers/STM32C0xx_HAL_Driver/Inc/stm32c0xx_ll_rcc.h ****   *         @arg @ref LL_RCC_HSIKER_DIV_6
 735:Drivers/STM32C0xx_HAL_Driver/Inc/stm32c0xx_ll_rcc.h ****   *         @arg @ref LL_RCC_HSIKER_DIV_7
 736:Drivers/STM32C0xx_HAL_Driver/Inc/stm32c0xx_ll_rcc.h ****   *         @arg @ref LL_RCC_HSIKER_DIV_8
 737:Drivers/STM32C0xx_HAL_Driver/Inc/stm32c0xx_ll_rcc.h ****   * @retval None.
 738:Drivers/STM32C0xx_HAL_Driver/Inc/stm32c0xx_ll_rcc.h ****   */
 739:Drivers/STM32C0xx_HAL_Driver/Inc/stm32c0xx_ll_rcc.h **** __STATIC_INLINE void LL_RCC_HSIKER_SetDivider(uint32_t Divider)
 740:Drivers/STM32C0xx_HAL_Driver/Inc/stm32c0xx_ll_rcc.h **** {
 741:Drivers/STM32C0xx_HAL_Driver/Inc/stm32c0xx_ll_rcc.h ****   MODIFY_REG(RCC->CR, RCC_CR_HSIKERDIV, Divider);
 742:Drivers/STM32C0xx_HAL_Driver/Inc/stm32c0xx_ll_rcc.h **** }
 743:Drivers/STM32C0xx_HAL_Driver/Inc/stm32c0xx_ll_rcc.h **** 
 744:Drivers/STM32C0xx_HAL_Driver/Inc/stm32c0xx_ll_rcc.h **** /**
 745:Drivers/STM32C0xx_HAL_Driver/Inc/stm32c0xx_ll_rcc.h ****   * @brief  Get HSIKER divider
 746:Drivers/STM32C0xx_HAL_Driver/Inc/stm32c0xx_ll_rcc.h ****   * @rmtoll CR           HSIKERDIV        LL_RCC_HSIKER_GetDivider
 747:Drivers/STM32C0xx_HAL_Driver/Inc/stm32c0xx_ll_rcc.h ****   * @retval can be one of the following values:
 748:Drivers/STM32C0xx_HAL_Driver/Inc/stm32c0xx_ll_rcc.h ****   *         @arg @ref LL_RCC_HSIKER_DIV_1
 749:Drivers/STM32C0xx_HAL_Driver/Inc/stm32c0xx_ll_rcc.h ****   *         @arg @ref LL_RCC_HSIKER_DIV_2
 750:Drivers/STM32C0xx_HAL_Driver/Inc/stm32c0xx_ll_rcc.h ****   *         @arg @ref LL_RCC_HSIKER_DIV_3
 751:Drivers/STM32C0xx_HAL_Driver/Inc/stm32c0xx_ll_rcc.h ****   *         @arg @ref LL_RCC_HSIKER_DIV_4
 752:Drivers/STM32C0xx_HAL_Driver/Inc/stm32c0xx_ll_rcc.h ****   *         @arg @ref LL_RCC_HSIKER_DIV_5
 753:Drivers/STM32C0xx_HAL_Driver/Inc/stm32c0xx_ll_rcc.h ****   *         @arg @ref LL_RCC_HSIKER_DIV_6
 754:Drivers/STM32C0xx_HAL_Driver/Inc/stm32c0xx_ll_rcc.h ****   *         @arg @ref LL_RCC_HSIKER_DIV_7
 755:Drivers/STM32C0xx_HAL_Driver/Inc/stm32c0xx_ll_rcc.h ****   *         @arg @ref LL_RCC_HSIKER_DIV_8
 756:Drivers/STM32C0xx_HAL_Driver/Inc/stm32c0xx_ll_rcc.h ****   */
 757:Drivers/STM32C0xx_HAL_Driver/Inc/stm32c0xx_ll_rcc.h **** __STATIC_INLINE uint32_t LL_RCC_HSIKER_GetDivider(void)
 758:Drivers/STM32C0xx_HAL_Driver/Inc/stm32c0xx_ll_rcc.h **** {
 759:Drivers/STM32C0xx_HAL_Driver/Inc/stm32c0xx_ll_rcc.h ****   return (READ_BIT(RCC->CR, RCC_CR_HSIKERDIV));
 760:Drivers/STM32C0xx_HAL_Driver/Inc/stm32c0xx_ll_rcc.h **** }
 761:Drivers/STM32C0xx_HAL_Driver/Inc/stm32c0xx_ll_rcc.h **** 
 762:Drivers/STM32C0xx_HAL_Driver/Inc/stm32c0xx_ll_rcc.h **** /**
 763:Drivers/STM32C0xx_HAL_Driver/Inc/stm32c0xx_ll_rcc.h ****   * @brief  Enable HSI oscillator
 764:Drivers/STM32C0xx_HAL_Driver/Inc/stm32c0xx_ll_rcc.h ****   * @rmtoll CR           HSION         LL_RCC_HSI_Enable
 765:Drivers/STM32C0xx_HAL_Driver/Inc/stm32c0xx_ll_rcc.h ****   * @retval None
 766:Drivers/STM32C0xx_HAL_Driver/Inc/stm32c0xx_ll_rcc.h ****   */
 767:Drivers/STM32C0xx_HAL_Driver/Inc/stm32c0xx_ll_rcc.h **** __STATIC_INLINE void LL_RCC_HSI_Enable(void)
 768:Drivers/STM32C0xx_HAL_Driver/Inc/stm32c0xx_ll_rcc.h **** {
 769:Drivers/STM32C0xx_HAL_Driver/Inc/stm32c0xx_ll_rcc.h ****   SET_BIT(RCC->CR, RCC_CR_HSION);
 770:Drivers/STM32C0xx_HAL_Driver/Inc/stm32c0xx_ll_rcc.h **** }
 771:Drivers/STM32C0xx_HAL_Driver/Inc/stm32c0xx_ll_rcc.h **** 
 772:Drivers/STM32C0xx_HAL_Driver/Inc/stm32c0xx_ll_rcc.h **** 
 773:Drivers/STM32C0xx_HAL_Driver/Inc/stm32c0xx_ll_rcc.h **** /**
 774:Drivers/STM32C0xx_HAL_Driver/Inc/stm32c0xx_ll_rcc.h ****   * @brief  Set HSI divider
 775:Drivers/STM32C0xx_HAL_Driver/Inc/stm32c0xx_ll_rcc.h ****   * @rmtoll CR           HSIDIV        LL_RCC_HSI_SetDivider
 776:Drivers/STM32C0xx_HAL_Driver/Inc/stm32c0xx_ll_rcc.h ****   * @param  Divider This parameter can be one of the following values:
 777:Drivers/STM32C0xx_HAL_Driver/Inc/stm32c0xx_ll_rcc.h ****   *         @arg @ref LL_RCC_HSI_DIV_1
 778:Drivers/STM32C0xx_HAL_Driver/Inc/stm32c0xx_ll_rcc.h ****   *         @arg @ref LL_RCC_HSI_DIV_2
 779:Drivers/STM32C0xx_HAL_Driver/Inc/stm32c0xx_ll_rcc.h ****   *         @arg @ref LL_RCC_HSI_DIV_4
 780:Drivers/STM32C0xx_HAL_Driver/Inc/stm32c0xx_ll_rcc.h ****   *         @arg @ref LL_RCC_HSI_DIV_8
ARM GAS  C:\Users\simay\AppData\Local\Temp\cctPq0DA.s 			page 50


 781:Drivers/STM32C0xx_HAL_Driver/Inc/stm32c0xx_ll_rcc.h ****   *         @arg @ref LL_RCC_HSI_DIV_16
 782:Drivers/STM32C0xx_HAL_Driver/Inc/stm32c0xx_ll_rcc.h ****   *         @arg @ref LL_RCC_HSI_DIV_32
 783:Drivers/STM32C0xx_HAL_Driver/Inc/stm32c0xx_ll_rcc.h ****   *         @arg @ref LL_RCC_HSI_DIV_64
 784:Drivers/STM32C0xx_HAL_Driver/Inc/stm32c0xx_ll_rcc.h ****   *         @arg @ref LL_RCC_HSI_DIV_128
 785:Drivers/STM32C0xx_HAL_Driver/Inc/stm32c0xx_ll_rcc.h ****   * @retval None.
 786:Drivers/STM32C0xx_HAL_Driver/Inc/stm32c0xx_ll_rcc.h ****   */
 787:Drivers/STM32C0xx_HAL_Driver/Inc/stm32c0xx_ll_rcc.h **** __STATIC_INLINE void LL_RCC_HSI_SetDivider(uint32_t Divider)
 788:Drivers/STM32C0xx_HAL_Driver/Inc/stm32c0xx_ll_rcc.h **** {
 789:Drivers/STM32C0xx_HAL_Driver/Inc/stm32c0xx_ll_rcc.h ****   MODIFY_REG(RCC->CR, RCC_CR_HSIDIV, Divider);
 790:Drivers/STM32C0xx_HAL_Driver/Inc/stm32c0xx_ll_rcc.h **** }
 791:Drivers/STM32C0xx_HAL_Driver/Inc/stm32c0xx_ll_rcc.h **** 
 792:Drivers/STM32C0xx_HAL_Driver/Inc/stm32c0xx_ll_rcc.h **** /**
 793:Drivers/STM32C0xx_HAL_Driver/Inc/stm32c0xx_ll_rcc.h ****   * @brief  Get HSI divider
 794:Drivers/STM32C0xx_HAL_Driver/Inc/stm32c0xx_ll_rcc.h ****   * @rmtoll CR           HSIDIV        LL_RCC_HSI_GetDivider
 795:Drivers/STM32C0xx_HAL_Driver/Inc/stm32c0xx_ll_rcc.h ****   * @retval can be one of the following values:
 796:Drivers/STM32C0xx_HAL_Driver/Inc/stm32c0xx_ll_rcc.h ****   *         @arg @ref LL_RCC_HSI_DIV_1
 797:Drivers/STM32C0xx_HAL_Driver/Inc/stm32c0xx_ll_rcc.h ****   *         @arg @ref LL_RCC_HSI_DIV_2
 798:Drivers/STM32C0xx_HAL_Driver/Inc/stm32c0xx_ll_rcc.h ****   *         @arg @ref LL_RCC_HSI_DIV_4
 799:Drivers/STM32C0xx_HAL_Driver/Inc/stm32c0xx_ll_rcc.h ****   *         @arg @ref LL_RCC_HSI_DIV_8
 800:Drivers/STM32C0xx_HAL_Driver/Inc/stm32c0xx_ll_rcc.h ****   *         @arg @ref LL_RCC_HSI_DIV_16
 801:Drivers/STM32C0xx_HAL_Driver/Inc/stm32c0xx_ll_rcc.h ****   *         @arg @ref LL_RCC_HSI_DIV_32
 802:Drivers/STM32C0xx_HAL_Driver/Inc/stm32c0xx_ll_rcc.h ****   *         @arg @ref LL_RCC_HSI_DIV_64
 803:Drivers/STM32C0xx_HAL_Driver/Inc/stm32c0xx_ll_rcc.h ****   *         @arg @ref LL_RCC_HSI_DIV_128
 804:Drivers/STM32C0xx_HAL_Driver/Inc/stm32c0xx_ll_rcc.h ****   */
 805:Drivers/STM32C0xx_HAL_Driver/Inc/stm32c0xx_ll_rcc.h **** __STATIC_INLINE uint32_t LL_RCC_HSI_GetDivider(void)
 806:Drivers/STM32C0xx_HAL_Driver/Inc/stm32c0xx_ll_rcc.h **** {
 807:Drivers/STM32C0xx_HAL_Driver/Inc/stm32c0xx_ll_rcc.h ****   return (READ_BIT(RCC->CR, RCC_CR_HSIDIV));
 808:Drivers/STM32C0xx_HAL_Driver/Inc/stm32c0xx_ll_rcc.h **** }
 809:Drivers/STM32C0xx_HAL_Driver/Inc/stm32c0xx_ll_rcc.h **** 
 810:Drivers/STM32C0xx_HAL_Driver/Inc/stm32c0xx_ll_rcc.h **** /**
 811:Drivers/STM32C0xx_HAL_Driver/Inc/stm32c0xx_ll_rcc.h ****   * @brief  Disable HSI oscillator
 812:Drivers/STM32C0xx_HAL_Driver/Inc/stm32c0xx_ll_rcc.h ****   * @rmtoll CR           HSION         LL_RCC_HSI_Disable
 813:Drivers/STM32C0xx_HAL_Driver/Inc/stm32c0xx_ll_rcc.h ****   * @retval None
 814:Drivers/STM32C0xx_HAL_Driver/Inc/stm32c0xx_ll_rcc.h ****   */
 815:Drivers/STM32C0xx_HAL_Driver/Inc/stm32c0xx_ll_rcc.h **** __STATIC_INLINE void LL_RCC_HSI_Disable(void)
 816:Drivers/STM32C0xx_HAL_Driver/Inc/stm32c0xx_ll_rcc.h **** {
 817:Drivers/STM32C0xx_HAL_Driver/Inc/stm32c0xx_ll_rcc.h ****   CLEAR_BIT(RCC->CR, RCC_CR_HSION);
 818:Drivers/STM32C0xx_HAL_Driver/Inc/stm32c0xx_ll_rcc.h **** }
 819:Drivers/STM32C0xx_HAL_Driver/Inc/stm32c0xx_ll_rcc.h **** 
 820:Drivers/STM32C0xx_HAL_Driver/Inc/stm32c0xx_ll_rcc.h **** /**
 821:Drivers/STM32C0xx_HAL_Driver/Inc/stm32c0xx_ll_rcc.h ****   * @brief  Check if HSI clock is ready
 822:Drivers/STM32C0xx_HAL_Driver/Inc/stm32c0xx_ll_rcc.h ****   * @rmtoll CR           HSIRDY        LL_RCC_HSI_IsReady
 823:Drivers/STM32C0xx_HAL_Driver/Inc/stm32c0xx_ll_rcc.h ****   * @retval State of bit (1 or 0).
 824:Drivers/STM32C0xx_HAL_Driver/Inc/stm32c0xx_ll_rcc.h ****   */
 825:Drivers/STM32C0xx_HAL_Driver/Inc/stm32c0xx_ll_rcc.h **** __STATIC_INLINE uint32_t LL_RCC_HSI_IsReady(void)
 826:Drivers/STM32C0xx_HAL_Driver/Inc/stm32c0xx_ll_rcc.h **** {
 827:Drivers/STM32C0xx_HAL_Driver/Inc/stm32c0xx_ll_rcc.h ****   return ((READ_BIT(RCC->CR, RCC_CR_HSIRDY) == (RCC_CR_HSIRDY)) ? 1UL : 0UL);
 828:Drivers/STM32C0xx_HAL_Driver/Inc/stm32c0xx_ll_rcc.h **** }
 829:Drivers/STM32C0xx_HAL_Driver/Inc/stm32c0xx_ll_rcc.h **** 
 830:Drivers/STM32C0xx_HAL_Driver/Inc/stm32c0xx_ll_rcc.h **** /**
 831:Drivers/STM32C0xx_HAL_Driver/Inc/stm32c0xx_ll_rcc.h ****   * @brief  Get HSI Calibration value
 832:Drivers/STM32C0xx_HAL_Driver/Inc/stm32c0xx_ll_rcc.h ****   * @note When HSITRIM is written, HSICAL is updated with the sum of
 833:Drivers/STM32C0xx_HAL_Driver/Inc/stm32c0xx_ll_rcc.h ****   *       HSITRIM and the factory trim value
 834:Drivers/STM32C0xx_HAL_Driver/Inc/stm32c0xx_ll_rcc.h ****   * @rmtoll ICSCR        HSICAL        LL_RCC_HSI_GetCalibration
 835:Drivers/STM32C0xx_HAL_Driver/Inc/stm32c0xx_ll_rcc.h ****   * @retval Between Min_Data = 0x00 and Max_Data = 0xFF
 836:Drivers/STM32C0xx_HAL_Driver/Inc/stm32c0xx_ll_rcc.h ****   */
 837:Drivers/STM32C0xx_HAL_Driver/Inc/stm32c0xx_ll_rcc.h **** __STATIC_INLINE uint32_t LL_RCC_HSI_GetCalibration(void)
ARM GAS  C:\Users\simay\AppData\Local\Temp\cctPq0DA.s 			page 51


 838:Drivers/STM32C0xx_HAL_Driver/Inc/stm32c0xx_ll_rcc.h **** {
 839:Drivers/STM32C0xx_HAL_Driver/Inc/stm32c0xx_ll_rcc.h ****   return (uint32_t)(READ_BIT(RCC->ICSCR, RCC_ICSCR_HSICAL) >> RCC_ICSCR_HSICAL_Pos);
 840:Drivers/STM32C0xx_HAL_Driver/Inc/stm32c0xx_ll_rcc.h **** }
 841:Drivers/STM32C0xx_HAL_Driver/Inc/stm32c0xx_ll_rcc.h **** 
 842:Drivers/STM32C0xx_HAL_Driver/Inc/stm32c0xx_ll_rcc.h **** /**
 843:Drivers/STM32C0xx_HAL_Driver/Inc/stm32c0xx_ll_rcc.h ****   * @brief  Set HSI Calibration trimming
 844:Drivers/STM32C0xx_HAL_Driver/Inc/stm32c0xx_ll_rcc.h ****   * @note user-programmable trimming value that is added to the HSICAL
 845:Drivers/STM32C0xx_HAL_Driver/Inc/stm32c0xx_ll_rcc.h ****   * @note Default value is 64, which, when added to the HSICAL value,
 846:Drivers/STM32C0xx_HAL_Driver/Inc/stm32c0xx_ll_rcc.h ****   *       should trim the HSI to 16 MHz +/- 1 %
 847:Drivers/STM32C0xx_HAL_Driver/Inc/stm32c0xx_ll_rcc.h ****   * @rmtoll ICSCR        HSITRIM       LL_RCC_HSI_SetCalibTrimming
 848:Drivers/STM32C0xx_HAL_Driver/Inc/stm32c0xx_ll_rcc.h ****   * @param  Value Between Min_Data = 0 and Max_Data = 127
 849:Drivers/STM32C0xx_HAL_Driver/Inc/stm32c0xx_ll_rcc.h ****   * @retval None
 850:Drivers/STM32C0xx_HAL_Driver/Inc/stm32c0xx_ll_rcc.h ****   */
 851:Drivers/STM32C0xx_HAL_Driver/Inc/stm32c0xx_ll_rcc.h **** __STATIC_INLINE void LL_RCC_HSI_SetCalibTrimming(uint32_t Value)
 852:Drivers/STM32C0xx_HAL_Driver/Inc/stm32c0xx_ll_rcc.h **** {
 853:Drivers/STM32C0xx_HAL_Driver/Inc/stm32c0xx_ll_rcc.h ****   MODIFY_REG(RCC->ICSCR, RCC_ICSCR_HSITRIM, Value << RCC_ICSCR_HSITRIM_Pos);
 854:Drivers/STM32C0xx_HAL_Driver/Inc/stm32c0xx_ll_rcc.h **** }
 855:Drivers/STM32C0xx_HAL_Driver/Inc/stm32c0xx_ll_rcc.h **** 
 856:Drivers/STM32C0xx_HAL_Driver/Inc/stm32c0xx_ll_rcc.h **** /**
 857:Drivers/STM32C0xx_HAL_Driver/Inc/stm32c0xx_ll_rcc.h ****   * @brief  Get HSI Calibration trimming
 858:Drivers/STM32C0xx_HAL_Driver/Inc/stm32c0xx_ll_rcc.h ****   * @rmtoll ICSCR        HSITRIM       LL_RCC_HSI_GetCalibTrimming
 859:Drivers/STM32C0xx_HAL_Driver/Inc/stm32c0xx_ll_rcc.h ****   * @retval Between Min_Data = 0 and Max_Data = 127
 860:Drivers/STM32C0xx_HAL_Driver/Inc/stm32c0xx_ll_rcc.h ****   */
 861:Drivers/STM32C0xx_HAL_Driver/Inc/stm32c0xx_ll_rcc.h **** __STATIC_INLINE uint32_t LL_RCC_HSI_GetCalibTrimming(void)
 862:Drivers/STM32C0xx_HAL_Driver/Inc/stm32c0xx_ll_rcc.h **** {
 863:Drivers/STM32C0xx_HAL_Driver/Inc/stm32c0xx_ll_rcc.h ****   return (uint32_t)(READ_BIT(RCC->ICSCR, RCC_ICSCR_HSITRIM) >> RCC_ICSCR_HSITRIM_Pos);
 864:Drivers/STM32C0xx_HAL_Driver/Inc/stm32c0xx_ll_rcc.h **** }
 865:Drivers/STM32C0xx_HAL_Driver/Inc/stm32c0xx_ll_rcc.h **** 
 866:Drivers/STM32C0xx_HAL_Driver/Inc/stm32c0xx_ll_rcc.h **** /**
 867:Drivers/STM32C0xx_HAL_Driver/Inc/stm32c0xx_ll_rcc.h ****   * @}
 868:Drivers/STM32C0xx_HAL_Driver/Inc/stm32c0xx_ll_rcc.h ****   */
 869:Drivers/STM32C0xx_HAL_Driver/Inc/stm32c0xx_ll_rcc.h **** 
 870:Drivers/STM32C0xx_HAL_Driver/Inc/stm32c0xx_ll_rcc.h **** #if defined(RCC_HSI48_SUPPORT)
 871:Drivers/STM32C0xx_HAL_Driver/Inc/stm32c0xx_ll_rcc.h **** /** @defgroup RCC_LL_EF_HSI48 HSI48
 872:Drivers/STM32C0xx_HAL_Driver/Inc/stm32c0xx_ll_rcc.h ****   * @{
 873:Drivers/STM32C0xx_HAL_Driver/Inc/stm32c0xx_ll_rcc.h ****   */
 874:Drivers/STM32C0xx_HAL_Driver/Inc/stm32c0xx_ll_rcc.h **** 
 875:Drivers/STM32C0xx_HAL_Driver/Inc/stm32c0xx_ll_rcc.h **** /**
 876:Drivers/STM32C0xx_HAL_Driver/Inc/stm32c0xx_ll_rcc.h ****   * @brief  Enable HSI48
 877:Drivers/STM32C0xx_HAL_Driver/Inc/stm32c0xx_ll_rcc.h ****   * @rmtoll CR         HSI48ON       LL_RCC_HSI48_Enable
 878:Drivers/STM32C0xx_HAL_Driver/Inc/stm32c0xx_ll_rcc.h ****   * @retval None
 879:Drivers/STM32C0xx_HAL_Driver/Inc/stm32c0xx_ll_rcc.h ****   */
 880:Drivers/STM32C0xx_HAL_Driver/Inc/stm32c0xx_ll_rcc.h **** __STATIC_INLINE void LL_RCC_HSI48_Enable(void)
 881:Drivers/STM32C0xx_HAL_Driver/Inc/stm32c0xx_ll_rcc.h **** {
 882:Drivers/STM32C0xx_HAL_Driver/Inc/stm32c0xx_ll_rcc.h ****   SET_BIT(RCC->CR, RCC_CR_HSIUSB48ON);
 883:Drivers/STM32C0xx_HAL_Driver/Inc/stm32c0xx_ll_rcc.h **** }
 884:Drivers/STM32C0xx_HAL_Driver/Inc/stm32c0xx_ll_rcc.h **** 
 885:Drivers/STM32C0xx_HAL_Driver/Inc/stm32c0xx_ll_rcc.h **** /**
 886:Drivers/STM32C0xx_HAL_Driver/Inc/stm32c0xx_ll_rcc.h ****   * @brief  Disable HSI48
 887:Drivers/STM32C0xx_HAL_Driver/Inc/stm32c0xx_ll_rcc.h ****   * @rmtoll CR          HSI48ON       LL_RCC_HSI48_Disable
 888:Drivers/STM32C0xx_HAL_Driver/Inc/stm32c0xx_ll_rcc.h ****   * @retval None
 889:Drivers/STM32C0xx_HAL_Driver/Inc/stm32c0xx_ll_rcc.h ****   */
 890:Drivers/STM32C0xx_HAL_Driver/Inc/stm32c0xx_ll_rcc.h **** __STATIC_INLINE void LL_RCC_HSI48_Disable(void)
 891:Drivers/STM32C0xx_HAL_Driver/Inc/stm32c0xx_ll_rcc.h **** {
 892:Drivers/STM32C0xx_HAL_Driver/Inc/stm32c0xx_ll_rcc.h ****   CLEAR_BIT(RCC->CR, RCC_CR_HSIUSB48ON);
 893:Drivers/STM32C0xx_HAL_Driver/Inc/stm32c0xx_ll_rcc.h **** }
 894:Drivers/STM32C0xx_HAL_Driver/Inc/stm32c0xx_ll_rcc.h **** 
ARM GAS  C:\Users\simay\AppData\Local\Temp\cctPq0DA.s 			page 52


 895:Drivers/STM32C0xx_HAL_Driver/Inc/stm32c0xx_ll_rcc.h **** /**
 896:Drivers/STM32C0xx_HAL_Driver/Inc/stm32c0xx_ll_rcc.h ****   * @brief  Check if HSI48 oscillator Ready
 897:Drivers/STM32C0xx_HAL_Driver/Inc/stm32c0xx_ll_rcc.h ****   * @rmtoll CR          HSI48RDY      LL_RCC_HSI48_IsReady
 898:Drivers/STM32C0xx_HAL_Driver/Inc/stm32c0xx_ll_rcc.h ****   * @retval State of bit (1 or 0).
 899:Drivers/STM32C0xx_HAL_Driver/Inc/stm32c0xx_ll_rcc.h ****   */
 900:Drivers/STM32C0xx_HAL_Driver/Inc/stm32c0xx_ll_rcc.h **** __STATIC_INLINE uint32_t LL_RCC_HSI48_IsReady(void)
 901:Drivers/STM32C0xx_HAL_Driver/Inc/stm32c0xx_ll_rcc.h **** {
 902:Drivers/STM32C0xx_HAL_Driver/Inc/stm32c0xx_ll_rcc.h ****   return ((READ_BIT(RCC->CR, RCC_CR_HSIUSB48RDY) == RCC_CR_HSIUSB48RDY) ? 1UL : 0UL);
 903:Drivers/STM32C0xx_HAL_Driver/Inc/stm32c0xx_ll_rcc.h **** }
 904:Drivers/STM32C0xx_HAL_Driver/Inc/stm32c0xx_ll_rcc.h **** 
 905:Drivers/STM32C0xx_HAL_Driver/Inc/stm32c0xx_ll_rcc.h **** /**
 906:Drivers/STM32C0xx_HAL_Driver/Inc/stm32c0xx_ll_rcc.h ****   * @}
 907:Drivers/STM32C0xx_HAL_Driver/Inc/stm32c0xx_ll_rcc.h ****   */
 908:Drivers/STM32C0xx_HAL_Driver/Inc/stm32c0xx_ll_rcc.h **** #endif /* RCC_HSI48_SUPPORT */
 909:Drivers/STM32C0xx_HAL_Driver/Inc/stm32c0xx_ll_rcc.h **** 
 910:Drivers/STM32C0xx_HAL_Driver/Inc/stm32c0xx_ll_rcc.h **** /** @defgroup RCC_LL_EF_LSE LSE
 911:Drivers/STM32C0xx_HAL_Driver/Inc/stm32c0xx_ll_rcc.h ****   * @{
 912:Drivers/STM32C0xx_HAL_Driver/Inc/stm32c0xx_ll_rcc.h ****   */
 913:Drivers/STM32C0xx_HAL_Driver/Inc/stm32c0xx_ll_rcc.h **** 
 914:Drivers/STM32C0xx_HAL_Driver/Inc/stm32c0xx_ll_rcc.h **** /**
 915:Drivers/STM32C0xx_HAL_Driver/Inc/stm32c0xx_ll_rcc.h ****   * @brief  Enable  Low Speed External (LSE) crystal.
 916:Drivers/STM32C0xx_HAL_Driver/Inc/stm32c0xx_ll_rcc.h ****   * @rmtoll CSR1         LSEON         LL_RCC_LSE_Enable
 917:Drivers/STM32C0xx_HAL_Driver/Inc/stm32c0xx_ll_rcc.h ****   * @retval None
 918:Drivers/STM32C0xx_HAL_Driver/Inc/stm32c0xx_ll_rcc.h ****   */
 919:Drivers/STM32C0xx_HAL_Driver/Inc/stm32c0xx_ll_rcc.h **** __STATIC_INLINE void LL_RCC_LSE_Enable(void)
 920:Drivers/STM32C0xx_HAL_Driver/Inc/stm32c0xx_ll_rcc.h **** {
 921:Drivers/STM32C0xx_HAL_Driver/Inc/stm32c0xx_ll_rcc.h ****   SET_BIT(RCC->CSR1, RCC_CSR1_LSEON);
 922:Drivers/STM32C0xx_HAL_Driver/Inc/stm32c0xx_ll_rcc.h **** }
 923:Drivers/STM32C0xx_HAL_Driver/Inc/stm32c0xx_ll_rcc.h **** 
 924:Drivers/STM32C0xx_HAL_Driver/Inc/stm32c0xx_ll_rcc.h **** /**
 925:Drivers/STM32C0xx_HAL_Driver/Inc/stm32c0xx_ll_rcc.h ****   * @brief  Disable  Low Speed External (LSE) crystal.
 926:Drivers/STM32C0xx_HAL_Driver/Inc/stm32c0xx_ll_rcc.h ****   * @rmtoll CSR1         LSEON         LL_RCC_LSE_Disable
 927:Drivers/STM32C0xx_HAL_Driver/Inc/stm32c0xx_ll_rcc.h ****   * @retval None
 928:Drivers/STM32C0xx_HAL_Driver/Inc/stm32c0xx_ll_rcc.h ****   */
 929:Drivers/STM32C0xx_HAL_Driver/Inc/stm32c0xx_ll_rcc.h **** __STATIC_INLINE void LL_RCC_LSE_Disable(void)
 930:Drivers/STM32C0xx_HAL_Driver/Inc/stm32c0xx_ll_rcc.h **** {
 931:Drivers/STM32C0xx_HAL_Driver/Inc/stm32c0xx_ll_rcc.h ****   CLEAR_BIT(RCC->CSR1, RCC_CSR1_LSEON);
 932:Drivers/STM32C0xx_HAL_Driver/Inc/stm32c0xx_ll_rcc.h **** }
 933:Drivers/STM32C0xx_HAL_Driver/Inc/stm32c0xx_ll_rcc.h **** 
 934:Drivers/STM32C0xx_HAL_Driver/Inc/stm32c0xx_ll_rcc.h **** /**
 935:Drivers/STM32C0xx_HAL_Driver/Inc/stm32c0xx_ll_rcc.h ****   * @brief  Enable external clock source (LSE bypass).
 936:Drivers/STM32C0xx_HAL_Driver/Inc/stm32c0xx_ll_rcc.h ****   * @rmtoll CSR1         LSEBYP        LL_RCC_LSE_EnableBypass
 937:Drivers/STM32C0xx_HAL_Driver/Inc/stm32c0xx_ll_rcc.h ****   * @retval None
 938:Drivers/STM32C0xx_HAL_Driver/Inc/stm32c0xx_ll_rcc.h ****   */
 939:Drivers/STM32C0xx_HAL_Driver/Inc/stm32c0xx_ll_rcc.h **** __STATIC_INLINE void LL_RCC_LSE_EnableBypass(void)
 940:Drivers/STM32C0xx_HAL_Driver/Inc/stm32c0xx_ll_rcc.h **** {
 941:Drivers/STM32C0xx_HAL_Driver/Inc/stm32c0xx_ll_rcc.h ****   SET_BIT(RCC->CSR1, RCC_CSR1_LSEBYP);
 942:Drivers/STM32C0xx_HAL_Driver/Inc/stm32c0xx_ll_rcc.h **** }
 943:Drivers/STM32C0xx_HAL_Driver/Inc/stm32c0xx_ll_rcc.h **** 
 944:Drivers/STM32C0xx_HAL_Driver/Inc/stm32c0xx_ll_rcc.h **** /**
 945:Drivers/STM32C0xx_HAL_Driver/Inc/stm32c0xx_ll_rcc.h ****   * @brief  Disable external clock source (LSE bypass).
 946:Drivers/STM32C0xx_HAL_Driver/Inc/stm32c0xx_ll_rcc.h ****   * @rmtoll CSR1         LSEBYP        LL_RCC_LSE_DisableBypass
 947:Drivers/STM32C0xx_HAL_Driver/Inc/stm32c0xx_ll_rcc.h ****   * @retval None
 948:Drivers/STM32C0xx_HAL_Driver/Inc/stm32c0xx_ll_rcc.h ****   */
 949:Drivers/STM32C0xx_HAL_Driver/Inc/stm32c0xx_ll_rcc.h **** __STATIC_INLINE void LL_RCC_LSE_DisableBypass(void)
 950:Drivers/STM32C0xx_HAL_Driver/Inc/stm32c0xx_ll_rcc.h **** {
 951:Drivers/STM32C0xx_HAL_Driver/Inc/stm32c0xx_ll_rcc.h ****   CLEAR_BIT(RCC->CSR1, RCC_CSR1_LSEBYP);
ARM GAS  C:\Users\simay\AppData\Local\Temp\cctPq0DA.s 			page 53


 952:Drivers/STM32C0xx_HAL_Driver/Inc/stm32c0xx_ll_rcc.h **** }
 953:Drivers/STM32C0xx_HAL_Driver/Inc/stm32c0xx_ll_rcc.h **** 
 954:Drivers/STM32C0xx_HAL_Driver/Inc/stm32c0xx_ll_rcc.h **** /**
 955:Drivers/STM32C0xx_HAL_Driver/Inc/stm32c0xx_ll_rcc.h ****   * @brief  Set LSE oscillator drive capability
 956:Drivers/STM32C0xx_HAL_Driver/Inc/stm32c0xx_ll_rcc.h ****   * @note The oscillator is in Xtal mode when it is not in bypass mode.
 957:Drivers/STM32C0xx_HAL_Driver/Inc/stm32c0xx_ll_rcc.h ****   * @rmtoll CSR1         LSEDRV        LL_RCC_LSE_SetDriveCapability
 958:Drivers/STM32C0xx_HAL_Driver/Inc/stm32c0xx_ll_rcc.h ****   * @param  LSEDrive This parameter can be one of the following values:
 959:Drivers/STM32C0xx_HAL_Driver/Inc/stm32c0xx_ll_rcc.h ****   *         @arg @ref LL_RCC_LSEDRIVE_LOW
 960:Drivers/STM32C0xx_HAL_Driver/Inc/stm32c0xx_ll_rcc.h ****   *         @arg @ref LL_RCC_LSEDRIVE_MEDIUMLOW
 961:Drivers/STM32C0xx_HAL_Driver/Inc/stm32c0xx_ll_rcc.h ****   *         @arg @ref LL_RCC_LSEDRIVE_MEDIUMHIGH
 962:Drivers/STM32C0xx_HAL_Driver/Inc/stm32c0xx_ll_rcc.h ****   *         @arg @ref LL_RCC_LSEDRIVE_HIGH
 963:Drivers/STM32C0xx_HAL_Driver/Inc/stm32c0xx_ll_rcc.h ****   * @retval None
 964:Drivers/STM32C0xx_HAL_Driver/Inc/stm32c0xx_ll_rcc.h ****   */
 965:Drivers/STM32C0xx_HAL_Driver/Inc/stm32c0xx_ll_rcc.h **** __STATIC_INLINE void LL_RCC_LSE_SetDriveCapability(uint32_t LSEDrive)
 966:Drivers/STM32C0xx_HAL_Driver/Inc/stm32c0xx_ll_rcc.h **** {
 967:Drivers/STM32C0xx_HAL_Driver/Inc/stm32c0xx_ll_rcc.h ****   MODIFY_REG(RCC->CSR1, RCC_CSR1_LSEDRV, LSEDrive);
 968:Drivers/STM32C0xx_HAL_Driver/Inc/stm32c0xx_ll_rcc.h **** }
 969:Drivers/STM32C0xx_HAL_Driver/Inc/stm32c0xx_ll_rcc.h **** 
 970:Drivers/STM32C0xx_HAL_Driver/Inc/stm32c0xx_ll_rcc.h **** /**
 971:Drivers/STM32C0xx_HAL_Driver/Inc/stm32c0xx_ll_rcc.h ****   * @brief  Get LSE oscillator drive capability
 972:Drivers/STM32C0xx_HAL_Driver/Inc/stm32c0xx_ll_rcc.h ****   * @rmtoll CSR1         LSEDRV        LL_RCC_LSE_GetDriveCapability
 973:Drivers/STM32C0xx_HAL_Driver/Inc/stm32c0xx_ll_rcc.h ****   * @retval Returned value can be one of the following values:
 974:Drivers/STM32C0xx_HAL_Driver/Inc/stm32c0xx_ll_rcc.h ****   *         @arg @ref LL_RCC_LSEDRIVE_LOW
 975:Drivers/STM32C0xx_HAL_Driver/Inc/stm32c0xx_ll_rcc.h ****   *         @arg @ref LL_RCC_LSEDRIVE_MEDIUMLOW
 976:Drivers/STM32C0xx_HAL_Driver/Inc/stm32c0xx_ll_rcc.h ****   *         @arg @ref LL_RCC_LSEDRIVE_MEDIUMHIGH
 977:Drivers/STM32C0xx_HAL_Driver/Inc/stm32c0xx_ll_rcc.h ****   *         @arg @ref LL_RCC_LSEDRIVE_HIGH
 978:Drivers/STM32C0xx_HAL_Driver/Inc/stm32c0xx_ll_rcc.h ****   */
 979:Drivers/STM32C0xx_HAL_Driver/Inc/stm32c0xx_ll_rcc.h **** __STATIC_INLINE uint32_t LL_RCC_LSE_GetDriveCapability(void)
 980:Drivers/STM32C0xx_HAL_Driver/Inc/stm32c0xx_ll_rcc.h **** {
 981:Drivers/STM32C0xx_HAL_Driver/Inc/stm32c0xx_ll_rcc.h ****   return (uint32_t)(READ_BIT(RCC->CSR1, RCC_CSR1_LSEDRV));
 982:Drivers/STM32C0xx_HAL_Driver/Inc/stm32c0xx_ll_rcc.h **** }
 983:Drivers/STM32C0xx_HAL_Driver/Inc/stm32c0xx_ll_rcc.h **** 
 984:Drivers/STM32C0xx_HAL_Driver/Inc/stm32c0xx_ll_rcc.h **** /**
 985:Drivers/STM32C0xx_HAL_Driver/Inc/stm32c0xx_ll_rcc.h ****   * @brief  Enable Clock security system on LSE.
 986:Drivers/STM32C0xx_HAL_Driver/Inc/stm32c0xx_ll_rcc.h ****   * @rmtoll CSR1         LSECSSON      LL_RCC_LSE_EnableCSS
 987:Drivers/STM32C0xx_HAL_Driver/Inc/stm32c0xx_ll_rcc.h ****   * @retval None
 988:Drivers/STM32C0xx_HAL_Driver/Inc/stm32c0xx_ll_rcc.h ****   */
 989:Drivers/STM32C0xx_HAL_Driver/Inc/stm32c0xx_ll_rcc.h **** __STATIC_INLINE void LL_RCC_LSE_EnableCSS(void)
 990:Drivers/STM32C0xx_HAL_Driver/Inc/stm32c0xx_ll_rcc.h **** {
 991:Drivers/STM32C0xx_HAL_Driver/Inc/stm32c0xx_ll_rcc.h ****   SET_BIT(RCC->CSR1, RCC_CSR1_LSECSSON);
 992:Drivers/STM32C0xx_HAL_Driver/Inc/stm32c0xx_ll_rcc.h **** }
 993:Drivers/STM32C0xx_HAL_Driver/Inc/stm32c0xx_ll_rcc.h **** 
 994:Drivers/STM32C0xx_HAL_Driver/Inc/stm32c0xx_ll_rcc.h **** /**
 995:Drivers/STM32C0xx_HAL_Driver/Inc/stm32c0xx_ll_rcc.h ****   * @brief  Disable Clock security system on LSE.
 996:Drivers/STM32C0xx_HAL_Driver/Inc/stm32c0xx_ll_rcc.h ****   * @note Clock security system can be disabled only after a LSE
 997:Drivers/STM32C0xx_HAL_Driver/Inc/stm32c0xx_ll_rcc.h ****   *       failure detection. In that case it MUST be disabled by software.
 998:Drivers/STM32C0xx_HAL_Driver/Inc/stm32c0xx_ll_rcc.h ****   * @rmtoll CSR1         LSECSSON      LL_RCC_LSE_DisableCSS
 999:Drivers/STM32C0xx_HAL_Driver/Inc/stm32c0xx_ll_rcc.h ****   * @retval None
1000:Drivers/STM32C0xx_HAL_Driver/Inc/stm32c0xx_ll_rcc.h ****   */
1001:Drivers/STM32C0xx_HAL_Driver/Inc/stm32c0xx_ll_rcc.h **** __STATIC_INLINE void LL_RCC_LSE_DisableCSS(void)
1002:Drivers/STM32C0xx_HAL_Driver/Inc/stm32c0xx_ll_rcc.h **** {
1003:Drivers/STM32C0xx_HAL_Driver/Inc/stm32c0xx_ll_rcc.h ****   CLEAR_BIT(RCC->CSR1, RCC_CSR1_LSECSSON);
1004:Drivers/STM32C0xx_HAL_Driver/Inc/stm32c0xx_ll_rcc.h **** }
1005:Drivers/STM32C0xx_HAL_Driver/Inc/stm32c0xx_ll_rcc.h **** 
1006:Drivers/STM32C0xx_HAL_Driver/Inc/stm32c0xx_ll_rcc.h **** /**
1007:Drivers/STM32C0xx_HAL_Driver/Inc/stm32c0xx_ll_rcc.h ****   * @brief  Check if LSE oscillator Ready
1008:Drivers/STM32C0xx_HAL_Driver/Inc/stm32c0xx_ll_rcc.h ****   * @rmtoll CSR1         LSERDY        LL_RCC_LSE_IsReady
ARM GAS  C:\Users\simay\AppData\Local\Temp\cctPq0DA.s 			page 54


1009:Drivers/STM32C0xx_HAL_Driver/Inc/stm32c0xx_ll_rcc.h ****   * @retval State of bit (1 or 0).
1010:Drivers/STM32C0xx_HAL_Driver/Inc/stm32c0xx_ll_rcc.h ****   */
1011:Drivers/STM32C0xx_HAL_Driver/Inc/stm32c0xx_ll_rcc.h **** __STATIC_INLINE uint32_t LL_RCC_LSE_IsReady(void)
1012:Drivers/STM32C0xx_HAL_Driver/Inc/stm32c0xx_ll_rcc.h **** {
1013:Drivers/STM32C0xx_HAL_Driver/Inc/stm32c0xx_ll_rcc.h ****   return ((READ_BIT(RCC->CSR1, RCC_CSR1_LSERDY) == (RCC_CSR1_LSERDY)) ? 1UL : 0UL);
1014:Drivers/STM32C0xx_HAL_Driver/Inc/stm32c0xx_ll_rcc.h **** }
1015:Drivers/STM32C0xx_HAL_Driver/Inc/stm32c0xx_ll_rcc.h **** 
1016:Drivers/STM32C0xx_HAL_Driver/Inc/stm32c0xx_ll_rcc.h **** /**
1017:Drivers/STM32C0xx_HAL_Driver/Inc/stm32c0xx_ll_rcc.h ****   * @brief  Check if CSS on LSE failure Detection
1018:Drivers/STM32C0xx_HAL_Driver/Inc/stm32c0xx_ll_rcc.h ****   * @rmtoll CSR1         LSECSSD       LL_RCC_LSE_IsCSSDetected
1019:Drivers/STM32C0xx_HAL_Driver/Inc/stm32c0xx_ll_rcc.h ****   * @retval State of bit (1 or 0).
1020:Drivers/STM32C0xx_HAL_Driver/Inc/stm32c0xx_ll_rcc.h ****   */
1021:Drivers/STM32C0xx_HAL_Driver/Inc/stm32c0xx_ll_rcc.h **** __STATIC_INLINE uint32_t LL_RCC_LSE_IsCSSDetected(void)
1022:Drivers/STM32C0xx_HAL_Driver/Inc/stm32c0xx_ll_rcc.h **** {
1023:Drivers/STM32C0xx_HAL_Driver/Inc/stm32c0xx_ll_rcc.h ****   return ((READ_BIT(RCC->CSR1, RCC_CSR1_LSECSSD) == (RCC_CSR1_LSECSSD)) ? 1UL : 0UL);
1024:Drivers/STM32C0xx_HAL_Driver/Inc/stm32c0xx_ll_rcc.h **** }
1025:Drivers/STM32C0xx_HAL_Driver/Inc/stm32c0xx_ll_rcc.h **** 
1026:Drivers/STM32C0xx_HAL_Driver/Inc/stm32c0xx_ll_rcc.h **** /**
1027:Drivers/STM32C0xx_HAL_Driver/Inc/stm32c0xx_ll_rcc.h ****   * @}
1028:Drivers/STM32C0xx_HAL_Driver/Inc/stm32c0xx_ll_rcc.h ****   */
1029:Drivers/STM32C0xx_HAL_Driver/Inc/stm32c0xx_ll_rcc.h **** 
1030:Drivers/STM32C0xx_HAL_Driver/Inc/stm32c0xx_ll_rcc.h **** /** @defgroup RCC_LL_EF_LSI LSI
1031:Drivers/STM32C0xx_HAL_Driver/Inc/stm32c0xx_ll_rcc.h ****   * @{
1032:Drivers/STM32C0xx_HAL_Driver/Inc/stm32c0xx_ll_rcc.h ****   */
1033:Drivers/STM32C0xx_HAL_Driver/Inc/stm32c0xx_ll_rcc.h **** 
1034:Drivers/STM32C0xx_HAL_Driver/Inc/stm32c0xx_ll_rcc.h **** /**
1035:Drivers/STM32C0xx_HAL_Driver/Inc/stm32c0xx_ll_rcc.h ****   * @brief  Enable LSI Oscillator
1036:Drivers/STM32C0xx_HAL_Driver/Inc/stm32c0xx_ll_rcc.h ****   * @rmtoll CSR2          LSION         LL_RCC_LSI_Enable
1037:Drivers/STM32C0xx_HAL_Driver/Inc/stm32c0xx_ll_rcc.h ****   * @retval None
1038:Drivers/STM32C0xx_HAL_Driver/Inc/stm32c0xx_ll_rcc.h ****   */
1039:Drivers/STM32C0xx_HAL_Driver/Inc/stm32c0xx_ll_rcc.h **** __STATIC_INLINE void LL_RCC_LSI_Enable(void)
1040:Drivers/STM32C0xx_HAL_Driver/Inc/stm32c0xx_ll_rcc.h **** {
1041:Drivers/STM32C0xx_HAL_Driver/Inc/stm32c0xx_ll_rcc.h ****   SET_BIT(RCC->CSR2, RCC_CSR2_LSION);
1042:Drivers/STM32C0xx_HAL_Driver/Inc/stm32c0xx_ll_rcc.h **** }
1043:Drivers/STM32C0xx_HAL_Driver/Inc/stm32c0xx_ll_rcc.h **** 
1044:Drivers/STM32C0xx_HAL_Driver/Inc/stm32c0xx_ll_rcc.h **** /**
1045:Drivers/STM32C0xx_HAL_Driver/Inc/stm32c0xx_ll_rcc.h ****   * @brief  Disable LSI Oscillator
1046:Drivers/STM32C0xx_HAL_Driver/Inc/stm32c0xx_ll_rcc.h ****   * @rmtoll CSR2          LSION         LL_RCC_LSI_Disable
1047:Drivers/STM32C0xx_HAL_Driver/Inc/stm32c0xx_ll_rcc.h ****   * @retval None
1048:Drivers/STM32C0xx_HAL_Driver/Inc/stm32c0xx_ll_rcc.h ****   */
1049:Drivers/STM32C0xx_HAL_Driver/Inc/stm32c0xx_ll_rcc.h **** __STATIC_INLINE void LL_RCC_LSI_Disable(void)
1050:Drivers/STM32C0xx_HAL_Driver/Inc/stm32c0xx_ll_rcc.h **** {
1051:Drivers/STM32C0xx_HAL_Driver/Inc/stm32c0xx_ll_rcc.h ****   CLEAR_BIT(RCC->CSR2, RCC_CSR2_LSION);
1052:Drivers/STM32C0xx_HAL_Driver/Inc/stm32c0xx_ll_rcc.h **** }
1053:Drivers/STM32C0xx_HAL_Driver/Inc/stm32c0xx_ll_rcc.h **** 
1054:Drivers/STM32C0xx_HAL_Driver/Inc/stm32c0xx_ll_rcc.h **** /**
1055:Drivers/STM32C0xx_HAL_Driver/Inc/stm32c0xx_ll_rcc.h ****   * @brief  Check if LSI is Ready
1056:Drivers/STM32C0xx_HAL_Driver/Inc/stm32c0xx_ll_rcc.h ****   * @rmtoll CSR2          LSIRDY        LL_RCC_LSI_IsReady
1057:Drivers/STM32C0xx_HAL_Driver/Inc/stm32c0xx_ll_rcc.h ****   * @retval State of bit (1 or 0).
1058:Drivers/STM32C0xx_HAL_Driver/Inc/stm32c0xx_ll_rcc.h ****   */
1059:Drivers/STM32C0xx_HAL_Driver/Inc/stm32c0xx_ll_rcc.h **** __STATIC_INLINE uint32_t LL_RCC_LSI_IsReady(void)
1060:Drivers/STM32C0xx_HAL_Driver/Inc/stm32c0xx_ll_rcc.h **** {
1061:Drivers/STM32C0xx_HAL_Driver/Inc/stm32c0xx_ll_rcc.h ****   return ((READ_BIT(RCC->CSR2, RCC_CSR2_LSIRDY) == (RCC_CSR2_LSIRDY)) ? 1UL : 0UL);
1062:Drivers/STM32C0xx_HAL_Driver/Inc/stm32c0xx_ll_rcc.h **** }
1063:Drivers/STM32C0xx_HAL_Driver/Inc/stm32c0xx_ll_rcc.h **** 
1064:Drivers/STM32C0xx_HAL_Driver/Inc/stm32c0xx_ll_rcc.h **** /**
1065:Drivers/STM32C0xx_HAL_Driver/Inc/stm32c0xx_ll_rcc.h ****   * @}
ARM GAS  C:\Users\simay\AppData\Local\Temp\cctPq0DA.s 			page 55


1066:Drivers/STM32C0xx_HAL_Driver/Inc/stm32c0xx_ll_rcc.h ****   */
1067:Drivers/STM32C0xx_HAL_Driver/Inc/stm32c0xx_ll_rcc.h **** 
1068:Drivers/STM32C0xx_HAL_Driver/Inc/stm32c0xx_ll_rcc.h **** /** @defgroup RCC_LL_EF_LSCO LSCO
1069:Drivers/STM32C0xx_HAL_Driver/Inc/stm32c0xx_ll_rcc.h ****   * @{
1070:Drivers/STM32C0xx_HAL_Driver/Inc/stm32c0xx_ll_rcc.h ****   */
1071:Drivers/STM32C0xx_HAL_Driver/Inc/stm32c0xx_ll_rcc.h **** 
1072:Drivers/STM32C0xx_HAL_Driver/Inc/stm32c0xx_ll_rcc.h **** /**
1073:Drivers/STM32C0xx_HAL_Driver/Inc/stm32c0xx_ll_rcc.h ****   * @brief  Enable Low speed clock
1074:Drivers/STM32C0xx_HAL_Driver/Inc/stm32c0xx_ll_rcc.h ****   * @rmtoll CSR1         LSCOEN        LL_RCC_LSCO_Enable
1075:Drivers/STM32C0xx_HAL_Driver/Inc/stm32c0xx_ll_rcc.h ****   * @retval None
1076:Drivers/STM32C0xx_HAL_Driver/Inc/stm32c0xx_ll_rcc.h ****   */
1077:Drivers/STM32C0xx_HAL_Driver/Inc/stm32c0xx_ll_rcc.h **** __STATIC_INLINE void LL_RCC_LSCO_Enable(void)
1078:Drivers/STM32C0xx_HAL_Driver/Inc/stm32c0xx_ll_rcc.h **** {
1079:Drivers/STM32C0xx_HAL_Driver/Inc/stm32c0xx_ll_rcc.h ****   SET_BIT(RCC->CSR1, RCC_CSR1_LSCOEN);
1080:Drivers/STM32C0xx_HAL_Driver/Inc/stm32c0xx_ll_rcc.h **** }
1081:Drivers/STM32C0xx_HAL_Driver/Inc/stm32c0xx_ll_rcc.h **** 
1082:Drivers/STM32C0xx_HAL_Driver/Inc/stm32c0xx_ll_rcc.h **** /**
1083:Drivers/STM32C0xx_HAL_Driver/Inc/stm32c0xx_ll_rcc.h ****   * @brief  Disable Low speed clock
1084:Drivers/STM32C0xx_HAL_Driver/Inc/stm32c0xx_ll_rcc.h ****   * @rmtoll CSR1         LSCOEN        LL_RCC_LSCO_Disable
1085:Drivers/STM32C0xx_HAL_Driver/Inc/stm32c0xx_ll_rcc.h ****   * @retval None
1086:Drivers/STM32C0xx_HAL_Driver/Inc/stm32c0xx_ll_rcc.h ****   */
1087:Drivers/STM32C0xx_HAL_Driver/Inc/stm32c0xx_ll_rcc.h **** __STATIC_INLINE void LL_RCC_LSCO_Disable(void)
1088:Drivers/STM32C0xx_HAL_Driver/Inc/stm32c0xx_ll_rcc.h **** {
1089:Drivers/STM32C0xx_HAL_Driver/Inc/stm32c0xx_ll_rcc.h ****   CLEAR_BIT(RCC->CSR1, RCC_CSR1_LSCOEN);
1090:Drivers/STM32C0xx_HAL_Driver/Inc/stm32c0xx_ll_rcc.h **** }
1091:Drivers/STM32C0xx_HAL_Driver/Inc/stm32c0xx_ll_rcc.h **** 
1092:Drivers/STM32C0xx_HAL_Driver/Inc/stm32c0xx_ll_rcc.h **** /**
1093:Drivers/STM32C0xx_HAL_Driver/Inc/stm32c0xx_ll_rcc.h ****   * @brief  Configure Low speed clock selection
1094:Drivers/STM32C0xx_HAL_Driver/Inc/stm32c0xx_ll_rcc.h ****   * @rmtoll CSR1         LSCOSEL       LL_RCC_LSCO_SetSource
1095:Drivers/STM32C0xx_HAL_Driver/Inc/stm32c0xx_ll_rcc.h ****   * @param  Source This parameter can be one of the following values:
1096:Drivers/STM32C0xx_HAL_Driver/Inc/stm32c0xx_ll_rcc.h ****   *         @arg @ref LL_RCC_LSCO_CLKSOURCE_LSI
1097:Drivers/STM32C0xx_HAL_Driver/Inc/stm32c0xx_ll_rcc.h ****   *         @arg @ref LL_RCC_LSCO_CLKSOURCE_LSE
1098:Drivers/STM32C0xx_HAL_Driver/Inc/stm32c0xx_ll_rcc.h ****   * @retval None
1099:Drivers/STM32C0xx_HAL_Driver/Inc/stm32c0xx_ll_rcc.h ****   */
1100:Drivers/STM32C0xx_HAL_Driver/Inc/stm32c0xx_ll_rcc.h **** __STATIC_INLINE void LL_RCC_LSCO_SetSource(uint32_t Source)
1101:Drivers/STM32C0xx_HAL_Driver/Inc/stm32c0xx_ll_rcc.h **** {
1102:Drivers/STM32C0xx_HAL_Driver/Inc/stm32c0xx_ll_rcc.h ****   MODIFY_REG(RCC->CSR1, RCC_CSR1_LSCOSEL, Source);
1103:Drivers/STM32C0xx_HAL_Driver/Inc/stm32c0xx_ll_rcc.h **** }
1104:Drivers/STM32C0xx_HAL_Driver/Inc/stm32c0xx_ll_rcc.h **** 
1105:Drivers/STM32C0xx_HAL_Driver/Inc/stm32c0xx_ll_rcc.h **** /**
1106:Drivers/STM32C0xx_HAL_Driver/Inc/stm32c0xx_ll_rcc.h ****   * @brief  Get Low speed clock selection
1107:Drivers/STM32C0xx_HAL_Driver/Inc/stm32c0xx_ll_rcc.h ****   * @rmtoll CSR1         LSCOSEL       LL_RCC_LSCO_GetSource
1108:Drivers/STM32C0xx_HAL_Driver/Inc/stm32c0xx_ll_rcc.h ****   * @retval Returned value can be one of the following values:
1109:Drivers/STM32C0xx_HAL_Driver/Inc/stm32c0xx_ll_rcc.h ****   *         @arg @ref LL_RCC_LSCO_CLKSOURCE_LSI
1110:Drivers/STM32C0xx_HAL_Driver/Inc/stm32c0xx_ll_rcc.h ****   *         @arg @ref LL_RCC_LSCO_CLKSOURCE_LSE
1111:Drivers/STM32C0xx_HAL_Driver/Inc/stm32c0xx_ll_rcc.h ****   */
1112:Drivers/STM32C0xx_HAL_Driver/Inc/stm32c0xx_ll_rcc.h **** __STATIC_INLINE uint32_t LL_RCC_LSCO_GetSource(void)
1113:Drivers/STM32C0xx_HAL_Driver/Inc/stm32c0xx_ll_rcc.h **** {
1114:Drivers/STM32C0xx_HAL_Driver/Inc/stm32c0xx_ll_rcc.h ****   return (uint32_t)(READ_BIT(RCC->CSR1, RCC_CSR1_LSCOSEL));
1115:Drivers/STM32C0xx_HAL_Driver/Inc/stm32c0xx_ll_rcc.h **** }
1116:Drivers/STM32C0xx_HAL_Driver/Inc/stm32c0xx_ll_rcc.h **** 
1117:Drivers/STM32C0xx_HAL_Driver/Inc/stm32c0xx_ll_rcc.h **** /**
1118:Drivers/STM32C0xx_HAL_Driver/Inc/stm32c0xx_ll_rcc.h ****   * @}
1119:Drivers/STM32C0xx_HAL_Driver/Inc/stm32c0xx_ll_rcc.h ****   */
1120:Drivers/STM32C0xx_HAL_Driver/Inc/stm32c0xx_ll_rcc.h **** 
1121:Drivers/STM32C0xx_HAL_Driver/Inc/stm32c0xx_ll_rcc.h **** /** @defgroup RCC_LL_EF_System System
1122:Drivers/STM32C0xx_HAL_Driver/Inc/stm32c0xx_ll_rcc.h ****   * @{
ARM GAS  C:\Users\simay\AppData\Local\Temp\cctPq0DA.s 			page 56


1123:Drivers/STM32C0xx_HAL_Driver/Inc/stm32c0xx_ll_rcc.h ****   */
1124:Drivers/STM32C0xx_HAL_Driver/Inc/stm32c0xx_ll_rcc.h **** 
1125:Drivers/STM32C0xx_HAL_Driver/Inc/stm32c0xx_ll_rcc.h **** /**
1126:Drivers/STM32C0xx_HAL_Driver/Inc/stm32c0xx_ll_rcc.h ****   * @brief  Configure the system clock source
1127:Drivers/STM32C0xx_HAL_Driver/Inc/stm32c0xx_ll_rcc.h ****   * @rmtoll CFGR         SW            LL_RCC_SetSysClkSource
1128:Drivers/STM32C0xx_HAL_Driver/Inc/stm32c0xx_ll_rcc.h ****   * @param  Source This parameter can be one of the following values:
1129:Drivers/STM32C0xx_HAL_Driver/Inc/stm32c0xx_ll_rcc.h ****   *         @arg @ref LL_RCC_SYS_CLKSOURCE_HSI
1130:Drivers/STM32C0xx_HAL_Driver/Inc/stm32c0xx_ll_rcc.h ****   *         @arg @ref LL_RCC_SYS_CLKSOURCE_HSE
1131:Drivers/STM32C0xx_HAL_Driver/Inc/stm32c0xx_ll_rcc.h ****   *         @arg @ref LL_RCC_SYS_CLKSOURCE_HSIUSB48 (*)
1132:Drivers/STM32C0xx_HAL_Driver/Inc/stm32c0xx_ll_rcc.h ****   *         @arg @ref LL_RCC_SYS_CLKSOURCE_LSI
1133:Drivers/STM32C0xx_HAL_Driver/Inc/stm32c0xx_ll_rcc.h ****   *         @arg @ref LL_RCC_SYS_CLKSOURCE_LSE
1134:Drivers/STM32C0xx_HAL_Driver/Inc/stm32c0xx_ll_rcc.h ****   * @note (*) peripheral not available on all devices
1135:Drivers/STM32C0xx_HAL_Driver/Inc/stm32c0xx_ll_rcc.h ****   * @retval None
1136:Drivers/STM32C0xx_HAL_Driver/Inc/stm32c0xx_ll_rcc.h ****   */
1137:Drivers/STM32C0xx_HAL_Driver/Inc/stm32c0xx_ll_rcc.h **** __STATIC_INLINE void LL_RCC_SetSysClkSource(uint32_t Source)
1138:Drivers/STM32C0xx_HAL_Driver/Inc/stm32c0xx_ll_rcc.h **** {
1139:Drivers/STM32C0xx_HAL_Driver/Inc/stm32c0xx_ll_rcc.h ****   MODIFY_REG(RCC->CFGR, RCC_CFGR_SW, Source);
1140:Drivers/STM32C0xx_HAL_Driver/Inc/stm32c0xx_ll_rcc.h **** }
