ARM GAS  C:\Users\simay\AppData\Local\Temp\ccshm0l4.s 			page 1


   1              		.cpu cortex-m0plus
   2              		.arch armv6s-m
   3              		.fpu softvfp
   4              		.eabi_attribute 20, 1
   5              		.eabi_attribute 21, 1
   6              		.eabi_attribute 23, 3
   7              		.eabi_attribute 24, 1
   8              		.eabi_attribute 25, 1
   9              		.eabi_attribute 26, 1
  10              		.eabi_attribute 30, 1
  11              		.eabi_attribute 34, 0
  12              		.eabi_attribute 18, 4
  13              		.file	"stm32c0xx_nucleo.c"
  14              		.text
  15              	.Ltext0:
  16              		.cfi_sections	.debug_frame
  17              		.file 1 "Drivers/BSP/STM32C0xx_Nucleo/stm32c0xx_nucleo.c"
  18              		.section	.text.COM1_MspInit,"ax",%progbits
  19              		.align	1
  20              		.syntax unified
  21              		.code	16
  22              		.thumb_func
  24              	COM1_MspInit:
  25              	.LVL0:
  26              	.LFB253:
   1:Drivers/BSP/STM32C0xx_Nucleo/stm32c0xx_nucleo.c **** /**
   2:Drivers/BSP/STM32C0xx_Nucleo/stm32c0xx_nucleo.c ****   ******************************************************************************
   3:Drivers/BSP/STM32C0xx_Nucleo/stm32c0xx_nucleo.c ****   * @file    stm32c0xx_nucleo.c
   4:Drivers/BSP/STM32C0xx_Nucleo/stm32c0xx_nucleo.c ****   * @author  MCD Application Team
   5:Drivers/BSP/STM32C0xx_Nucleo/stm32c0xx_nucleo.c ****   * @brief   This file provides set of firmware functions to manage:
   6:Drivers/BSP/STM32C0xx_Nucleo/stm32c0xx_nucleo.c ****   *          - LEDs and push-button available on STM32C0xx-Nucleo Kit
   7:Drivers/BSP/STM32C0xx_Nucleo/stm32c0xx_nucleo.c ****   *            from STMicroelectronics
   8:Drivers/BSP/STM32C0xx_Nucleo/stm32c0xx_nucleo.c ****   ******************************************************************************
   9:Drivers/BSP/STM32C0xx_Nucleo/stm32c0xx_nucleo.c ****   * @attention
  10:Drivers/BSP/STM32C0xx_Nucleo/stm32c0xx_nucleo.c ****   *
  11:Drivers/BSP/STM32C0xx_Nucleo/stm32c0xx_nucleo.c ****   * Copyright (c) 2022 STMicroelectronics.
  12:Drivers/BSP/STM32C0xx_Nucleo/stm32c0xx_nucleo.c ****   * All rights reserved.
  13:Drivers/BSP/STM32C0xx_Nucleo/stm32c0xx_nucleo.c ****   *
  14:Drivers/BSP/STM32C0xx_Nucleo/stm32c0xx_nucleo.c ****   * This software is licensed under terms that can be found in the LICENSE file
  15:Drivers/BSP/STM32C0xx_Nucleo/stm32c0xx_nucleo.c ****   * in the root directory of this software component.
  16:Drivers/BSP/STM32C0xx_Nucleo/stm32c0xx_nucleo.c ****   * If no LICENSE file comes with this software, it is provided AS-IS.
  17:Drivers/BSP/STM32C0xx_Nucleo/stm32c0xx_nucleo.c ****   *
  18:Drivers/BSP/STM32C0xx_Nucleo/stm32c0xx_nucleo.c ****   ******************************************************************************
  19:Drivers/BSP/STM32C0xx_Nucleo/stm32c0xx_nucleo.c ****   */
  20:Drivers/BSP/STM32C0xx_Nucleo/stm32c0xx_nucleo.c **** 
  21:Drivers/BSP/STM32C0xx_Nucleo/stm32c0xx_nucleo.c **** /* Includes ------------------------------------------------------------------*/
  22:Drivers/BSP/STM32C0xx_Nucleo/stm32c0xx_nucleo.c **** #include "stm32c0xx_nucleo.h"
  23:Drivers/BSP/STM32C0xx_Nucleo/stm32c0xx_nucleo.c **** #if defined(__ICCARM__)
  24:Drivers/BSP/STM32C0xx_Nucleo/stm32c0xx_nucleo.c **** #include <LowLevelIOInterface.h>
  25:Drivers/BSP/STM32C0xx_Nucleo/stm32c0xx_nucleo.c **** #endif /* __ICCARM__ */
  26:Drivers/BSP/STM32C0xx_Nucleo/stm32c0xx_nucleo.c **** /** @addtogroup BSP
  27:Drivers/BSP/STM32C0xx_Nucleo/stm32c0xx_nucleo.c ****   * @{
  28:Drivers/BSP/STM32C0xx_Nucleo/stm32c0xx_nucleo.c ****   */
  29:Drivers/BSP/STM32C0xx_Nucleo/stm32c0xx_nucleo.c **** 
  30:Drivers/BSP/STM32C0xx_Nucleo/stm32c0xx_nucleo.c **** /** @addtogroup STM32C0XX_NUCLEO
  31:Drivers/BSP/STM32C0xx_Nucleo/stm32c0xx_nucleo.c ****   * @{
  32:Drivers/BSP/STM32C0xx_Nucleo/stm32c0xx_nucleo.c ****   */
ARM GAS  C:\Users\simay\AppData\Local\Temp\ccshm0l4.s 			page 2


  33:Drivers/BSP/STM32C0xx_Nucleo/stm32c0xx_nucleo.c **** 
  34:Drivers/BSP/STM32C0xx_Nucleo/stm32c0xx_nucleo.c **** /** @addtogroup STM32C0XX_NUCLEO_LOW_LEVEL
  35:Drivers/BSP/STM32C0xx_Nucleo/stm32c0xx_nucleo.c ****   * @brief This file provides set of firmware functions to manage Leds and push-button
  36:Drivers/BSP/STM32C0xx_Nucleo/stm32c0xx_nucleo.c ****   *        available on STM32C0xx-Nucleo Kit from STMicroelectronics.
  37:Drivers/BSP/STM32C0xx_Nucleo/stm32c0xx_nucleo.c ****   * @{
  38:Drivers/BSP/STM32C0xx_Nucleo/stm32c0xx_nucleo.c ****   */
  39:Drivers/BSP/STM32C0xx_Nucleo/stm32c0xx_nucleo.c **** 
  40:Drivers/BSP/STM32C0xx_Nucleo/stm32c0xx_nucleo.c **** /** @defgroup STM32C0XX_NUCLEO_LOW_LEVEL_Private_Defines LOW LEVEL Private Defines
  41:Drivers/BSP/STM32C0xx_Nucleo/stm32c0xx_nucleo.c ****   * @{
  42:Drivers/BSP/STM32C0xx_Nucleo/stm32c0xx_nucleo.c ****   */
  43:Drivers/BSP/STM32C0xx_Nucleo/stm32c0xx_nucleo.c **** 
  44:Drivers/BSP/STM32C0xx_Nucleo/stm32c0xx_nucleo.c **** /**
  45:Drivers/BSP/STM32C0xx_Nucleo/stm32c0xx_nucleo.c ****   * @}
  46:Drivers/BSP/STM32C0xx_Nucleo/stm32c0xx_nucleo.c ****   */
  47:Drivers/BSP/STM32C0xx_Nucleo/stm32c0xx_nucleo.c **** 
  48:Drivers/BSP/STM32C0xx_Nucleo/stm32c0xx_nucleo.c **** /** @defgroup STM32C0XX_NUCLEO_LOW_LEVEL_Private_TypesDefinitions LOW LEVEL Private Typedef
  49:Drivers/BSP/STM32C0xx_Nucleo/stm32c0xx_nucleo.c ****   * @{
  50:Drivers/BSP/STM32C0xx_Nucleo/stm32c0xx_nucleo.c ****   */
  51:Drivers/BSP/STM32C0xx_Nucleo/stm32c0xx_nucleo.c **** typedef void (* BSP_EXTI_LineCallback)(void);
  52:Drivers/BSP/STM32C0xx_Nucleo/stm32c0xx_nucleo.c **** /**
  53:Drivers/BSP/STM32C0xx_Nucleo/stm32c0xx_nucleo.c ****   * @}
  54:Drivers/BSP/STM32C0xx_Nucleo/stm32c0xx_nucleo.c ****   */
  55:Drivers/BSP/STM32C0xx_Nucleo/stm32c0xx_nucleo.c **** 
  56:Drivers/BSP/STM32C0xx_Nucleo/stm32c0xx_nucleo.c **** /** @defgroup STM32C0XX_NUCLEO_LOW_LEVEL_Exported_Variables LOW LEVEL Exported Variables
  57:Drivers/BSP/STM32C0xx_Nucleo/stm32c0xx_nucleo.c ****   * @{
  58:Drivers/BSP/STM32C0xx_Nucleo/stm32c0xx_nucleo.c ****   */
  59:Drivers/BSP/STM32C0xx_Nucleo/stm32c0xx_nucleo.c **** EXTI_HandleTypeDef hpb_exti[BUTTONn];
  60:Drivers/BSP/STM32C0xx_Nucleo/stm32c0xx_nucleo.c **** #if (USE_BSP_COM_FEATURE > 0)
  61:Drivers/BSP/STM32C0xx_Nucleo/stm32c0xx_nucleo.c **** UART_HandleTypeDef hcom_uart[COMn];
  62:Drivers/BSP/STM32C0xx_Nucleo/stm32c0xx_nucleo.c **** USART_TypeDef *COM_USART[COMn]   = {COM1_UART};
  63:Drivers/BSP/STM32C0xx_Nucleo/stm32c0xx_nucleo.c **** #endif /* USE_BSP_COM_FEATURE */
  64:Drivers/BSP/STM32C0xx_Nucleo/stm32c0xx_nucleo.c **** /**
  65:Drivers/BSP/STM32C0xx_Nucleo/stm32c0xx_nucleo.c ****   * @}
  66:Drivers/BSP/STM32C0xx_Nucleo/stm32c0xx_nucleo.c ****   */
  67:Drivers/BSP/STM32C0xx_Nucleo/stm32c0xx_nucleo.c **** /** @defgroup STM32C0XX_NUCLEO_LOW_LEVEL_Private_Variables LOW LEVEL Private Variables
  68:Drivers/BSP/STM32C0xx_Nucleo/stm32c0xx_nucleo.c ****   * @{
  69:Drivers/BSP/STM32C0xx_Nucleo/stm32c0xx_nucleo.c ****   */
  70:Drivers/BSP/STM32C0xx_Nucleo/stm32c0xx_nucleo.c **** static GPIO_TypeDef *LED_PORT[LEDn] =
  71:Drivers/BSP/STM32C0xx_Nucleo/stm32c0xx_nucleo.c **** {
  72:Drivers/BSP/STM32C0xx_Nucleo/stm32c0xx_nucleo.c **** #if defined (USE_NUCLEO_64)
  73:Drivers/BSP/STM32C0xx_Nucleo/stm32c0xx_nucleo.c ****   LED1_GPIO_PORT,
  74:Drivers/BSP/STM32C0xx_Nucleo/stm32c0xx_nucleo.c ****   LED2_GPIO_PORT
  75:Drivers/BSP/STM32C0xx_Nucleo/stm32c0xx_nucleo.c **** #else
  76:Drivers/BSP/STM32C0xx_Nucleo/stm32c0xx_nucleo.c ****   LED4_GPIO_PORT
  77:Drivers/BSP/STM32C0xx_Nucleo/stm32c0xx_nucleo.c **** #endif /* USE_NUCLEO_64 */
  78:Drivers/BSP/STM32C0xx_Nucleo/stm32c0xx_nucleo.c **** };
  79:Drivers/BSP/STM32C0xx_Nucleo/stm32c0xx_nucleo.c **** static const uint16_t LED_PIN[LEDn] =
  80:Drivers/BSP/STM32C0xx_Nucleo/stm32c0xx_nucleo.c **** {
  81:Drivers/BSP/STM32C0xx_Nucleo/stm32c0xx_nucleo.c **** #if defined (USE_NUCLEO_64)
  82:Drivers/BSP/STM32C0xx_Nucleo/stm32c0xx_nucleo.c ****   LED1_PIN,
  83:Drivers/BSP/STM32C0xx_Nucleo/stm32c0xx_nucleo.c ****   LED2_PIN
  84:Drivers/BSP/STM32C0xx_Nucleo/stm32c0xx_nucleo.c **** #else
  85:Drivers/BSP/STM32C0xx_Nucleo/stm32c0xx_nucleo.c ****   LED4_PIN
  86:Drivers/BSP/STM32C0xx_Nucleo/stm32c0xx_nucleo.c **** #endif
  87:Drivers/BSP/STM32C0xx_Nucleo/stm32c0xx_nucleo.c **** };
  88:Drivers/BSP/STM32C0xx_Nucleo/stm32c0xx_nucleo.c **** 
  89:Drivers/BSP/STM32C0xx_Nucleo/stm32c0xx_nucleo.c **** static GPIO_TypeDef *BUTTON_PORT[BUTTONn]   = {BUTTON_USER_GPIO_PORT};
ARM GAS  C:\Users\simay\AppData\Local\Temp\ccshm0l4.s 			page 3


  90:Drivers/BSP/STM32C0xx_Nucleo/stm32c0xx_nucleo.c **** static const uint16_t BUTTON_PIN[BUTTONn]   = {BUTTON_USER_PIN};
  91:Drivers/BSP/STM32C0xx_Nucleo/stm32c0xx_nucleo.c **** static const IRQn_Type BUTTON_IRQn[BUTTONn] = {BUTTON_USER_EXTI_IRQn};
  92:Drivers/BSP/STM32C0xx_Nucleo/stm32c0xx_nucleo.c **** 
  93:Drivers/BSP/STM32C0xx_Nucleo/stm32c0xx_nucleo.c **** #if (USE_BSP_COM_FEATURE > 0)
  94:Drivers/BSP/STM32C0xx_Nucleo/stm32c0xx_nucleo.c **** #if (USE_COM_LOG > 0)
  95:Drivers/BSP/STM32C0xx_Nucleo/stm32c0xx_nucleo.c **** static COM_TypeDef COM_ActiveLogPort = COM1;
  96:Drivers/BSP/STM32C0xx_Nucleo/stm32c0xx_nucleo.c **** #endif /* USE_COM_LOG */
  97:Drivers/BSP/STM32C0xx_Nucleo/stm32c0xx_nucleo.c **** #if (USE_HAL_UART_REGISTER_CALLBACKS == 1)
  98:Drivers/BSP/STM32C0xx_Nucleo/stm32c0xx_nucleo.c **** static uint32_t IsComMspCbValid[COMn] = {0};
  99:Drivers/BSP/STM32C0xx_Nucleo/stm32c0xx_nucleo.c **** #endif /* (USE_HAL_UART_REGISTER_CALLBACKS == 1) */
 100:Drivers/BSP/STM32C0xx_Nucleo/stm32c0xx_nucleo.c **** #endif /* USE_BSP_COM_FEATURE) */
 101:Drivers/BSP/STM32C0xx_Nucleo/stm32c0xx_nucleo.c **** 
 102:Drivers/BSP/STM32C0xx_Nucleo/stm32c0xx_nucleo.c **** #if defined(__ICCARM__)
 103:Drivers/BSP/STM32C0xx_Nucleo/stm32c0xx_nucleo.c **** /* New definition from EWARM V9, compatible with EWARM8 */
 104:Drivers/BSP/STM32C0xx_Nucleo/stm32c0xx_nucleo.c **** int iar_fputc(int ch);
 105:Drivers/BSP/STM32C0xx_Nucleo/stm32c0xx_nucleo.c **** #define PUTCHAR_PROTOTYPE int iar_fputc(int ch)
 106:Drivers/BSP/STM32C0xx_Nucleo/stm32c0xx_nucleo.c **** 
 107:Drivers/BSP/STM32C0xx_Nucleo/stm32c0xx_nucleo.c **** #elif defined (__CC_ARM) || defined(__ARMCC_VERSION)
 108:Drivers/BSP/STM32C0xx_Nucleo/stm32c0xx_nucleo.c **** /* ARM Compiler 5/6 */
 109:Drivers/BSP/STM32C0xx_Nucleo/stm32c0xx_nucleo.c **** #define PUTCHAR_PROTOTYPE int fputc(int ch, FILE *f)
 110:Drivers/BSP/STM32C0xx_Nucleo/stm32c0xx_nucleo.c **** 
 111:Drivers/BSP/STM32C0xx_Nucleo/stm32c0xx_nucleo.c **** #elif defined(__GNUC__)
 112:Drivers/BSP/STM32C0xx_Nucleo/stm32c0xx_nucleo.c **** #define PUTCHAR_PROTOTYPE int __io_putchar(int ch)
 113:Drivers/BSP/STM32C0xx_Nucleo/stm32c0xx_nucleo.c **** #endif /* __ICCARM__ */
 114:Drivers/BSP/STM32C0xx_Nucleo/stm32c0xx_nucleo.c **** 
 115:Drivers/BSP/STM32C0xx_Nucleo/stm32c0xx_nucleo.c **** /**
 116:Drivers/BSP/STM32C0xx_Nucleo/stm32c0xx_nucleo.c ****   * @}
 117:Drivers/BSP/STM32C0xx_Nucleo/stm32c0xx_nucleo.c ****   */
 118:Drivers/BSP/STM32C0xx_Nucleo/stm32c0xx_nucleo.c **** 
 119:Drivers/BSP/STM32C0xx_Nucleo/stm32c0xx_nucleo.c **** /** @defgroup STM32C0XX_NUCLEO_LOW_LEVEL_Private_FunctionPrototypes LOW LEVEL Private functions Pro
 120:Drivers/BSP/STM32C0xx_Nucleo/stm32c0xx_nucleo.c ****   * @{
 121:Drivers/BSP/STM32C0xx_Nucleo/stm32c0xx_nucleo.c ****   */
 122:Drivers/BSP/STM32C0xx_Nucleo/stm32c0xx_nucleo.c **** static void BUTTON_USER_EXTI_Callback(void);
 123:Drivers/BSP/STM32C0xx_Nucleo/stm32c0xx_nucleo.c **** #if (USE_BSP_COM_FEATURE > 0)
 124:Drivers/BSP/STM32C0xx_Nucleo/stm32c0xx_nucleo.c **** static void COM1_MspInit(UART_HandleTypeDef *huart);
 125:Drivers/BSP/STM32C0xx_Nucleo/stm32c0xx_nucleo.c **** static void COM1_MspDeInit(UART_HandleTypeDef *huart);
 126:Drivers/BSP/STM32C0xx_Nucleo/stm32c0xx_nucleo.c **** #endif /* USE_BSP_COM_FEATURE */
 127:Drivers/BSP/STM32C0xx_Nucleo/stm32c0xx_nucleo.c **** /**
 128:Drivers/BSP/STM32C0xx_Nucleo/stm32c0xx_nucleo.c ****   * @}
 129:Drivers/BSP/STM32C0xx_Nucleo/stm32c0xx_nucleo.c ****   */
 130:Drivers/BSP/STM32C0xx_Nucleo/stm32c0xx_nucleo.c **** 
 131:Drivers/BSP/STM32C0xx_Nucleo/stm32c0xx_nucleo.c **** /** @defgroup STM32C0XX_NUCLEO_LOW_LEVEL_Exported_Functions LOW LEVEL Exported Functions
 132:Drivers/BSP/STM32C0xx_Nucleo/stm32c0xx_nucleo.c ****   * @{
 133:Drivers/BSP/STM32C0xx_Nucleo/stm32c0xx_nucleo.c ****   */
 134:Drivers/BSP/STM32C0xx_Nucleo/stm32c0xx_nucleo.c **** 
 135:Drivers/BSP/STM32C0xx_Nucleo/stm32c0xx_nucleo.c **** /**
 136:Drivers/BSP/STM32C0xx_Nucleo/stm32c0xx_nucleo.c ****   * @brief  This method returns the STM32C0XX NUCLEO BSP Driver revision
 137:Drivers/BSP/STM32C0xx_Nucleo/stm32c0xx_nucleo.c ****   * @retval version: 0xXYZR (8bits for each decimal, R for RC)
 138:Drivers/BSP/STM32C0xx_Nucleo/stm32c0xx_nucleo.c ****   */
 139:Drivers/BSP/STM32C0xx_Nucleo/stm32c0xx_nucleo.c **** int32_t BSP_GetVersion(void)
 140:Drivers/BSP/STM32C0xx_Nucleo/stm32c0xx_nucleo.c **** {
 141:Drivers/BSP/STM32C0xx_Nucleo/stm32c0xx_nucleo.c ****   return (int32_t)STM32C0XX_NUCLEO_BSP_VERSION;
 142:Drivers/BSP/STM32C0xx_Nucleo/stm32c0xx_nucleo.c **** }
 143:Drivers/BSP/STM32C0xx_Nucleo/stm32c0xx_nucleo.c **** 
 144:Drivers/BSP/STM32C0xx_Nucleo/stm32c0xx_nucleo.c **** /**
 145:Drivers/BSP/STM32C0xx_Nucleo/stm32c0xx_nucleo.c ****   * @brief  This method returns the board name
 146:Drivers/BSP/STM32C0xx_Nucleo/stm32c0xx_nucleo.c ****   * @retval pointer to the board name string
ARM GAS  C:\Users\simay\AppData\Local\Temp\ccshm0l4.s 			page 4


 147:Drivers/BSP/STM32C0xx_Nucleo/stm32c0xx_nucleo.c ****   */
 148:Drivers/BSP/STM32C0xx_Nucleo/stm32c0xx_nucleo.c **** const uint8_t *BSP_GetBoardName(void)
 149:Drivers/BSP/STM32C0xx_Nucleo/stm32c0xx_nucleo.c **** {
 150:Drivers/BSP/STM32C0xx_Nucleo/stm32c0xx_nucleo.c ****   return (uint8_t *)STM32C0XX_NUCLEO_BSP_BOARD_NAME;
 151:Drivers/BSP/STM32C0xx_Nucleo/stm32c0xx_nucleo.c **** }
 152:Drivers/BSP/STM32C0xx_Nucleo/stm32c0xx_nucleo.c **** 
 153:Drivers/BSP/STM32C0xx_Nucleo/stm32c0xx_nucleo.c **** /**
 154:Drivers/BSP/STM32C0xx_Nucleo/stm32c0xx_nucleo.c ****   * @brief  This method returns the board ID
 155:Drivers/BSP/STM32C0xx_Nucleo/stm32c0xx_nucleo.c ****   * @retval pointer to the board name string
 156:Drivers/BSP/STM32C0xx_Nucleo/stm32c0xx_nucleo.c ****   */
 157:Drivers/BSP/STM32C0xx_Nucleo/stm32c0xx_nucleo.c **** const uint8_t *BSP_GetBoardID(void)
 158:Drivers/BSP/STM32C0xx_Nucleo/stm32c0xx_nucleo.c **** {
 159:Drivers/BSP/STM32C0xx_Nucleo/stm32c0xx_nucleo.c ****   return (uint8_t *)STM32C0XX_NUCLEO_BSP_BOARD_ID;
 160:Drivers/BSP/STM32C0xx_Nucleo/stm32c0xx_nucleo.c **** }
 161:Drivers/BSP/STM32C0xx_Nucleo/stm32c0xx_nucleo.c **** 
 162:Drivers/BSP/STM32C0xx_Nucleo/stm32c0xx_nucleo.c **** /**
 163:Drivers/BSP/STM32C0xx_Nucleo/stm32c0xx_nucleo.c ****   * @brief  Configures LED GPIO.
 164:Drivers/BSP/STM32C0xx_Nucleo/stm32c0xx_nucleo.c ****   * @param  Led Specifies the Led to be configured.
 165:Drivers/BSP/STM32C0xx_Nucleo/stm32c0xx_nucleo.c ****   *   This parameter can be one of following parameters:
 166:Drivers/BSP/STM32C0xx_Nucleo/stm32c0xx_nucleo.c ****   *     @arg  LED1
 167:Drivers/BSP/STM32C0xx_Nucleo/stm32c0xx_nucleo.c ****   *     @arg  LED2
 168:Drivers/BSP/STM32C0xx_Nucleo/stm32c0xx_nucleo.c ****   *     @arg  LED4
 169:Drivers/BSP/STM32C0xx_Nucleo/stm32c0xx_nucleo.c ****   * @retval BSP status
 170:Drivers/BSP/STM32C0xx_Nucleo/stm32c0xx_nucleo.c ****   */
 171:Drivers/BSP/STM32C0xx_Nucleo/stm32c0xx_nucleo.c **** int32_t BSP_LED_Init(Led_TypeDef Led)
 172:Drivers/BSP/STM32C0xx_Nucleo/stm32c0xx_nucleo.c **** {
 173:Drivers/BSP/STM32C0xx_Nucleo/stm32c0xx_nucleo.c ****   int32_t ret = BSP_ERROR_NONE;
 174:Drivers/BSP/STM32C0xx_Nucleo/stm32c0xx_nucleo.c ****   GPIO_InitTypeDef  gpio_init_structure;
 175:Drivers/BSP/STM32C0xx_Nucleo/stm32c0xx_nucleo.c **** 
 176:Drivers/BSP/STM32C0xx_Nucleo/stm32c0xx_nucleo.c **** #if defined (USE_NUCLEO_64)
 177:Drivers/BSP/STM32C0xx_Nucleo/stm32c0xx_nucleo.c ****   if ((Led != LED1)
 178:Drivers/BSP/STM32C0xx_Nucleo/stm32c0xx_nucleo.c ****       && (Led != LED2))
 179:Drivers/BSP/STM32C0xx_Nucleo/stm32c0xx_nucleo.c **** #else
 180:Drivers/BSP/STM32C0xx_Nucleo/stm32c0xx_nucleo.c ****   if (Led != LED4)
 181:Drivers/BSP/STM32C0xx_Nucleo/stm32c0xx_nucleo.c **** #endif /* defined (USE_NUCLEO_64) */
 182:Drivers/BSP/STM32C0xx_Nucleo/stm32c0xx_nucleo.c ****   {
 183:Drivers/BSP/STM32C0xx_Nucleo/stm32c0xx_nucleo.c ****     ret = BSP_ERROR_WRONG_PARAM;
 184:Drivers/BSP/STM32C0xx_Nucleo/stm32c0xx_nucleo.c ****   }
 185:Drivers/BSP/STM32C0xx_Nucleo/stm32c0xx_nucleo.c ****   else
 186:Drivers/BSP/STM32C0xx_Nucleo/stm32c0xx_nucleo.c ****   {
 187:Drivers/BSP/STM32C0xx_Nucleo/stm32c0xx_nucleo.c ****     /* Enable the GPIO LED Clock */
 188:Drivers/BSP/STM32C0xx_Nucleo/stm32c0xx_nucleo.c **** #if defined (USE_NUCLEO_64)
 189:Drivers/BSP/STM32C0xx_Nucleo/stm32c0xx_nucleo.c ****     if (Led == LED1)
 190:Drivers/BSP/STM32C0xx_Nucleo/stm32c0xx_nucleo.c ****     {
 191:Drivers/BSP/STM32C0xx_Nucleo/stm32c0xx_nucleo.c ****       LED1_GPIO_CLK_ENABLE();
 192:Drivers/BSP/STM32C0xx_Nucleo/stm32c0xx_nucleo.c ****     }
 193:Drivers/BSP/STM32C0xx_Nucleo/stm32c0xx_nucleo.c ****     else
 194:Drivers/BSP/STM32C0xx_Nucleo/stm32c0xx_nucleo.c ****     {
 195:Drivers/BSP/STM32C0xx_Nucleo/stm32c0xx_nucleo.c ****       LED2_GPIO_CLK_ENABLE();
 196:Drivers/BSP/STM32C0xx_Nucleo/stm32c0xx_nucleo.c ****     }
 197:Drivers/BSP/STM32C0xx_Nucleo/stm32c0xx_nucleo.c **** #else
 198:Drivers/BSP/STM32C0xx_Nucleo/stm32c0xx_nucleo.c ****     if (Led == LED4)
 199:Drivers/BSP/STM32C0xx_Nucleo/stm32c0xx_nucleo.c ****     {
 200:Drivers/BSP/STM32C0xx_Nucleo/stm32c0xx_nucleo.c ****       LED4_GPIO_CLK_ENABLE();
 201:Drivers/BSP/STM32C0xx_Nucleo/stm32c0xx_nucleo.c ****     }
 202:Drivers/BSP/STM32C0xx_Nucleo/stm32c0xx_nucleo.c **** #endif /* defined (USE_NUCLEO_64) */
 203:Drivers/BSP/STM32C0xx_Nucleo/stm32c0xx_nucleo.c **** 
ARM GAS  C:\Users\simay\AppData\Local\Temp\ccshm0l4.s 			page 5


 204:Drivers/BSP/STM32C0xx_Nucleo/stm32c0xx_nucleo.c ****     /* Configure the GPIO_LED pin */
 205:Drivers/BSP/STM32C0xx_Nucleo/stm32c0xx_nucleo.c ****     gpio_init_structure.Pin   = LED_PIN[Led];
 206:Drivers/BSP/STM32C0xx_Nucleo/stm32c0xx_nucleo.c ****     gpio_init_structure.Mode  = GPIO_MODE_OUTPUT_PP;
 207:Drivers/BSP/STM32C0xx_Nucleo/stm32c0xx_nucleo.c ****     gpio_init_structure.Pull  = GPIO_NOPULL;
 208:Drivers/BSP/STM32C0xx_Nucleo/stm32c0xx_nucleo.c ****     gpio_init_structure.Speed = GPIO_SPEED_FREQ_VERY_HIGH;
 209:Drivers/BSP/STM32C0xx_Nucleo/stm32c0xx_nucleo.c **** 
 210:Drivers/BSP/STM32C0xx_Nucleo/stm32c0xx_nucleo.c ****     HAL_GPIO_Init(LED_PORT[Led], &gpio_init_structure);
 211:Drivers/BSP/STM32C0xx_Nucleo/stm32c0xx_nucleo.c **** #if defined (USE_NUCLEO_64)
 212:Drivers/BSP/STM32C0xx_Nucleo/stm32c0xx_nucleo.c ****     if (Led == LED2)
 213:Drivers/BSP/STM32C0xx_Nucleo/stm32c0xx_nucleo.c ****     {
 214:Drivers/BSP/STM32C0xx_Nucleo/stm32c0xx_nucleo.c ****      HAL_GPIO_WritePin(LED_PORT [Led], (uint16_t)LED_PIN[Led], GPIO_PIN_SET);
 215:Drivers/BSP/STM32C0xx_Nucleo/stm32c0xx_nucleo.c ****     }
 216:Drivers/BSP/STM32C0xx_Nucleo/stm32c0xx_nucleo.c **** #endif
 217:Drivers/BSP/STM32C0xx_Nucleo/stm32c0xx_nucleo.c ****   }
 218:Drivers/BSP/STM32C0xx_Nucleo/stm32c0xx_nucleo.c ****   return ret;
 219:Drivers/BSP/STM32C0xx_Nucleo/stm32c0xx_nucleo.c **** }
 220:Drivers/BSP/STM32C0xx_Nucleo/stm32c0xx_nucleo.c **** 
 221:Drivers/BSP/STM32C0xx_Nucleo/stm32c0xx_nucleo.c **** /**
 222:Drivers/BSP/STM32C0xx_Nucleo/stm32c0xx_nucleo.c ****   * @brief  DeInit LEDs.
 223:Drivers/BSP/STM32C0xx_Nucleo/stm32c0xx_nucleo.c ****   * @param  Led LED to be de-init.
 224:Drivers/BSP/STM32C0xx_Nucleo/stm32c0xx_nucleo.c ****   *   This parameter can be one of the following values:
 225:Drivers/BSP/STM32C0xx_Nucleo/stm32c0xx_nucleo.c ****   *     @arg  LED1
 226:Drivers/BSP/STM32C0xx_Nucleo/stm32c0xx_nucleo.c ****   *     @arg  LED2
 227:Drivers/BSP/STM32C0xx_Nucleo/stm32c0xx_nucleo.c ****   *     @arg  LED4
 228:Drivers/BSP/STM32C0xx_Nucleo/stm32c0xx_nucleo.c ****   * @retval BSP status
 229:Drivers/BSP/STM32C0xx_Nucleo/stm32c0xx_nucleo.c ****   */
 230:Drivers/BSP/STM32C0xx_Nucleo/stm32c0xx_nucleo.c **** int32_t BSP_LED_DeInit(Led_TypeDef Led)
 231:Drivers/BSP/STM32C0xx_Nucleo/stm32c0xx_nucleo.c **** {
 232:Drivers/BSP/STM32C0xx_Nucleo/stm32c0xx_nucleo.c ****   int32_t ret = BSP_ERROR_NONE;
 233:Drivers/BSP/STM32C0xx_Nucleo/stm32c0xx_nucleo.c ****   GPIO_InitTypeDef  gpio_init_structure;
 234:Drivers/BSP/STM32C0xx_Nucleo/stm32c0xx_nucleo.c **** 
 235:Drivers/BSP/STM32C0xx_Nucleo/stm32c0xx_nucleo.c **** #if defined (USE_NUCLEO_64)
 236:Drivers/BSP/STM32C0xx_Nucleo/stm32c0xx_nucleo.c ****   if ((Led != LED1)
 237:Drivers/BSP/STM32C0xx_Nucleo/stm32c0xx_nucleo.c ****       && (Led != LED2))
 238:Drivers/BSP/STM32C0xx_Nucleo/stm32c0xx_nucleo.c **** #else
 239:Drivers/BSP/STM32C0xx_Nucleo/stm32c0xx_nucleo.c ****   if (Led != LED4)
 240:Drivers/BSP/STM32C0xx_Nucleo/stm32c0xx_nucleo.c **** #endif /* defined (USE_NUCLEO_64) */
 241:Drivers/BSP/STM32C0xx_Nucleo/stm32c0xx_nucleo.c ****   {
 242:Drivers/BSP/STM32C0xx_Nucleo/stm32c0xx_nucleo.c ****     ret = BSP_ERROR_WRONG_PARAM;
 243:Drivers/BSP/STM32C0xx_Nucleo/stm32c0xx_nucleo.c ****   }
 244:Drivers/BSP/STM32C0xx_Nucleo/stm32c0xx_nucleo.c ****   else
 245:Drivers/BSP/STM32C0xx_Nucleo/stm32c0xx_nucleo.c ****   {
 246:Drivers/BSP/STM32C0xx_Nucleo/stm32c0xx_nucleo.c ****     /* Turn off LED */
 247:Drivers/BSP/STM32C0xx_Nucleo/stm32c0xx_nucleo.c ****     HAL_GPIO_WritePin(LED_PORT[Led], LED_PIN[Led], GPIO_PIN_RESET);
 248:Drivers/BSP/STM32C0xx_Nucleo/stm32c0xx_nucleo.c **** #if defined (USE_NUCLEO_64)
 249:Drivers/BSP/STM32C0xx_Nucleo/stm32c0xx_nucleo.c ****     if (Led == LED2)
 250:Drivers/BSP/STM32C0xx_Nucleo/stm32c0xx_nucleo.c ****     {
 251:Drivers/BSP/STM32C0xx_Nucleo/stm32c0xx_nucleo.c ****      HAL_GPIO_WritePin(LED_PORT [Led], (uint16_t)LED_PIN[Led], GPIO_PIN_SET);
 252:Drivers/BSP/STM32C0xx_Nucleo/stm32c0xx_nucleo.c ****     }
 253:Drivers/BSP/STM32C0xx_Nucleo/stm32c0xx_nucleo.c **** #endif
 254:Drivers/BSP/STM32C0xx_Nucleo/stm32c0xx_nucleo.c ****     /* DeInit the GPIO_LED pin */
 255:Drivers/BSP/STM32C0xx_Nucleo/stm32c0xx_nucleo.c ****     gpio_init_structure.Pin = LED_PIN[Led];
 256:Drivers/BSP/STM32C0xx_Nucleo/stm32c0xx_nucleo.c ****     HAL_GPIO_DeInit(LED_PORT[Led], gpio_init_structure.Pin);
 257:Drivers/BSP/STM32C0xx_Nucleo/stm32c0xx_nucleo.c ****   }
 258:Drivers/BSP/STM32C0xx_Nucleo/stm32c0xx_nucleo.c **** 
 259:Drivers/BSP/STM32C0xx_Nucleo/stm32c0xx_nucleo.c ****   return ret;
 260:Drivers/BSP/STM32C0xx_Nucleo/stm32c0xx_nucleo.c **** }
ARM GAS  C:\Users\simay\AppData\Local\Temp\ccshm0l4.s 			page 6


 261:Drivers/BSP/STM32C0xx_Nucleo/stm32c0xx_nucleo.c **** 
 262:Drivers/BSP/STM32C0xx_Nucleo/stm32c0xx_nucleo.c **** /**
 263:Drivers/BSP/STM32C0xx_Nucleo/stm32c0xx_nucleo.c ****   * @brief  Turns selected LED On.
 264:Drivers/BSP/STM32C0xx_Nucleo/stm32c0xx_nucleo.c ****   * @param  Led Specifies the Led to be set on.
 265:Drivers/BSP/STM32C0xx_Nucleo/stm32c0xx_nucleo.c ****   *   This parameter can be one of following parameters:
 266:Drivers/BSP/STM32C0xx_Nucleo/stm32c0xx_nucleo.c ****   *     @arg  LED1
 267:Drivers/BSP/STM32C0xx_Nucleo/stm32c0xx_nucleo.c ****   *     @arg  LED2
 268:Drivers/BSP/STM32C0xx_Nucleo/stm32c0xx_nucleo.c ****   *     @arg  LED4
 269:Drivers/BSP/STM32C0xx_Nucleo/stm32c0xx_nucleo.c ****   * @retval BSP status
 270:Drivers/BSP/STM32C0xx_Nucleo/stm32c0xx_nucleo.c ****   */
 271:Drivers/BSP/STM32C0xx_Nucleo/stm32c0xx_nucleo.c **** int32_t BSP_LED_On(Led_TypeDef Led)
 272:Drivers/BSP/STM32C0xx_Nucleo/stm32c0xx_nucleo.c **** {
 273:Drivers/BSP/STM32C0xx_Nucleo/stm32c0xx_nucleo.c ****   int32_t ret = BSP_ERROR_NONE;
 274:Drivers/BSP/STM32C0xx_Nucleo/stm32c0xx_nucleo.c **** 
 275:Drivers/BSP/STM32C0xx_Nucleo/stm32c0xx_nucleo.c **** #if defined (USE_NUCLEO_64)
 276:Drivers/BSP/STM32C0xx_Nucleo/stm32c0xx_nucleo.c ****   if ((Led != LED1)
 277:Drivers/BSP/STM32C0xx_Nucleo/stm32c0xx_nucleo.c ****       && (Led != LED2))
 278:Drivers/BSP/STM32C0xx_Nucleo/stm32c0xx_nucleo.c **** #else
 279:Drivers/BSP/STM32C0xx_Nucleo/stm32c0xx_nucleo.c ****   if (Led != LED4)
 280:Drivers/BSP/STM32C0xx_Nucleo/stm32c0xx_nucleo.c **** #endif /* defined (USE_NUCLEO_64) */
 281:Drivers/BSP/STM32C0xx_Nucleo/stm32c0xx_nucleo.c ****   {
 282:Drivers/BSP/STM32C0xx_Nucleo/stm32c0xx_nucleo.c ****     ret = BSP_ERROR_WRONG_PARAM;
 283:Drivers/BSP/STM32C0xx_Nucleo/stm32c0xx_nucleo.c ****   }
 284:Drivers/BSP/STM32C0xx_Nucleo/stm32c0xx_nucleo.c ****   else
 285:Drivers/BSP/STM32C0xx_Nucleo/stm32c0xx_nucleo.c ****   {
 286:Drivers/BSP/STM32C0xx_Nucleo/stm32c0xx_nucleo.c **** #if defined (USE_NUCLEO_64)
 287:Drivers/BSP/STM32C0xx_Nucleo/stm32c0xx_nucleo.c ****     if (Led == LED1)
 288:Drivers/BSP/STM32C0xx_Nucleo/stm32c0xx_nucleo.c ****     {
 289:Drivers/BSP/STM32C0xx_Nucleo/stm32c0xx_nucleo.c ****       HAL_GPIO_WritePin(LED_PORT[Led], LED_PIN[Led], GPIO_PIN_SET);
 290:Drivers/BSP/STM32C0xx_Nucleo/stm32c0xx_nucleo.c ****     }
 291:Drivers/BSP/STM32C0xx_Nucleo/stm32c0xx_nucleo.c ****     else
 292:Drivers/BSP/STM32C0xx_Nucleo/stm32c0xx_nucleo.c ****     {
 293:Drivers/BSP/STM32C0xx_Nucleo/stm32c0xx_nucleo.c ****       HAL_GPIO_WritePin(LED_PORT[Led], LED_PIN[Led], GPIO_PIN_RESET);
 294:Drivers/BSP/STM32C0xx_Nucleo/stm32c0xx_nucleo.c ****     }
 295:Drivers/BSP/STM32C0xx_Nucleo/stm32c0xx_nucleo.c **** #else
 296:Drivers/BSP/STM32C0xx_Nucleo/stm32c0xx_nucleo.c **** 
 297:Drivers/BSP/STM32C0xx_Nucleo/stm32c0xx_nucleo.c ****      HAL_GPIO_WritePin(LED_PORT[Led], LED_PIN[Led], GPIO_PIN_SET);
 298:Drivers/BSP/STM32C0xx_Nucleo/stm32c0xx_nucleo.c **** #endif
 299:Drivers/BSP/STM32C0xx_Nucleo/stm32c0xx_nucleo.c ****   }
 300:Drivers/BSP/STM32C0xx_Nucleo/stm32c0xx_nucleo.c **** 
 301:Drivers/BSP/STM32C0xx_Nucleo/stm32c0xx_nucleo.c ****   return ret;
 302:Drivers/BSP/STM32C0xx_Nucleo/stm32c0xx_nucleo.c **** }
 303:Drivers/BSP/STM32C0xx_Nucleo/stm32c0xx_nucleo.c **** 
 304:Drivers/BSP/STM32C0xx_Nucleo/stm32c0xx_nucleo.c **** /**
 305:Drivers/BSP/STM32C0xx_Nucleo/stm32c0xx_nucleo.c ****   * @brief  Turns selected LED Off.
 306:Drivers/BSP/STM32C0xx_Nucleo/stm32c0xx_nucleo.c ****   * @param  Led: Specifies the Led to be set off.
 307:Drivers/BSP/STM32C0xx_Nucleo/stm32c0xx_nucleo.c ****   *   This parameter can be one of following parameters:
 308:Drivers/BSP/STM32C0xx_Nucleo/stm32c0xx_nucleo.c ****   *     @arg  LED1
 309:Drivers/BSP/STM32C0xx_Nucleo/stm32c0xx_nucleo.c ****   *     @arg  LED2
 310:Drivers/BSP/STM32C0xx_Nucleo/stm32c0xx_nucleo.c ****   *     @arg  LED4
 311:Drivers/BSP/STM32C0xx_Nucleo/stm32c0xx_nucleo.c ****   * @retval BSP status
 312:Drivers/BSP/STM32C0xx_Nucleo/stm32c0xx_nucleo.c ****   */
 313:Drivers/BSP/STM32C0xx_Nucleo/stm32c0xx_nucleo.c **** int32_t BSP_LED_Off(Led_TypeDef Led)
 314:Drivers/BSP/STM32C0xx_Nucleo/stm32c0xx_nucleo.c **** {
 315:Drivers/BSP/STM32C0xx_Nucleo/stm32c0xx_nucleo.c ****   int32_t ret = BSP_ERROR_NONE;
 316:Drivers/BSP/STM32C0xx_Nucleo/stm32c0xx_nucleo.c **** 
 317:Drivers/BSP/STM32C0xx_Nucleo/stm32c0xx_nucleo.c **** #if defined (USE_NUCLEO_64)
ARM GAS  C:\Users\simay\AppData\Local\Temp\ccshm0l4.s 			page 7


 318:Drivers/BSP/STM32C0xx_Nucleo/stm32c0xx_nucleo.c ****   if ((Led != LED1)
 319:Drivers/BSP/STM32C0xx_Nucleo/stm32c0xx_nucleo.c ****       && (Led != LED2))
 320:Drivers/BSP/STM32C0xx_Nucleo/stm32c0xx_nucleo.c **** #else
 321:Drivers/BSP/STM32C0xx_Nucleo/stm32c0xx_nucleo.c ****   if (Led != LED4)
 322:Drivers/BSP/STM32C0xx_Nucleo/stm32c0xx_nucleo.c **** #endif /* defined (USE_NUCLEO_64) */
 323:Drivers/BSP/STM32C0xx_Nucleo/stm32c0xx_nucleo.c ****   {
 324:Drivers/BSP/STM32C0xx_Nucleo/stm32c0xx_nucleo.c ****     ret = BSP_ERROR_WRONG_PARAM;
 325:Drivers/BSP/STM32C0xx_Nucleo/stm32c0xx_nucleo.c ****   }
 326:Drivers/BSP/STM32C0xx_Nucleo/stm32c0xx_nucleo.c ****   else
 327:Drivers/BSP/STM32C0xx_Nucleo/stm32c0xx_nucleo.c ****   {
 328:Drivers/BSP/STM32C0xx_Nucleo/stm32c0xx_nucleo.c **** #if defined (USE_NUCLEO_64)
 329:Drivers/BSP/STM32C0xx_Nucleo/stm32c0xx_nucleo.c ****     if (Led == LED1)
 330:Drivers/BSP/STM32C0xx_Nucleo/stm32c0xx_nucleo.c ****     {
 331:Drivers/BSP/STM32C0xx_Nucleo/stm32c0xx_nucleo.c ****       HAL_GPIO_WritePin(LED_PORT[Led], LED_PIN[Led], GPIO_PIN_RESET);
 332:Drivers/BSP/STM32C0xx_Nucleo/stm32c0xx_nucleo.c ****     }
 333:Drivers/BSP/STM32C0xx_Nucleo/stm32c0xx_nucleo.c ****     else
 334:Drivers/BSP/STM32C0xx_Nucleo/stm32c0xx_nucleo.c ****     {
 335:Drivers/BSP/STM32C0xx_Nucleo/stm32c0xx_nucleo.c ****       HAL_GPIO_WritePin(LED_PORT[Led], LED_PIN[Led], GPIO_PIN_SET);
 336:Drivers/BSP/STM32C0xx_Nucleo/stm32c0xx_nucleo.c ****     }
 337:Drivers/BSP/STM32C0xx_Nucleo/stm32c0xx_nucleo.c **** #else
 338:Drivers/BSP/STM32C0xx_Nucleo/stm32c0xx_nucleo.c **** 
 339:Drivers/BSP/STM32C0xx_Nucleo/stm32c0xx_nucleo.c ****      HAL_GPIO_WritePin(LED_PORT[Led], LED_PIN[Led], GPIO_PIN_RESET);
 340:Drivers/BSP/STM32C0xx_Nucleo/stm32c0xx_nucleo.c **** #endif
 341:Drivers/BSP/STM32C0xx_Nucleo/stm32c0xx_nucleo.c ****   }
 342:Drivers/BSP/STM32C0xx_Nucleo/stm32c0xx_nucleo.c **** 
 343:Drivers/BSP/STM32C0xx_Nucleo/stm32c0xx_nucleo.c ****   return ret;
 344:Drivers/BSP/STM32C0xx_Nucleo/stm32c0xx_nucleo.c **** }
 345:Drivers/BSP/STM32C0xx_Nucleo/stm32c0xx_nucleo.c **** 
 346:Drivers/BSP/STM32C0xx_Nucleo/stm32c0xx_nucleo.c **** /**
 347:Drivers/BSP/STM32C0xx_Nucleo/stm32c0xx_nucleo.c ****   * @brief  Toggles the selected LED.
 348:Drivers/BSP/STM32C0xx_Nucleo/stm32c0xx_nucleo.c ****   * @param  Led Specifies the Led to be toggled.
 349:Drivers/BSP/STM32C0xx_Nucleo/stm32c0xx_nucleo.c ****   *   This parameter can be one of following parameters:
 350:Drivers/BSP/STM32C0xx_Nucleo/stm32c0xx_nucleo.c ****   *     @arg  LED1
 351:Drivers/BSP/STM32C0xx_Nucleo/stm32c0xx_nucleo.c ****   *     @arg  LED2
 352:Drivers/BSP/STM32C0xx_Nucleo/stm32c0xx_nucleo.c ****   *     @arg  LED4
 353:Drivers/BSP/STM32C0xx_Nucleo/stm32c0xx_nucleo.c ****   * @retval BSP status
 354:Drivers/BSP/STM32C0xx_Nucleo/stm32c0xx_nucleo.c ****   */
 355:Drivers/BSP/STM32C0xx_Nucleo/stm32c0xx_nucleo.c **** int32_t BSP_LED_Toggle(Led_TypeDef Led)
 356:Drivers/BSP/STM32C0xx_Nucleo/stm32c0xx_nucleo.c **** {
 357:Drivers/BSP/STM32C0xx_Nucleo/stm32c0xx_nucleo.c ****   int32_t ret = BSP_ERROR_NONE;
 358:Drivers/BSP/STM32C0xx_Nucleo/stm32c0xx_nucleo.c **** 
 359:Drivers/BSP/STM32C0xx_Nucleo/stm32c0xx_nucleo.c **** #if defined (USE_NUCLEO_64)
 360:Drivers/BSP/STM32C0xx_Nucleo/stm32c0xx_nucleo.c ****   if ((Led != LED1)
 361:Drivers/BSP/STM32C0xx_Nucleo/stm32c0xx_nucleo.c ****       && (Led != LED2))
 362:Drivers/BSP/STM32C0xx_Nucleo/stm32c0xx_nucleo.c **** #else
 363:Drivers/BSP/STM32C0xx_Nucleo/stm32c0xx_nucleo.c ****   if (Led != LED4)
 364:Drivers/BSP/STM32C0xx_Nucleo/stm32c0xx_nucleo.c **** #endif /* defined (USE_NUCLEO_64) */
 365:Drivers/BSP/STM32C0xx_Nucleo/stm32c0xx_nucleo.c ****   {
 366:Drivers/BSP/STM32C0xx_Nucleo/stm32c0xx_nucleo.c ****     ret = BSP_ERROR_WRONG_PARAM;
 367:Drivers/BSP/STM32C0xx_Nucleo/stm32c0xx_nucleo.c ****   }
 368:Drivers/BSP/STM32C0xx_Nucleo/stm32c0xx_nucleo.c ****   else
 369:Drivers/BSP/STM32C0xx_Nucleo/stm32c0xx_nucleo.c ****   {
 370:Drivers/BSP/STM32C0xx_Nucleo/stm32c0xx_nucleo.c ****     HAL_GPIO_TogglePin(LED_PORT[Led], LED_PIN[Led]);
 371:Drivers/BSP/STM32C0xx_Nucleo/stm32c0xx_nucleo.c ****   }
 372:Drivers/BSP/STM32C0xx_Nucleo/stm32c0xx_nucleo.c **** 
 373:Drivers/BSP/STM32C0xx_Nucleo/stm32c0xx_nucleo.c ****   return ret;
 374:Drivers/BSP/STM32C0xx_Nucleo/stm32c0xx_nucleo.c **** }
ARM GAS  C:\Users\simay\AppData\Local\Temp\ccshm0l4.s 			page 8


 375:Drivers/BSP/STM32C0xx_Nucleo/stm32c0xx_nucleo.c **** 
 376:Drivers/BSP/STM32C0xx_Nucleo/stm32c0xx_nucleo.c **** /**
 377:Drivers/BSP/STM32C0xx_Nucleo/stm32c0xx_nucleo.c ****   * @brief  Get the state of the selected LED.
 378:Drivers/BSP/STM32C0xx_Nucleo/stm32c0xx_nucleo.c ****   * @param  Led LED to get its state
 379:Drivers/BSP/STM32C0xx_Nucleo/stm32c0xx_nucleo.c ****   *   This parameter can be one of following parameters:
 380:Drivers/BSP/STM32C0xx_Nucleo/stm32c0xx_nucleo.c ****   *     @arg  LED1
 381:Drivers/BSP/STM32C0xx_Nucleo/stm32c0xx_nucleo.c ****   *     @arg  LED2
 382:Drivers/BSP/STM32C0xx_Nucleo/stm32c0xx_nucleo.c ****   *     @arg  LED4
 383:Drivers/BSP/STM32C0xx_Nucleo/stm32c0xx_nucleo.c ****   * @retval LED status
 384:Drivers/BSP/STM32C0xx_Nucleo/stm32c0xx_nucleo.c ****   */
 385:Drivers/BSP/STM32C0xx_Nucleo/stm32c0xx_nucleo.c **** int32_t BSP_LED_GetState(Led_TypeDef Led)
 386:Drivers/BSP/STM32C0xx_Nucleo/stm32c0xx_nucleo.c **** {
 387:Drivers/BSP/STM32C0xx_Nucleo/stm32c0xx_nucleo.c ****   int32_t ret;
 388:Drivers/BSP/STM32C0xx_Nucleo/stm32c0xx_nucleo.c **** 
 389:Drivers/BSP/STM32C0xx_Nucleo/stm32c0xx_nucleo.c **** #if defined (USE_NUCLEO_64)
 390:Drivers/BSP/STM32C0xx_Nucleo/stm32c0xx_nucleo.c ****   if ((Led != LED1)
 391:Drivers/BSP/STM32C0xx_Nucleo/stm32c0xx_nucleo.c ****       && (Led != LED2))
 392:Drivers/BSP/STM32C0xx_Nucleo/stm32c0xx_nucleo.c **** #else
 393:Drivers/BSP/STM32C0xx_Nucleo/stm32c0xx_nucleo.c ****   if (Led != LED4)
 394:Drivers/BSP/STM32C0xx_Nucleo/stm32c0xx_nucleo.c **** #endif /* defined (USE_NUCLEO_64) */
 395:Drivers/BSP/STM32C0xx_Nucleo/stm32c0xx_nucleo.c ****   {
 396:Drivers/BSP/STM32C0xx_Nucleo/stm32c0xx_nucleo.c ****     ret = BSP_ERROR_WRONG_PARAM;
 397:Drivers/BSP/STM32C0xx_Nucleo/stm32c0xx_nucleo.c ****   }
 398:Drivers/BSP/STM32C0xx_Nucleo/stm32c0xx_nucleo.c ****   else
 399:Drivers/BSP/STM32C0xx_Nucleo/stm32c0xx_nucleo.c ****   {
 400:Drivers/BSP/STM32C0xx_Nucleo/stm32c0xx_nucleo.c ****     ret = (int32_t)HAL_GPIO_ReadPin(LED_PORT [Led], LED_PIN [Led]);
 401:Drivers/BSP/STM32C0xx_Nucleo/stm32c0xx_nucleo.c ****   }
 402:Drivers/BSP/STM32C0xx_Nucleo/stm32c0xx_nucleo.c **** 
 403:Drivers/BSP/STM32C0xx_Nucleo/stm32c0xx_nucleo.c ****   return ret;
 404:Drivers/BSP/STM32C0xx_Nucleo/stm32c0xx_nucleo.c **** }
 405:Drivers/BSP/STM32C0xx_Nucleo/stm32c0xx_nucleo.c **** 
 406:Drivers/BSP/STM32C0xx_Nucleo/stm32c0xx_nucleo.c **** /**
 407:Drivers/BSP/STM32C0xx_Nucleo/stm32c0xx_nucleo.c ****   * @brief  Configures button GPIO and EXTI Line.
 408:Drivers/BSP/STM32C0xx_Nucleo/stm32c0xx_nucleo.c ****   * @param  Button Button to be configured
 409:Drivers/BSP/STM32C0xx_Nucleo/stm32c0xx_nucleo.c ****   *          This parameter can be one of the following values:
 410:Drivers/BSP/STM32C0xx_Nucleo/stm32c0xx_nucleo.c ****   *            @arg  BUTTON_USER: Wakeup Push Button
 411:Drivers/BSP/STM32C0xx_Nucleo/stm32c0xx_nucleo.c ****   * @param  ButtonMode Button mode
 412:Drivers/BSP/STM32C0xx_Nucleo/stm32c0xx_nucleo.c ****   *          This parameter can be one of the following values:
 413:Drivers/BSP/STM32C0xx_Nucleo/stm32c0xx_nucleo.c ****   *            @arg  BUTTON_MODE_GPIO: Button will be used as simple IO
 414:Drivers/BSP/STM32C0xx_Nucleo/stm32c0xx_nucleo.c ****   *            @arg  BUTTON_MODE_EXTI: Button will be connected to EXTI line
 415:Drivers/BSP/STM32C0xx_Nucleo/stm32c0xx_nucleo.c ****   *                                    with interrupt generation capability
 416:Drivers/BSP/STM32C0xx_Nucleo/stm32c0xx_nucleo.c ****   */
 417:Drivers/BSP/STM32C0xx_Nucleo/stm32c0xx_nucleo.c **** int32_t BSP_PB_Init(Button_TypeDef Button, ButtonMode_TypeDef ButtonMode)
 418:Drivers/BSP/STM32C0xx_Nucleo/stm32c0xx_nucleo.c **** {
 419:Drivers/BSP/STM32C0xx_Nucleo/stm32c0xx_nucleo.c ****   GPIO_InitTypeDef gpio_init_structure;
 420:Drivers/BSP/STM32C0xx_Nucleo/stm32c0xx_nucleo.c ****   static BSP_EXTI_LineCallback ButtonCallback[BUTTONn] = {BUTTON_USER_EXTI_Callback};
 421:Drivers/BSP/STM32C0xx_Nucleo/stm32c0xx_nucleo.c ****   static uint32_t  BSP_BUTTON_PRIO [BUTTONn] = {BSP_BUTTON_USER_IT_PRIORITY};
 422:Drivers/BSP/STM32C0xx_Nucleo/stm32c0xx_nucleo.c ****   static const uint32_t BUTTON_EXTI_LINE[BUTTONn] = {BUTTON_USER_EXTI_LINE};
 423:Drivers/BSP/STM32C0xx_Nucleo/stm32c0xx_nucleo.c **** 
 424:Drivers/BSP/STM32C0xx_Nucleo/stm32c0xx_nucleo.c ****   /* Enable the BUTTON clock */
 425:Drivers/BSP/STM32C0xx_Nucleo/stm32c0xx_nucleo.c ****   BUTTON_USER_GPIO_CLK_ENABLE();
 426:Drivers/BSP/STM32C0xx_Nucleo/stm32c0xx_nucleo.c **** 
 427:Drivers/BSP/STM32C0xx_Nucleo/stm32c0xx_nucleo.c ****   gpio_init_structure.Pin = BUTTON_PIN [Button];
 428:Drivers/BSP/STM32C0xx_Nucleo/stm32c0xx_nucleo.c ****   gpio_init_structure.Pull = GPIO_PULLUP;
 429:Drivers/BSP/STM32C0xx_Nucleo/stm32c0xx_nucleo.c ****   gpio_init_structure.Speed = GPIO_SPEED_FREQ_HIGH;
 430:Drivers/BSP/STM32C0xx_Nucleo/stm32c0xx_nucleo.c **** 
 431:Drivers/BSP/STM32C0xx_Nucleo/stm32c0xx_nucleo.c ****   if (ButtonMode == BUTTON_MODE_GPIO)
ARM GAS  C:\Users\simay\AppData\Local\Temp\ccshm0l4.s 			page 9


 432:Drivers/BSP/STM32C0xx_Nucleo/stm32c0xx_nucleo.c ****   {
 433:Drivers/BSP/STM32C0xx_Nucleo/stm32c0xx_nucleo.c ****     /* Configure Button pin as input */
 434:Drivers/BSP/STM32C0xx_Nucleo/stm32c0xx_nucleo.c ****     gpio_init_structure.Mode = GPIO_MODE_INPUT;
 435:Drivers/BSP/STM32C0xx_Nucleo/stm32c0xx_nucleo.c ****     HAL_GPIO_Init(BUTTON_PORT [Button], &gpio_init_structure);
 436:Drivers/BSP/STM32C0xx_Nucleo/stm32c0xx_nucleo.c ****   }
 437:Drivers/BSP/STM32C0xx_Nucleo/stm32c0xx_nucleo.c ****   else /* (ButtonMode == BUTTON_MODE_EXTI) */
 438:Drivers/BSP/STM32C0xx_Nucleo/stm32c0xx_nucleo.c ****   {
 439:Drivers/BSP/STM32C0xx_Nucleo/stm32c0xx_nucleo.c ****     /* Configure Button pin as input with External interrupt */
 440:Drivers/BSP/STM32C0xx_Nucleo/stm32c0xx_nucleo.c ****     gpio_init_structure.Mode = GPIO_MODE_IT_FALLING;
 441:Drivers/BSP/STM32C0xx_Nucleo/stm32c0xx_nucleo.c **** 
 442:Drivers/BSP/STM32C0xx_Nucleo/stm32c0xx_nucleo.c ****     HAL_GPIO_Init(BUTTON_PORT[Button], &gpio_init_structure);
 443:Drivers/BSP/STM32C0xx_Nucleo/stm32c0xx_nucleo.c **** 
 444:Drivers/BSP/STM32C0xx_Nucleo/stm32c0xx_nucleo.c ****     (void)HAL_EXTI_GetHandle(&hpb_exti[Button], BUTTON_EXTI_LINE[Button]);
 445:Drivers/BSP/STM32C0xx_Nucleo/stm32c0xx_nucleo.c ****     (void)HAL_EXTI_RegisterCallback(&hpb_exti[Button],  HAL_EXTI_COMMON_CB_ID, ButtonCallback[Butto
 446:Drivers/BSP/STM32C0xx_Nucleo/stm32c0xx_nucleo.c **** 
 447:Drivers/BSP/STM32C0xx_Nucleo/stm32c0xx_nucleo.c ****     /* Enable and set Button EXTI Interrupt to the lowest priority */
 448:Drivers/BSP/STM32C0xx_Nucleo/stm32c0xx_nucleo.c ****     HAL_NVIC_SetPriority((BUTTON_IRQn[Button]), BSP_BUTTON_PRIO[Button], 0x00);
 449:Drivers/BSP/STM32C0xx_Nucleo/stm32c0xx_nucleo.c ****     HAL_NVIC_EnableIRQ((BUTTON_IRQn[Button]));
 450:Drivers/BSP/STM32C0xx_Nucleo/stm32c0xx_nucleo.c ****   }
 451:Drivers/BSP/STM32C0xx_Nucleo/stm32c0xx_nucleo.c **** 
 452:Drivers/BSP/STM32C0xx_Nucleo/stm32c0xx_nucleo.c ****   return BSP_ERROR_NONE;
 453:Drivers/BSP/STM32C0xx_Nucleo/stm32c0xx_nucleo.c **** }
 454:Drivers/BSP/STM32C0xx_Nucleo/stm32c0xx_nucleo.c **** 
 455:Drivers/BSP/STM32C0xx_Nucleo/stm32c0xx_nucleo.c **** /**
 456:Drivers/BSP/STM32C0xx_Nucleo/stm32c0xx_nucleo.c ****   * @brief  Push Button DeInit.
 457:Drivers/BSP/STM32C0xx_Nucleo/stm32c0xx_nucleo.c ****   * @param  Button Button to be configured
 458:Drivers/BSP/STM32C0xx_Nucleo/stm32c0xx_nucleo.c ****   *          This parameter can be one of the following values:
 459:Drivers/BSP/STM32C0xx_Nucleo/stm32c0xx_nucleo.c ****   *            @arg  BUTTON_USER: Wakeup Push Button
 460:Drivers/BSP/STM32C0xx_Nucleo/stm32c0xx_nucleo.c ****   * @note PB DeInit does not disable the GPIO clock
 461:Drivers/BSP/STM32C0xx_Nucleo/stm32c0xx_nucleo.c ****   */
 462:Drivers/BSP/STM32C0xx_Nucleo/stm32c0xx_nucleo.c **** int32_t BSP_PB_DeInit(Button_TypeDef Button)
 463:Drivers/BSP/STM32C0xx_Nucleo/stm32c0xx_nucleo.c **** {
 464:Drivers/BSP/STM32C0xx_Nucleo/stm32c0xx_nucleo.c ****   GPIO_InitTypeDef gpio_init_structure;
 465:Drivers/BSP/STM32C0xx_Nucleo/stm32c0xx_nucleo.c **** 
 466:Drivers/BSP/STM32C0xx_Nucleo/stm32c0xx_nucleo.c ****   gpio_init_structure.Pin = BUTTON_PIN[Button];
 467:Drivers/BSP/STM32C0xx_Nucleo/stm32c0xx_nucleo.c ****   HAL_NVIC_DisableIRQ((IRQn_Type)(BUTTON_IRQn[Button]));
 468:Drivers/BSP/STM32C0xx_Nucleo/stm32c0xx_nucleo.c ****   HAL_GPIO_DeInit(BUTTON_PORT[Button], gpio_init_structure.Pin);
 469:Drivers/BSP/STM32C0xx_Nucleo/stm32c0xx_nucleo.c **** 
 470:Drivers/BSP/STM32C0xx_Nucleo/stm32c0xx_nucleo.c ****   return BSP_ERROR_NONE;
 471:Drivers/BSP/STM32C0xx_Nucleo/stm32c0xx_nucleo.c **** }
 472:Drivers/BSP/STM32C0xx_Nucleo/stm32c0xx_nucleo.c **** 
 473:Drivers/BSP/STM32C0xx_Nucleo/stm32c0xx_nucleo.c **** /**
 474:Drivers/BSP/STM32C0xx_Nucleo/stm32c0xx_nucleo.c ****   * @brief  Returns the selected button state.
 475:Drivers/BSP/STM32C0xx_Nucleo/stm32c0xx_nucleo.c ****   * @param  Button Button to be checked
 476:Drivers/BSP/STM32C0xx_Nucleo/stm32c0xx_nucleo.c ****   *          This parameter can be one of the following values:
 477:Drivers/BSP/STM32C0xx_Nucleo/stm32c0xx_nucleo.c ****   *            @arg  BUTTON_USER: Wakeup Push Button
 478:Drivers/BSP/STM32C0xx_Nucleo/stm32c0xx_nucleo.c ****   * @retval The Button GPIO pin value (GPIO_PIN_RESET = button pressed)
 479:Drivers/BSP/STM32C0xx_Nucleo/stm32c0xx_nucleo.c ****   */
 480:Drivers/BSP/STM32C0xx_Nucleo/stm32c0xx_nucleo.c **** int32_t BSP_PB_GetState(Button_TypeDef Button)
 481:Drivers/BSP/STM32C0xx_Nucleo/stm32c0xx_nucleo.c **** {
 482:Drivers/BSP/STM32C0xx_Nucleo/stm32c0xx_nucleo.c ****   return (int32_t)HAL_GPIO_ReadPin(BUTTON_PORT[Button], BUTTON_PIN[Button]);
 483:Drivers/BSP/STM32C0xx_Nucleo/stm32c0xx_nucleo.c **** }
 484:Drivers/BSP/STM32C0xx_Nucleo/stm32c0xx_nucleo.c **** 
 485:Drivers/BSP/STM32C0xx_Nucleo/stm32c0xx_nucleo.c **** /**
 486:Drivers/BSP/STM32C0xx_Nucleo/stm32c0xx_nucleo.c ****   * @brief  BSP Button IRQ handler
 487:Drivers/BSP/STM32C0xx_Nucleo/stm32c0xx_nucleo.c ****   * @param  Button Can only be BUTTON_USER
 488:Drivers/BSP/STM32C0xx_Nucleo/stm32c0xx_nucleo.c ****   * @retval None
ARM GAS  C:\Users\simay\AppData\Local\Temp\ccshm0l4.s 			page 10


 489:Drivers/BSP/STM32C0xx_Nucleo/stm32c0xx_nucleo.c ****   */
 490:Drivers/BSP/STM32C0xx_Nucleo/stm32c0xx_nucleo.c **** void BSP_PB_IRQHandler(Button_TypeDef Button)
 491:Drivers/BSP/STM32C0xx_Nucleo/stm32c0xx_nucleo.c **** {
 492:Drivers/BSP/STM32C0xx_Nucleo/stm32c0xx_nucleo.c ****   HAL_EXTI_IRQHandler(&hpb_exti[Button]);
 493:Drivers/BSP/STM32C0xx_Nucleo/stm32c0xx_nucleo.c **** }
 494:Drivers/BSP/STM32C0xx_Nucleo/stm32c0xx_nucleo.c **** 
 495:Drivers/BSP/STM32C0xx_Nucleo/stm32c0xx_nucleo.c **** /**
 496:Drivers/BSP/STM32C0xx_Nucleo/stm32c0xx_nucleo.c ****   * @brief  BSP Push Button callback
 497:Drivers/BSP/STM32C0xx_Nucleo/stm32c0xx_nucleo.c ****   * @param  Button Specifies the pin connected EXTI line
 498:Drivers/BSP/STM32C0xx_Nucleo/stm32c0xx_nucleo.c ****   * @retval None
 499:Drivers/BSP/STM32C0xx_Nucleo/stm32c0xx_nucleo.c ****   */
 500:Drivers/BSP/STM32C0xx_Nucleo/stm32c0xx_nucleo.c **** __weak void BSP_PB_Callback(Button_TypeDef Button)
 501:Drivers/BSP/STM32C0xx_Nucleo/stm32c0xx_nucleo.c **** {
 502:Drivers/BSP/STM32C0xx_Nucleo/stm32c0xx_nucleo.c ****   /* Prevent unused argument(s) compilation warning */
 503:Drivers/BSP/STM32C0xx_Nucleo/stm32c0xx_nucleo.c ****   UNUSED(Button);
 504:Drivers/BSP/STM32C0xx_Nucleo/stm32c0xx_nucleo.c **** 
 505:Drivers/BSP/STM32C0xx_Nucleo/stm32c0xx_nucleo.c ****   /* This function should be implemented by the user application.
 506:Drivers/BSP/STM32C0xx_Nucleo/stm32c0xx_nucleo.c ****      It is called into this driver when an event on Button is triggered. */
 507:Drivers/BSP/STM32C0xx_Nucleo/stm32c0xx_nucleo.c **** }
 508:Drivers/BSP/STM32C0xx_Nucleo/stm32c0xx_nucleo.c **** 
 509:Drivers/BSP/STM32C0xx_Nucleo/stm32c0xx_nucleo.c **** #if (USE_BSP_COM_FEATURE > 0)
 510:Drivers/BSP/STM32C0xx_Nucleo/stm32c0xx_nucleo.c **** /**
 511:Drivers/BSP/STM32C0xx_Nucleo/stm32c0xx_nucleo.c ****   * @brief  Configures COM port.
 512:Drivers/BSP/STM32C0xx_Nucleo/stm32c0xx_nucleo.c ****   * @param  COM COM port to be configured.
 513:Drivers/BSP/STM32C0xx_Nucleo/stm32c0xx_nucleo.c ****   *          This parameter can be COM1
 514:Drivers/BSP/STM32C0xx_Nucleo/stm32c0xx_nucleo.c ****   * @param  COM_Init Pointer to a UART_HandleTypeDef structure that contains the
 515:Drivers/BSP/STM32C0xx_Nucleo/stm32c0xx_nucleo.c ****   *                  configuration information for the specified USART peripheral.
 516:Drivers/BSP/STM32C0xx_Nucleo/stm32c0xx_nucleo.c ****   * @retval BSP error code
 517:Drivers/BSP/STM32C0xx_Nucleo/stm32c0xx_nucleo.c ****   */
 518:Drivers/BSP/STM32C0xx_Nucleo/stm32c0xx_nucleo.c **** int32_t BSP_COM_Init(COM_TypeDef COM, COM_InitTypeDef *COM_Init)
 519:Drivers/BSP/STM32C0xx_Nucleo/stm32c0xx_nucleo.c **** {
 520:Drivers/BSP/STM32C0xx_Nucleo/stm32c0xx_nucleo.c ****   int32_t ret = BSP_ERROR_NONE;
 521:Drivers/BSP/STM32C0xx_Nucleo/stm32c0xx_nucleo.c **** 
 522:Drivers/BSP/STM32C0xx_Nucleo/stm32c0xx_nucleo.c ****   if (COM >= COMn)
 523:Drivers/BSP/STM32C0xx_Nucleo/stm32c0xx_nucleo.c ****   {
 524:Drivers/BSP/STM32C0xx_Nucleo/stm32c0xx_nucleo.c ****     ret = BSP_ERROR_WRONG_PARAM;
 525:Drivers/BSP/STM32C0xx_Nucleo/stm32c0xx_nucleo.c ****   }
 526:Drivers/BSP/STM32C0xx_Nucleo/stm32c0xx_nucleo.c ****   else
 527:Drivers/BSP/STM32C0xx_Nucleo/stm32c0xx_nucleo.c ****   {
 528:Drivers/BSP/STM32C0xx_Nucleo/stm32c0xx_nucleo.c **** #if (USE_HAL_UART_REGISTER_CALLBACKS == 0)
 529:Drivers/BSP/STM32C0xx_Nucleo/stm32c0xx_nucleo.c ****     /* Init the UART Msp */
 530:Drivers/BSP/STM32C0xx_Nucleo/stm32c0xx_nucleo.c ****     COM1_MspInit(&hcom_uart[COM]);
 531:Drivers/BSP/STM32C0xx_Nucleo/stm32c0xx_nucleo.c **** #else
 532:Drivers/BSP/STM32C0xx_Nucleo/stm32c0xx_nucleo.c ****     if (IsComMspCbValid[COM] == 0U)
 533:Drivers/BSP/STM32C0xx_Nucleo/stm32c0xx_nucleo.c ****     {
 534:Drivers/BSP/STM32C0xx_Nucleo/stm32c0xx_nucleo.c ****       if (BSP_COM_RegisterDefaultMspCallbacks(COM) != BSP_ERROR_NONE)
 535:Drivers/BSP/STM32C0xx_Nucleo/stm32c0xx_nucleo.c ****       {
 536:Drivers/BSP/STM32C0xx_Nucleo/stm32c0xx_nucleo.c ****         return BSP_ERROR_MSP_FAILURE;
 537:Drivers/BSP/STM32C0xx_Nucleo/stm32c0xx_nucleo.c ****       }
 538:Drivers/BSP/STM32C0xx_Nucleo/stm32c0xx_nucleo.c ****     }
 539:Drivers/BSP/STM32C0xx_Nucleo/stm32c0xx_nucleo.c **** #endif /* (USE_HAL_UART_REGISTER_CALLBACKS == 0) */
 540:Drivers/BSP/STM32C0xx_Nucleo/stm32c0xx_nucleo.c **** 
 541:Drivers/BSP/STM32C0xx_Nucleo/stm32c0xx_nucleo.c ****     if (MX_USART2_Init(&hcom_uart[COM], COM_Init) != HAL_OK)
 542:Drivers/BSP/STM32C0xx_Nucleo/stm32c0xx_nucleo.c ****     {
 543:Drivers/BSP/STM32C0xx_Nucleo/stm32c0xx_nucleo.c ****       ret = BSP_ERROR_PERIPH_FAILURE;
 544:Drivers/BSP/STM32C0xx_Nucleo/stm32c0xx_nucleo.c ****     }
 545:Drivers/BSP/STM32C0xx_Nucleo/stm32c0xx_nucleo.c ****   }
ARM GAS  C:\Users\simay\AppData\Local\Temp\ccshm0l4.s 			page 11


 546:Drivers/BSP/STM32C0xx_Nucleo/stm32c0xx_nucleo.c **** 
 547:Drivers/BSP/STM32C0xx_Nucleo/stm32c0xx_nucleo.c ****   return ret;
 548:Drivers/BSP/STM32C0xx_Nucleo/stm32c0xx_nucleo.c **** }
 549:Drivers/BSP/STM32C0xx_Nucleo/stm32c0xx_nucleo.c **** 
 550:Drivers/BSP/STM32C0xx_Nucleo/stm32c0xx_nucleo.c **** /**
 551:Drivers/BSP/STM32C0xx_Nucleo/stm32c0xx_nucleo.c ****   * @brief  DeInit COM port.
 552:Drivers/BSP/STM32C0xx_Nucleo/stm32c0xx_nucleo.c ****   * @param  COM COM port to be configured.
 553:Drivers/BSP/STM32C0xx_Nucleo/stm32c0xx_nucleo.c ****   *          This parameter can be COM1
 554:Drivers/BSP/STM32C0xx_Nucleo/stm32c0xx_nucleo.c ****   * @retval BSP status
 555:Drivers/BSP/STM32C0xx_Nucleo/stm32c0xx_nucleo.c ****   */
 556:Drivers/BSP/STM32C0xx_Nucleo/stm32c0xx_nucleo.c **** int32_t BSP_COM_DeInit(COM_TypeDef COM)
 557:Drivers/BSP/STM32C0xx_Nucleo/stm32c0xx_nucleo.c **** {
 558:Drivers/BSP/STM32C0xx_Nucleo/stm32c0xx_nucleo.c ****   int32_t ret = BSP_ERROR_NONE;
 559:Drivers/BSP/STM32C0xx_Nucleo/stm32c0xx_nucleo.c **** 
 560:Drivers/BSP/STM32C0xx_Nucleo/stm32c0xx_nucleo.c ****   if (COM >= COMn)
 561:Drivers/BSP/STM32C0xx_Nucleo/stm32c0xx_nucleo.c ****   {
 562:Drivers/BSP/STM32C0xx_Nucleo/stm32c0xx_nucleo.c ****     ret = BSP_ERROR_WRONG_PARAM;
 563:Drivers/BSP/STM32C0xx_Nucleo/stm32c0xx_nucleo.c ****   }
 564:Drivers/BSP/STM32C0xx_Nucleo/stm32c0xx_nucleo.c ****   else
 565:Drivers/BSP/STM32C0xx_Nucleo/stm32c0xx_nucleo.c ****   {
 566:Drivers/BSP/STM32C0xx_Nucleo/stm32c0xx_nucleo.c ****     /* USART configuration */
 567:Drivers/BSP/STM32C0xx_Nucleo/stm32c0xx_nucleo.c ****     hcom_uart[COM].Instance = COM_USART[COM];
 568:Drivers/BSP/STM32C0xx_Nucleo/stm32c0xx_nucleo.c **** 
 569:Drivers/BSP/STM32C0xx_Nucleo/stm32c0xx_nucleo.c **** #if (USE_HAL_UART_REGISTER_CALLBACKS == 0)
 570:Drivers/BSP/STM32C0xx_Nucleo/stm32c0xx_nucleo.c ****     COM1_MspDeInit(&hcom_uart[COM]);
 571:Drivers/BSP/STM32C0xx_Nucleo/stm32c0xx_nucleo.c **** #endif /* (USE_HAL_UART_REGISTER_CALLBACKS == 0) */
 572:Drivers/BSP/STM32C0xx_Nucleo/stm32c0xx_nucleo.c **** 
 573:Drivers/BSP/STM32C0xx_Nucleo/stm32c0xx_nucleo.c ****     if (HAL_UART_DeInit(&hcom_uart[COM]) != HAL_OK)
 574:Drivers/BSP/STM32C0xx_Nucleo/stm32c0xx_nucleo.c ****     {
 575:Drivers/BSP/STM32C0xx_Nucleo/stm32c0xx_nucleo.c ****       ret = BSP_ERROR_PERIPH_FAILURE;
 576:Drivers/BSP/STM32C0xx_Nucleo/stm32c0xx_nucleo.c ****     }
 577:Drivers/BSP/STM32C0xx_Nucleo/stm32c0xx_nucleo.c ****   }
 578:Drivers/BSP/STM32C0xx_Nucleo/stm32c0xx_nucleo.c **** 
 579:Drivers/BSP/STM32C0xx_Nucleo/stm32c0xx_nucleo.c ****   return ret;
 580:Drivers/BSP/STM32C0xx_Nucleo/stm32c0xx_nucleo.c **** }
 581:Drivers/BSP/STM32C0xx_Nucleo/stm32c0xx_nucleo.c **** 
 582:Drivers/BSP/STM32C0xx_Nucleo/stm32c0xx_nucleo.c **** /**
 583:Drivers/BSP/STM32C0xx_Nucleo/stm32c0xx_nucleo.c ****   * @brief  Configures COM port.
 584:Drivers/BSP/STM32C0xx_Nucleo/stm32c0xx_nucleo.c ****   * @param  huart USART handle
 585:Drivers/BSP/STM32C0xx_Nucleo/stm32c0xx_nucleo.c ****   * @param  COM_Init Pointer to a UART_HandleTypeDef structure that contains the
 586:Drivers/BSP/STM32C0xx_Nucleo/stm32c0xx_nucleo.c ****   *                  configuration information for the specified USART peripheral.
 587:Drivers/BSP/STM32C0xx_Nucleo/stm32c0xx_nucleo.c ****   * @retval HAL error code
 588:Drivers/BSP/STM32C0xx_Nucleo/stm32c0xx_nucleo.c ****   */
 589:Drivers/BSP/STM32C0xx_Nucleo/stm32c0xx_nucleo.c **** __weak HAL_StatusTypeDef MX_USART2_Init(UART_HandleTypeDef *huart, MX_UART_InitTypeDef *COM_Init)
 590:Drivers/BSP/STM32C0xx_Nucleo/stm32c0xx_nucleo.c **** {
 591:Drivers/BSP/STM32C0xx_Nucleo/stm32c0xx_nucleo.c ****   /* USART configuration */
 592:Drivers/BSP/STM32C0xx_Nucleo/stm32c0xx_nucleo.c ****   huart->Instance                = COM_USART[COM1];
 593:Drivers/BSP/STM32C0xx_Nucleo/stm32c0xx_nucleo.c ****   huart->Init.BaudRate           = COM_Init->BaudRate;
 594:Drivers/BSP/STM32C0xx_Nucleo/stm32c0xx_nucleo.c ****   huart->Init.Mode               = UART_MODE_TX_RX;
 595:Drivers/BSP/STM32C0xx_Nucleo/stm32c0xx_nucleo.c ****   huart->Init.Parity             = (uint32_t)COM_Init->Parity;
 596:Drivers/BSP/STM32C0xx_Nucleo/stm32c0xx_nucleo.c ****   huart->Init.WordLength         = (uint32_t)COM_Init->WordLength;
 597:Drivers/BSP/STM32C0xx_Nucleo/stm32c0xx_nucleo.c ****   huart->Init.StopBits           = (uint32_t)COM_Init->StopBits;
 598:Drivers/BSP/STM32C0xx_Nucleo/stm32c0xx_nucleo.c ****   huart->Init.HwFlowCtl          = (uint32_t)COM_Init->HwFlowCtl;
 599:Drivers/BSP/STM32C0xx_Nucleo/stm32c0xx_nucleo.c ****   huart->Init.OverSampling       = UART_OVERSAMPLING_8;
 600:Drivers/BSP/STM32C0xx_Nucleo/stm32c0xx_nucleo.c ****   huart->Init.ClockPrescaler     = UART_PRESCALER_DIV1;
 601:Drivers/BSP/STM32C0xx_Nucleo/stm32c0xx_nucleo.c ****   return HAL_UART_Init(huart);
 602:Drivers/BSP/STM32C0xx_Nucleo/stm32c0xx_nucleo.c **** }
ARM GAS  C:\Users\simay\AppData\Local\Temp\ccshm0l4.s 			page 12


 603:Drivers/BSP/STM32C0xx_Nucleo/stm32c0xx_nucleo.c **** 
 604:Drivers/BSP/STM32C0xx_Nucleo/stm32c0xx_nucleo.c **** #if (USE_HAL_UART_REGISTER_CALLBACKS == 1)
 605:Drivers/BSP/STM32C0xx_Nucleo/stm32c0xx_nucleo.c **** /**
 606:Drivers/BSP/STM32C0xx_Nucleo/stm32c0xx_nucleo.c ****   * @brief Register Default COM Msp Callbacks
 607:Drivers/BSP/STM32C0xx_Nucleo/stm32c0xx_nucleo.c ****   * @param  COM COM port to be configured.
 608:Drivers/BSP/STM32C0xx_Nucleo/stm32c0xx_nucleo.c ****   *          This parameter can be COM1
 609:Drivers/BSP/STM32C0xx_Nucleo/stm32c0xx_nucleo.c ****   * @retval BSP status
 610:Drivers/BSP/STM32C0xx_Nucleo/stm32c0xx_nucleo.c ****   */
 611:Drivers/BSP/STM32C0xx_Nucleo/stm32c0xx_nucleo.c **** int32_t BSP_COM_RegisterDefaultMspCallbacks(COM_TypeDef COM)
 612:Drivers/BSP/STM32C0xx_Nucleo/stm32c0xx_nucleo.c **** {
 613:Drivers/BSP/STM32C0xx_Nucleo/stm32c0xx_nucleo.c ****   int32_t ret = BSP_ERROR_NONE;
 614:Drivers/BSP/STM32C0xx_Nucleo/stm32c0xx_nucleo.c **** 
 615:Drivers/BSP/STM32C0xx_Nucleo/stm32c0xx_nucleo.c ****   if (COM >= COMn)
 616:Drivers/BSP/STM32C0xx_Nucleo/stm32c0xx_nucleo.c ****   {
 617:Drivers/BSP/STM32C0xx_Nucleo/stm32c0xx_nucleo.c ****     ret = BSP_ERROR_WRONG_PARAM;
 618:Drivers/BSP/STM32C0xx_Nucleo/stm32c0xx_nucleo.c ****   }
 619:Drivers/BSP/STM32C0xx_Nucleo/stm32c0xx_nucleo.c ****   else
 620:Drivers/BSP/STM32C0xx_Nucleo/stm32c0xx_nucleo.c ****   {
 621:Drivers/BSP/STM32C0xx_Nucleo/stm32c0xx_nucleo.c ****     __HAL_UART_RESET_HANDLE_STATE(&hcom_uart[COM]);
 622:Drivers/BSP/STM32C0xx_Nucleo/stm32c0xx_nucleo.c **** 
 623:Drivers/BSP/STM32C0xx_Nucleo/stm32c0xx_nucleo.c ****     /* Register default MspInit/MspDeInit Callback */
 624:Drivers/BSP/STM32C0xx_Nucleo/stm32c0xx_nucleo.c ****     if (HAL_UART_RegisterCallback(&hcom_uart[COM], HAL_UART_MSPINIT_CB_ID, COM1_MspInit) != HAL_OK)
 625:Drivers/BSP/STM32C0xx_Nucleo/stm32c0xx_nucleo.c ****     {
 626:Drivers/BSP/STM32C0xx_Nucleo/stm32c0xx_nucleo.c ****       ret = BSP_ERROR_PERIPH_FAILURE;
 627:Drivers/BSP/STM32C0xx_Nucleo/stm32c0xx_nucleo.c ****     }
 628:Drivers/BSP/STM32C0xx_Nucleo/stm32c0xx_nucleo.c ****     else if (HAL_UART_RegisterCallback(&hcom_uart[COM], HAL_UART_MSPDEINIT_CB_ID, COM1_MspDeInit) !
 629:Drivers/BSP/STM32C0xx_Nucleo/stm32c0xx_nucleo.c ****     {
 630:Drivers/BSP/STM32C0xx_Nucleo/stm32c0xx_nucleo.c ****       ret = BSP_ERROR_PERIPH_FAILURE;
 631:Drivers/BSP/STM32C0xx_Nucleo/stm32c0xx_nucleo.c ****     }
 632:Drivers/BSP/STM32C0xx_Nucleo/stm32c0xx_nucleo.c ****     else
 633:Drivers/BSP/STM32C0xx_Nucleo/stm32c0xx_nucleo.c ****     {
 634:Drivers/BSP/STM32C0xx_Nucleo/stm32c0xx_nucleo.c ****       IsComMspCbValid[COM] = 1U;
 635:Drivers/BSP/STM32C0xx_Nucleo/stm32c0xx_nucleo.c ****     }
 636:Drivers/BSP/STM32C0xx_Nucleo/stm32c0xx_nucleo.c ****   }
 637:Drivers/BSP/STM32C0xx_Nucleo/stm32c0xx_nucleo.c **** 
 638:Drivers/BSP/STM32C0xx_Nucleo/stm32c0xx_nucleo.c ****   /* BSP status */
 639:Drivers/BSP/STM32C0xx_Nucleo/stm32c0xx_nucleo.c ****   return ret;
 640:Drivers/BSP/STM32C0xx_Nucleo/stm32c0xx_nucleo.c **** }
 641:Drivers/BSP/STM32C0xx_Nucleo/stm32c0xx_nucleo.c **** 
 642:Drivers/BSP/STM32C0xx_Nucleo/stm32c0xx_nucleo.c **** /**
 643:Drivers/BSP/STM32C0xx_Nucleo/stm32c0xx_nucleo.c ****   * @brief Register COM Msp Callback registering
 644:Drivers/BSP/STM32C0xx_Nucleo/stm32c0xx_nucleo.c ****   * @param  COM COM port to be configured.
 645:Drivers/BSP/STM32C0xx_Nucleo/stm32c0xx_nucleo.c ****   *          This parameter can be COM1
 646:Drivers/BSP/STM32C0xx_Nucleo/stm32c0xx_nucleo.c ****   * @param Callbacks     pointer to COM1 MspInit/MspDeInit callback functions
 647:Drivers/BSP/STM32C0xx_Nucleo/stm32c0xx_nucleo.c ****   * @retval BSP status
 648:Drivers/BSP/STM32C0xx_Nucleo/stm32c0xx_nucleo.c ****   */
 649:Drivers/BSP/STM32C0xx_Nucleo/stm32c0xx_nucleo.c **** int32_t BSP_COM_RegisterMspCallbacks(COM_TypeDef COM, BSP_COM_Cb_t *Callback)
 650:Drivers/BSP/STM32C0xx_Nucleo/stm32c0xx_nucleo.c **** {
 651:Drivers/BSP/STM32C0xx_Nucleo/stm32c0xx_nucleo.c ****   int32_t ret = BSP_ERROR_NONE;
 652:Drivers/BSP/STM32C0xx_Nucleo/stm32c0xx_nucleo.c **** 
 653:Drivers/BSP/STM32C0xx_Nucleo/stm32c0xx_nucleo.c ****   if (COM >= COMn)
 654:Drivers/BSP/STM32C0xx_Nucleo/stm32c0xx_nucleo.c ****   {
 655:Drivers/BSP/STM32C0xx_Nucleo/stm32c0xx_nucleo.c ****     ret = BSP_ERROR_WRONG_PARAM;
 656:Drivers/BSP/STM32C0xx_Nucleo/stm32c0xx_nucleo.c ****   }
 657:Drivers/BSP/STM32C0xx_Nucleo/stm32c0xx_nucleo.c ****   else
 658:Drivers/BSP/STM32C0xx_Nucleo/stm32c0xx_nucleo.c ****   {
 659:Drivers/BSP/STM32C0xx_Nucleo/stm32c0xx_nucleo.c ****     __HAL_UART_RESET_HANDLE_STATE(&hcom_uart[COM]);
ARM GAS  C:\Users\simay\AppData\Local\Temp\ccshm0l4.s 			page 13


 660:Drivers/BSP/STM32C0xx_Nucleo/stm32c0xx_nucleo.c **** 
 661:Drivers/BSP/STM32C0xx_Nucleo/stm32c0xx_nucleo.c ****     /* Register MspInit/MspDeInit Callbacks */
 662:Drivers/BSP/STM32C0xx_Nucleo/stm32c0xx_nucleo.c ****     if (HAL_UART_RegisterCallback(&hcom_uart[COM], HAL_UART_MSPINIT_CB_ID, Callback->pMspInitCb) !=
 663:Drivers/BSP/STM32C0xx_Nucleo/stm32c0xx_nucleo.c ****     {
 664:Drivers/BSP/STM32C0xx_Nucleo/stm32c0xx_nucleo.c ****       ret = BSP_ERROR_PERIPH_FAILURE;
 665:Drivers/BSP/STM32C0xx_Nucleo/stm32c0xx_nucleo.c ****     }
 666:Drivers/BSP/STM32C0xx_Nucleo/stm32c0xx_nucleo.c ****     else if (HAL_UART_RegisterCallback(&hcom_uart[COM], HAL_UART_MSPDEINIT_CB_ID, Callback->pMspDeI
 667:Drivers/BSP/STM32C0xx_Nucleo/stm32c0xx_nucleo.c ****     {
 668:Drivers/BSP/STM32C0xx_Nucleo/stm32c0xx_nucleo.c ****       ret = BSP_ERROR_PERIPH_FAILURE;
 669:Drivers/BSP/STM32C0xx_Nucleo/stm32c0xx_nucleo.c ****     }
 670:Drivers/BSP/STM32C0xx_Nucleo/stm32c0xx_nucleo.c ****     else
 671:Drivers/BSP/STM32C0xx_Nucleo/stm32c0xx_nucleo.c ****     {
 672:Drivers/BSP/STM32C0xx_Nucleo/stm32c0xx_nucleo.c ****       IsComMspCbValid[COM] = 1U;
 673:Drivers/BSP/STM32C0xx_Nucleo/stm32c0xx_nucleo.c ****     }
 674:Drivers/BSP/STM32C0xx_Nucleo/stm32c0xx_nucleo.c ****   }
 675:Drivers/BSP/STM32C0xx_Nucleo/stm32c0xx_nucleo.c ****   /* BSP status */
 676:Drivers/BSP/STM32C0xx_Nucleo/stm32c0xx_nucleo.c ****   return ret;
 677:Drivers/BSP/STM32C0xx_Nucleo/stm32c0xx_nucleo.c **** }
 678:Drivers/BSP/STM32C0xx_Nucleo/stm32c0xx_nucleo.c **** #endif /* USE_HAL_UART_REGISTER_CALLBACKS */
 679:Drivers/BSP/STM32C0xx_Nucleo/stm32c0xx_nucleo.c **** 
 680:Drivers/BSP/STM32C0xx_Nucleo/stm32c0xx_nucleo.c **** #if (USE_COM_LOG > 0)
 681:Drivers/BSP/STM32C0xx_Nucleo/stm32c0xx_nucleo.c **** /**
 682:Drivers/BSP/STM32C0xx_Nucleo/stm32c0xx_nucleo.c ****   * @brief  Select the active COM port.
 683:Drivers/BSP/STM32C0xx_Nucleo/stm32c0xx_nucleo.c ****   * @param  COM COM port to be activated.
 684:Drivers/BSP/STM32C0xx_Nucleo/stm32c0xx_nucleo.c ****   *          This parameter can be COM1
 685:Drivers/BSP/STM32C0xx_Nucleo/stm32c0xx_nucleo.c ****   * @retval BSP status
 686:Drivers/BSP/STM32C0xx_Nucleo/stm32c0xx_nucleo.c ****   */
 687:Drivers/BSP/STM32C0xx_Nucleo/stm32c0xx_nucleo.c **** int32_t BSP_COM_SelectLogPort(COM_TypeDef COM)
 688:Drivers/BSP/STM32C0xx_Nucleo/stm32c0xx_nucleo.c **** {
 689:Drivers/BSP/STM32C0xx_Nucleo/stm32c0xx_nucleo.c ****   if (COM_ActiveLogPort != COM)
 690:Drivers/BSP/STM32C0xx_Nucleo/stm32c0xx_nucleo.c ****   {
 691:Drivers/BSP/STM32C0xx_Nucleo/stm32c0xx_nucleo.c ****     COM_ActiveLogPort = COM;
 692:Drivers/BSP/STM32C0xx_Nucleo/stm32c0xx_nucleo.c ****   }
 693:Drivers/BSP/STM32C0xx_Nucleo/stm32c0xx_nucleo.c ****   return BSP_ERROR_NONE;
 694:Drivers/BSP/STM32C0xx_Nucleo/stm32c0xx_nucleo.c **** }
 695:Drivers/BSP/STM32C0xx_Nucleo/stm32c0xx_nucleo.c **** 
 696:Drivers/BSP/STM32C0xx_Nucleo/stm32c0xx_nucleo.c **** #if defined(__ICCARM__)
 697:Drivers/BSP/STM32C0xx_Nucleo/stm32c0xx_nucleo.c **** size_t __write(int file, unsigned char const *ptr, size_t len)
 698:Drivers/BSP/STM32C0xx_Nucleo/stm32c0xx_nucleo.c **** {
 699:Drivers/BSP/STM32C0xx_Nucleo/stm32c0xx_nucleo.c ****   size_t idx;
 700:Drivers/BSP/STM32C0xx_Nucleo/stm32c0xx_nucleo.c ****   unsigned char const *pdata = ptr;
 701:Drivers/BSP/STM32C0xx_Nucleo/stm32c0xx_nucleo.c **** 
 702:Drivers/BSP/STM32C0xx_Nucleo/stm32c0xx_nucleo.c ****   for (idx = 0; idx < len; idx++)
 703:Drivers/BSP/STM32C0xx_Nucleo/stm32c0xx_nucleo.c ****   {
 704:Drivers/BSP/STM32C0xx_Nucleo/stm32c0xx_nucleo.c ****     iar_fputc((int)*pdata);
 705:Drivers/BSP/STM32C0xx_Nucleo/stm32c0xx_nucleo.c ****     pdata++;
 706:Drivers/BSP/STM32C0xx_Nucleo/stm32c0xx_nucleo.c ****   }
 707:Drivers/BSP/STM32C0xx_Nucleo/stm32c0xx_nucleo.c ****   return len;
 708:Drivers/BSP/STM32C0xx_Nucleo/stm32c0xx_nucleo.c **** }
 709:Drivers/BSP/STM32C0xx_Nucleo/stm32c0xx_nucleo.c **** #endif /* __ICCARM__ */
 710:Drivers/BSP/STM32C0xx_Nucleo/stm32c0xx_nucleo.c **** 
 711:Drivers/BSP/STM32C0xx_Nucleo/stm32c0xx_nucleo.c **** /**
 712:Drivers/BSP/STM32C0xx_Nucleo/stm32c0xx_nucleo.c ****   * @brief  Redirect console output to COM
 713:Drivers/BSP/STM32C0xx_Nucleo/stm32c0xx_nucleo.c ****   */
 714:Drivers/BSP/STM32C0xx_Nucleo/stm32c0xx_nucleo.c **** 
 715:Drivers/BSP/STM32C0xx_Nucleo/stm32c0xx_nucleo.c **** PUTCHAR_PROTOTYPE
 716:Drivers/BSP/STM32C0xx_Nucleo/stm32c0xx_nucleo.c **** {
ARM GAS  C:\Users\simay\AppData\Local\Temp\ccshm0l4.s 			page 14


 717:Drivers/BSP/STM32C0xx_Nucleo/stm32c0xx_nucleo.c ****   HAL_UART_Transmit(&hcom_uart [COM_ActiveLogPort], (uint8_t *) &ch, 1, COM_POLL_TIMEOUT);
 718:Drivers/BSP/STM32C0xx_Nucleo/stm32c0xx_nucleo.c ****   return ch;
 719:Drivers/BSP/STM32C0xx_Nucleo/stm32c0xx_nucleo.c **** }
 720:Drivers/BSP/STM32C0xx_Nucleo/stm32c0xx_nucleo.c **** 
 721:Drivers/BSP/STM32C0xx_Nucleo/stm32c0xx_nucleo.c **** #endif /* USE_COM_LOG */
 722:Drivers/BSP/STM32C0xx_Nucleo/stm32c0xx_nucleo.c **** #endif /* USE_BSP_COM_FEATURE */
 723:Drivers/BSP/STM32C0xx_Nucleo/stm32c0xx_nucleo.c **** 
 724:Drivers/BSP/STM32C0xx_Nucleo/stm32c0xx_nucleo.c **** /**
 725:Drivers/BSP/STM32C0xx_Nucleo/stm32c0xx_nucleo.c ****   * @}
 726:Drivers/BSP/STM32C0xx_Nucleo/stm32c0xx_nucleo.c ****   */
 727:Drivers/BSP/STM32C0xx_Nucleo/stm32c0xx_nucleo.c **** 
 728:Drivers/BSP/STM32C0xx_Nucleo/stm32c0xx_nucleo.c **** /** @defgroup STM32C0XX_NUCLEO_LOW_LEVEL_Private_Functions LOW LEVEL Private functions
 729:Drivers/BSP/STM32C0xx_Nucleo/stm32c0xx_nucleo.c ****   * @{
 730:Drivers/BSP/STM32C0xx_Nucleo/stm32c0xx_nucleo.c ****   */
 731:Drivers/BSP/STM32C0xx_Nucleo/stm32c0xx_nucleo.c **** /**
 732:Drivers/BSP/STM32C0xx_Nucleo/stm32c0xx_nucleo.c ****   * @brief  Key EXTI line detection callbacks.
 733:Drivers/BSP/STM32C0xx_Nucleo/stm32c0xx_nucleo.c ****   * @retval BSP status
 734:Drivers/BSP/STM32C0xx_Nucleo/stm32c0xx_nucleo.c ****   */
 735:Drivers/BSP/STM32C0xx_Nucleo/stm32c0xx_nucleo.c **** static void BUTTON_USER_EXTI_Callback(void)
 736:Drivers/BSP/STM32C0xx_Nucleo/stm32c0xx_nucleo.c **** {
 737:Drivers/BSP/STM32C0xx_Nucleo/stm32c0xx_nucleo.c ****   BSP_PB_Callback(BUTTON_USER);
 738:Drivers/BSP/STM32C0xx_Nucleo/stm32c0xx_nucleo.c **** }
 739:Drivers/BSP/STM32C0xx_Nucleo/stm32c0xx_nucleo.c **** 
 740:Drivers/BSP/STM32C0xx_Nucleo/stm32c0xx_nucleo.c **** #if (USE_BSP_COM_FEATURE > 0)
 741:Drivers/BSP/STM32C0xx_Nucleo/stm32c0xx_nucleo.c **** /**
 742:Drivers/BSP/STM32C0xx_Nucleo/stm32c0xx_nucleo.c ****   * @brief  Initializes UART MSP.
 743:Drivers/BSP/STM32C0xx_Nucleo/stm32c0xx_nucleo.c ****   * @param  huart UART handle
 744:Drivers/BSP/STM32C0xx_Nucleo/stm32c0xx_nucleo.c ****   * @retval BSP status
 745:Drivers/BSP/STM32C0xx_Nucleo/stm32c0xx_nucleo.c ****   */
 746:Drivers/BSP/STM32C0xx_Nucleo/stm32c0xx_nucleo.c **** static void COM1_MspInit(UART_HandleTypeDef *huart)
 747:Drivers/BSP/STM32C0xx_Nucleo/stm32c0xx_nucleo.c **** {
  27              		.loc 1 747 1 view -0
  28              		.cfi_startproc
  29              		@ args = 0, pretend = 0, frame = 32
  30              		@ frame_needed = 0, uses_anonymous_args = 0
  31              		.loc 1 747 1 is_stmt 0 view .LVU1
  32 0000 F0B5     		push	{r4, r5, r6, r7, lr}
  33              	.LCFI0:
  34              		.cfi_def_cfa_offset 20
  35              		.cfi_offset 4, -20
  36              		.cfi_offset 5, -16
  37              		.cfi_offset 6, -12
  38              		.cfi_offset 7, -8
  39              		.cfi_offset 14, -4
  40 0002 89B0     		sub	sp, sp, #36
  41              	.LCFI1:
  42              		.cfi_def_cfa_offset 56
 748:Drivers/BSP/STM32C0xx_Nucleo/stm32c0xx_nucleo.c ****   GPIO_InitTypeDef gpio_init_structure;
  43              		.loc 1 748 3 is_stmt 1 view .LVU2
 749:Drivers/BSP/STM32C0xx_Nucleo/stm32c0xx_nucleo.c **** 
 750:Drivers/BSP/STM32C0xx_Nucleo/stm32c0xx_nucleo.c ****   /* Prevent unused argument(s) compilation warning */
 751:Drivers/BSP/STM32C0xx_Nucleo/stm32c0xx_nucleo.c ****   UNUSED(huart);
  44              		.loc 1 751 3 view .LVU3
 752:Drivers/BSP/STM32C0xx_Nucleo/stm32c0xx_nucleo.c **** 
 753:Drivers/BSP/STM32C0xx_Nucleo/stm32c0xx_nucleo.c ****   /* Enable GPIO clock */
 754:Drivers/BSP/STM32C0xx_Nucleo/stm32c0xx_nucleo.c ****   COM1_TX_GPIO_CLK_ENABLE();
  45              		.loc 1 754 3 view .LVU4
ARM GAS  C:\Users\simay\AppData\Local\Temp\ccshm0l4.s 			page 15


  46              	.LBB2:
  47              		.loc 1 754 3 view .LVU5
  48              		.loc 1 754 3 view .LVU6
  49 0004 184B     		ldr	r3, .L2
  50 0006 5A6B     		ldr	r2, [r3, #52]
  51 0008 0125     		movs	r5, #1
  52 000a 2A43     		orrs	r2, r5
  53 000c 5A63     		str	r2, [r3, #52]
  54              		.loc 1 754 3 view .LVU7
  55 000e 5A6B     		ldr	r2, [r3, #52]
  56 0010 2A40     		ands	r2, r5
  57 0012 0092     		str	r2, [sp]
  58              		.loc 1 754 3 view .LVU8
  59 0014 009A     		ldr	r2, [sp]
  60              	.LBE2:
  61              		.loc 1 754 3 view .LVU9
 755:Drivers/BSP/STM32C0xx_Nucleo/stm32c0xx_nucleo.c ****   COM1_RX_GPIO_CLK_ENABLE();
  62              		.loc 1 755 3 view .LVU10
  63              	.LBB3:
  64              		.loc 1 755 3 view .LVU11
  65              		.loc 1 755 3 view .LVU12
  66 0016 5A6B     		ldr	r2, [r3, #52]
  67 0018 2A43     		orrs	r2, r5
  68 001a 5A63     		str	r2, [r3, #52]
  69              		.loc 1 755 3 view .LVU13
  70 001c 5A6B     		ldr	r2, [r3, #52]
  71 001e 2A40     		ands	r2, r5
  72 0020 0192     		str	r2, [sp, #4]
  73              		.loc 1 755 3 view .LVU14
  74 0022 019A     		ldr	r2, [sp, #4]
  75              	.LBE3:
  76              		.loc 1 755 3 view .LVU15
 756:Drivers/BSP/STM32C0xx_Nucleo/stm32c0xx_nucleo.c **** 
 757:Drivers/BSP/STM32C0xx_Nucleo/stm32c0xx_nucleo.c ****   /* Enable USART clock */
 758:Drivers/BSP/STM32C0xx_Nucleo/stm32c0xx_nucleo.c ****   COM1_CLK_ENABLE();
  77              		.loc 1 758 3 view .LVU16
  78              	.LBB4:
  79              		.loc 1 758 3 view .LVU17
  80              		.loc 1 758 3 view .LVU18
  81 0024 DA6B     		ldr	r2, [r3, #60]
  82 0026 8021     		movs	r1, #128
  83 0028 8902     		lsls	r1, r1, #10
  84 002a 0A43     		orrs	r2, r1
  85 002c DA63     		str	r2, [r3, #60]
  86              		.loc 1 758 3 view .LVU19
  87 002e DB6B     		ldr	r3, [r3, #60]
  88 0030 0B40     		ands	r3, r1
  89 0032 0293     		str	r3, [sp, #8]
  90              		.loc 1 758 3 view .LVU20
  91 0034 029B     		ldr	r3, [sp, #8]
  92              	.LBE4:
  93              		.loc 1 758 3 view .LVU21
 759:Drivers/BSP/STM32C0xx_Nucleo/stm32c0xx_nucleo.c **** 
 760:Drivers/BSP/STM32C0xx_Nucleo/stm32c0xx_nucleo.c ****   /* Configure USART Tx as alternate function */
 761:Drivers/BSP/STM32C0xx_Nucleo/stm32c0xx_nucleo.c ****   gpio_init_structure.Pin       = COM1_TX_PIN;
  94              		.loc 1 761 3 view .LVU22
  95              		.loc 1 761 33 is_stmt 0 view .LVU23
ARM GAS  C:\Users\simay\AppData\Local\Temp\ccshm0l4.s 			page 16


  96 0036 03AC     		add	r4, sp, #12
  97 0038 0423     		movs	r3, #4
  98 003a 0393     		str	r3, [sp, #12]
 762:Drivers/BSP/STM32C0xx_Nucleo/stm32c0xx_nucleo.c ****   gpio_init_structure.Mode      = GPIO_MODE_AF_PP;
  99              		.loc 1 762 3 is_stmt 1 view .LVU24
 100              		.loc 1 762 33 is_stmt 0 view .LVU25
 101 003c 0226     		movs	r6, #2
 102 003e 0496     		str	r6, [sp, #16]
 763:Drivers/BSP/STM32C0xx_Nucleo/stm32c0xx_nucleo.c ****   gpio_init_structure.Speed     = GPIO_SPEED_FREQ_HIGH;
 103              		.loc 1 763 3 is_stmt 1 view .LVU26
 104              		.loc 1 763 33 is_stmt 0 view .LVU27
 105 0040 0696     		str	r6, [sp, #24]
 764:Drivers/BSP/STM32C0xx_Nucleo/stm32c0xx_nucleo.c ****   gpio_init_structure.Pull      = GPIO_PULLUP;
 106              		.loc 1 764 3 is_stmt 1 view .LVU28
 107              		.loc 1 764 33 is_stmt 0 view .LVU29
 108 0042 0595     		str	r5, [sp, #20]
 765:Drivers/BSP/STM32C0xx_Nucleo/stm32c0xx_nucleo.c ****   gpio_init_structure.Alternate = COM1_TX_AF;
 109              		.loc 1 765 3 is_stmt 1 view .LVU30
 110              		.loc 1 765 33 is_stmt 0 view .LVU31
 111 0044 0795     		str	r5, [sp, #28]
 766:Drivers/BSP/STM32C0xx_Nucleo/stm32c0xx_nucleo.c ****   HAL_GPIO_Init(COM1_TX_GPIO_PORT, &gpio_init_structure);
 112              		.loc 1 766 3 is_stmt 1 view .LVU32
 113 0046 A027     		movs	r7, #160
 114 0048 FF05     		lsls	r7, r7, #23
 115 004a 2100     		movs	r1, r4
 116 004c 3800     		movs	r0, r7
 117              	.LVL1:
 118              		.loc 1 766 3 is_stmt 0 view .LVU33
 119 004e FFF7FEFF 		bl	HAL_GPIO_Init
 120              	.LVL2:
 767:Drivers/BSP/STM32C0xx_Nucleo/stm32c0xx_nucleo.c **** 
 768:Drivers/BSP/STM32C0xx_Nucleo/stm32c0xx_nucleo.c ****   /* Configure USART Rx as alternate function */
 769:Drivers/BSP/STM32C0xx_Nucleo/stm32c0xx_nucleo.c ****   gpio_init_structure.Pin       = COM1_RX_PIN;
 121              		.loc 1 769 3 is_stmt 1 view .LVU34
 122              		.loc 1 769 33 is_stmt 0 view .LVU35
 123 0052 0823     		movs	r3, #8
 124 0054 0393     		str	r3, [sp, #12]
 770:Drivers/BSP/STM32C0xx_Nucleo/stm32c0xx_nucleo.c ****   gpio_init_structure.Mode      = GPIO_MODE_AF_PP;
 125              		.loc 1 770 3 is_stmt 1 view .LVU36
 126              		.loc 1 770 33 is_stmt 0 view .LVU37
 127 0056 0496     		str	r6, [sp, #16]
 771:Drivers/BSP/STM32C0xx_Nucleo/stm32c0xx_nucleo.c ****   gpio_init_structure.Alternate = COM1_RX_AF;
 128              		.loc 1 771 3 is_stmt 1 view .LVU38
 129              		.loc 1 771 33 is_stmt 0 view .LVU39
 130 0058 0795     		str	r5, [sp, #28]
 772:Drivers/BSP/STM32C0xx_Nucleo/stm32c0xx_nucleo.c ****   HAL_GPIO_Init(COM1_RX_GPIO_PORT, &gpio_init_structure);
 131              		.loc 1 772 3 is_stmt 1 view .LVU40
 132 005a 2100     		movs	r1, r4
 133 005c 3800     		movs	r0, r7
 134 005e FFF7FEFF 		bl	HAL_GPIO_Init
 135              	.LVL3:
 773:Drivers/BSP/STM32C0xx_Nucleo/stm32c0xx_nucleo.c **** }
 136              		.loc 1 773 1 is_stmt 0 view .LVU41
 137 0062 09B0     		add	sp, sp, #36
 138              		@ sp needed
 139 0064 F0BD     		pop	{r4, r5, r6, r7, pc}
 140              	.L3:
ARM GAS  C:\Users\simay\AppData\Local\Temp\ccshm0l4.s 			page 17


 141 0066 C046     		.align	2
 142              	.L2:
 143 0068 00100240 		.word	1073876992
 144              		.cfi_endproc
 145              	.LFE253:
 147              		.section	.text.COM1_MspDeInit,"ax",%progbits
 148              		.align	1
 149              		.syntax unified
 150              		.code	16
 151              		.thumb_func
 153              	COM1_MspDeInit:
 154              	.LVL4:
 155              	.LFB254:
 774:Drivers/BSP/STM32C0xx_Nucleo/stm32c0xx_nucleo.c **** 
 775:Drivers/BSP/STM32C0xx_Nucleo/stm32c0xx_nucleo.c **** /**
 776:Drivers/BSP/STM32C0xx_Nucleo/stm32c0xx_nucleo.c ****   * @brief  Initialize USART Msp part
 777:Drivers/BSP/STM32C0xx_Nucleo/stm32c0xx_nucleo.c ****   * @param  huart UART handle
 778:Drivers/BSP/STM32C0xx_Nucleo/stm32c0xx_nucleo.c ****   * @retval BSP status
 779:Drivers/BSP/STM32C0xx_Nucleo/stm32c0xx_nucleo.c ****   */
 780:Drivers/BSP/STM32C0xx_Nucleo/stm32c0xx_nucleo.c **** static void COM1_MspDeInit(UART_HandleTypeDef *huart)
 781:Drivers/BSP/STM32C0xx_Nucleo/stm32c0xx_nucleo.c **** {
 156              		.loc 1 781 1 is_stmt 1 view -0
 157              		.cfi_startproc
 158              		@ args = 0, pretend = 0, frame = 24
 159              		@ frame_needed = 0, uses_anonymous_args = 0
 160              		.loc 1 781 1 is_stmt 0 view .LVU43
 161 0000 10B5     		push	{r4, lr}
 162              	.LCFI2:
 163              		.cfi_def_cfa_offset 8
 164              		.cfi_offset 4, -8
 165              		.cfi_offset 14, -4
 166 0002 86B0     		sub	sp, sp, #24
 167              	.LCFI3:
 168              		.cfi_def_cfa_offset 32
 782:Drivers/BSP/STM32C0xx_Nucleo/stm32c0xx_nucleo.c ****   GPIO_InitTypeDef          gpio_init_structure;
 169              		.loc 1 782 3 is_stmt 1 view .LVU44
 783:Drivers/BSP/STM32C0xx_Nucleo/stm32c0xx_nucleo.c **** 
 784:Drivers/BSP/STM32C0xx_Nucleo/stm32c0xx_nucleo.c ****   /* Prevent unused argument(s) compilation warning */
 785:Drivers/BSP/STM32C0xx_Nucleo/stm32c0xx_nucleo.c ****   UNUSED(huart);
 170              		.loc 1 785 3 view .LVU45
 786:Drivers/BSP/STM32C0xx_Nucleo/stm32c0xx_nucleo.c **** 
 787:Drivers/BSP/STM32C0xx_Nucleo/stm32c0xx_nucleo.c ****   /* COM GPIO pin configuration */
 788:Drivers/BSP/STM32C0xx_Nucleo/stm32c0xx_nucleo.c ****   gpio_init_structure.Pin  = COM1_TX_PIN;
 171              		.loc 1 788 3 view .LVU46
 172              		.loc 1 788 28 is_stmt 0 view .LVU47
 173 0004 0423     		movs	r3, #4
 174 0006 0193     		str	r3, [sp, #4]
 789:Drivers/BSP/STM32C0xx_Nucleo/stm32c0xx_nucleo.c ****   HAL_GPIO_DeInit(COM1_TX_GPIO_PORT, gpio_init_structure.Pin);
 175              		.loc 1 789 3 is_stmt 1 view .LVU48
 176 0008 A024     		movs	r4, #160
 177 000a E405     		lsls	r4, r4, #23
 178 000c 0421     		movs	r1, #4
 179 000e 2000     		movs	r0, r4
 180              	.LVL5:
 181              		.loc 1 789 3 is_stmt 0 view .LVU49
 182 0010 FFF7FEFF 		bl	HAL_GPIO_DeInit
 183              	.LVL6:
ARM GAS  C:\Users\simay\AppData\Local\Temp\ccshm0l4.s 			page 18


 790:Drivers/BSP/STM32C0xx_Nucleo/stm32c0xx_nucleo.c **** 
 791:Drivers/BSP/STM32C0xx_Nucleo/stm32c0xx_nucleo.c ****   gpio_init_structure.Pin  = COM1_RX_PIN;
 184              		.loc 1 791 3 is_stmt 1 view .LVU50
 185              		.loc 1 791 28 is_stmt 0 view .LVU51
 186 0014 0823     		movs	r3, #8
 187 0016 0193     		str	r3, [sp, #4]
 792:Drivers/BSP/STM32C0xx_Nucleo/stm32c0xx_nucleo.c ****   HAL_GPIO_DeInit(COM1_RX_GPIO_PORT, gpio_init_structure.Pin);
 188              		.loc 1 792 3 is_stmt 1 view .LVU52
 189 0018 0821     		movs	r1, #8
 190 001a 2000     		movs	r0, r4
 191 001c FFF7FEFF 		bl	HAL_GPIO_DeInit
 192              	.LVL7:
 793:Drivers/BSP/STM32C0xx_Nucleo/stm32c0xx_nucleo.c **** 
 794:Drivers/BSP/STM32C0xx_Nucleo/stm32c0xx_nucleo.c ****   /* Disable USART clock */
 795:Drivers/BSP/STM32C0xx_Nucleo/stm32c0xx_nucleo.c ****   COM1_CLK_DISABLE();
 193              		.loc 1 795 3 view .LVU53
 194 0020 034A     		ldr	r2, .L5
 195 0022 D36B     		ldr	r3, [r2, #60]
 196 0024 0349     		ldr	r1, .L5+4
 197 0026 0B40     		ands	r3, r1
 198 0028 D363     		str	r3, [r2, #60]
 796:Drivers/BSP/STM32C0xx_Nucleo/stm32c0xx_nucleo.c **** }
 199              		.loc 1 796 1 is_stmt 0 view .LVU54
 200 002a 06B0     		add	sp, sp, #24
 201              		@ sp needed
 202 002c 10BD     		pop	{r4, pc}
 203              	.L6:
 204 002e C046     		.align	2
 205              	.L5:
 206 0030 00100240 		.word	1073876992
 207 0034 FFFFFDFF 		.word	-131073
 208              		.cfi_endproc
 209              	.LFE254:
 211              		.section	.text.BSP_GetVersion,"ax",%progbits
 212              		.align	1
 213              		.global	BSP_GetVersion
 214              		.syntax unified
 215              		.code	16
 216              		.thumb_func
 218              	BSP_GetVersion:
 219              	.LFB233:
 140:Drivers/BSP/STM32C0xx_Nucleo/stm32c0xx_nucleo.c ****   return (int32_t)STM32C0XX_NUCLEO_BSP_VERSION;
 220              		.loc 1 140 1 is_stmt 1 view -0
 221              		.cfi_startproc
 222              		@ args = 0, pretend = 0, frame = 0
 223              		@ frame_needed = 0, uses_anonymous_args = 0
 224              		@ link register save eliminated.
 141:Drivers/BSP/STM32C0xx_Nucleo/stm32c0xx_nucleo.c **** }
 225              		.loc 1 141 3 view .LVU56
 142:Drivers/BSP/STM32C0xx_Nucleo/stm32c0xx_nucleo.c **** 
 226              		.loc 1 142 1 is_stmt 0 view .LVU57
 227 0000 0048     		ldr	r0, .L8
 228              		@ sp needed
 229 0002 7047     		bx	lr
 230              	.L9:
 231              		.align	2
 232              	.L8:
ARM GAS  C:\Users\simay\AppData\Local\Temp\ccshm0l4.s 			page 19


 233 0004 00000101 		.word	16842752
 234              		.cfi_endproc
 235              	.LFE233:
 237              		.section	.rodata.BSP_GetBoardName.str1.4,"aMS",%progbits,1
 238              		.align	2
 239              	.LC0:
 240 0000 4E55434C 		.ascii	"NUCLEO-C071RB\000"
 240      454F2D43 
 240      30373152 
 240      4200
 241              		.section	.text.BSP_GetBoardName,"ax",%progbits
 242              		.align	1
 243              		.global	BSP_GetBoardName
 244              		.syntax unified
 245              		.code	16
 246              		.thumb_func
 248              	BSP_GetBoardName:
 249              	.LFB234:
 149:Drivers/BSP/STM32C0xx_Nucleo/stm32c0xx_nucleo.c ****   return (uint8_t *)STM32C0XX_NUCLEO_BSP_BOARD_NAME;
 250              		.loc 1 149 1 is_stmt 1 view -0
 251              		.cfi_startproc
 252              		@ args = 0, pretend = 0, frame = 0
 253              		@ frame_needed = 0, uses_anonymous_args = 0
 254              		@ link register save eliminated.
 150:Drivers/BSP/STM32C0xx_Nucleo/stm32c0xx_nucleo.c **** }
 255              		.loc 1 150 3 view .LVU59
 150:Drivers/BSP/STM32C0xx_Nucleo/stm32c0xx_nucleo.c **** }
 256              		.loc 1 150 52 discriminator 1 view .LVU60
 150:Drivers/BSP/STM32C0xx_Nucleo/stm32c0xx_nucleo.c **** }
 257              		.loc 1 150 10 is_stmt 0 discriminator 1 view .LVU61
 258 0000 0048     		ldr	r0, .L11
 151:Drivers/BSP/STM32C0xx_Nucleo/stm32c0xx_nucleo.c **** 
 259              		.loc 1 151 1 view .LVU62
 260              		@ sp needed
 261 0002 7047     		bx	lr
 262              	.L12:
 263              		.align	2
 264              	.L11:
 265 0004 00000000 		.word	.LC0
 266              		.cfi_endproc
 267              	.LFE234:
 269              		.section	.rodata.BSP_GetBoardID.str1.4,"aMS",%progbits,1
 270              		.align	2
 271              	.LC2:
 272 0000 4D423230 		.ascii	"MB2046B\000"
 272      34364200 
 273              		.section	.text.BSP_GetBoardID,"ax",%progbits
 274              		.align	1
 275              		.global	BSP_GetBoardID
 276              		.syntax unified
 277              		.code	16
 278              		.thumb_func
 280              	BSP_GetBoardID:
 281              	.LFB235:
 158:Drivers/BSP/STM32C0xx_Nucleo/stm32c0xx_nucleo.c ****   return (uint8_t *)STM32C0XX_NUCLEO_BSP_BOARD_ID;
 282              		.loc 1 158 1 is_stmt 1 view -0
 283              		.cfi_startproc
ARM GAS  C:\Users\simay\AppData\Local\Temp\ccshm0l4.s 			page 20


 284              		@ args = 0, pretend = 0, frame = 0
 285              		@ frame_needed = 0, uses_anonymous_args = 0
 286              		@ link register save eliminated.
 159:Drivers/BSP/STM32C0xx_Nucleo/stm32c0xx_nucleo.c **** }
 287              		.loc 1 159 3 view .LVU64
 159:Drivers/BSP/STM32C0xx_Nucleo/stm32c0xx_nucleo.c **** }
 288              		.loc 1 159 50 discriminator 1 view .LVU65
 159:Drivers/BSP/STM32C0xx_Nucleo/stm32c0xx_nucleo.c **** }
 289              		.loc 1 159 10 is_stmt 0 discriminator 1 view .LVU66
 290 0000 0048     		ldr	r0, .L14
 160:Drivers/BSP/STM32C0xx_Nucleo/stm32c0xx_nucleo.c **** 
 291              		.loc 1 160 1 view .LVU67
 292              		@ sp needed
 293 0002 7047     		bx	lr
 294              	.L15:
 295              		.align	2
 296              	.L14:
 297 0004 00000000 		.word	.LC2
 298              		.cfi_endproc
 299              	.LFE235:
 301              		.section	.text.BSP_LED_Init,"ax",%progbits
 302              		.align	1
 303              		.global	BSP_LED_Init
 304              		.syntax unified
 305              		.code	16
 306              		.thumb_func
 308              	BSP_LED_Init:
 309              	.LVL8:
 310              	.LFB236:
 172:Drivers/BSP/STM32C0xx_Nucleo/stm32c0xx_nucleo.c ****   int32_t ret = BSP_ERROR_NONE;
 311              		.loc 1 172 1 is_stmt 1 view -0
 312              		.cfi_startproc
 313              		@ args = 0, pretend = 0, frame = 32
 314              		@ frame_needed = 0, uses_anonymous_args = 0
 172:Drivers/BSP/STM32C0xx_Nucleo/stm32c0xx_nucleo.c ****   int32_t ret = BSP_ERROR_NONE;
 315              		.loc 1 172 1 is_stmt 0 view .LVU69
 316 0000 70B5     		push	{r4, r5, r6, lr}
 317              	.LCFI4:
 318              		.cfi_def_cfa_offset 16
 319              		.cfi_offset 4, -16
 320              		.cfi_offset 5, -12
 321              		.cfi_offset 6, -8
 322              		.cfi_offset 14, -4
 323 0002 88B0     		sub	sp, sp, #32
 324              	.LCFI5:
 325              		.cfi_def_cfa_offset 48
 326 0004 0400     		movs	r4, r0
 173:Drivers/BSP/STM32C0xx_Nucleo/stm32c0xx_nucleo.c ****   GPIO_InitTypeDef  gpio_init_structure;
 327              		.loc 1 173 3 is_stmt 1 view .LVU70
 328              	.LVL9:
 174:Drivers/BSP/STM32C0xx_Nucleo/stm32c0xx_nucleo.c **** 
 329              		.loc 1 174 3 view .LVU71
 177:Drivers/BSP/STM32C0xx_Nucleo/stm32c0xx_nucleo.c ****       && (Led != LED2))
 330              		.loc 1 177 3 view .LVU72
 177:Drivers/BSP/STM32C0xx_Nucleo/stm32c0xx_nucleo.c ****       && (Led != LED2))
 331              		.loc 1 177 6 is_stmt 0 view .LVU73
 332 0006 0128     		cmp	r0, #1
ARM GAS  C:\Users\simay\AppData\Local\Temp\ccshm0l4.s 			page 21


 333 0008 32D8     		bhi	.L20
 189:Drivers/BSP/STM32C0xx_Nucleo/stm32c0xx_nucleo.c ****     {
 334              		.loc 1 189 5 is_stmt 1 view .LVU74
 189:Drivers/BSP/STM32C0xx_Nucleo/stm32c0xx_nucleo.c ****     {
 335              		.loc 1 189 8 is_stmt 0 view .LVU75
 336 000a 0028     		cmp	r0, #0
 337 000c 1DD1     		bne	.L18
 191:Drivers/BSP/STM32C0xx_Nucleo/stm32c0xx_nucleo.c ****     }
 338              		.loc 1 191 7 is_stmt 1 view .LVU76
 339              	.LBB5:
 191:Drivers/BSP/STM32C0xx_Nucleo/stm32c0xx_nucleo.c ****     }
 340              		.loc 1 191 7 view .LVU77
 191:Drivers/BSP/STM32C0xx_Nucleo/stm32c0xx_nucleo.c ****     }
 341              		.loc 1 191 7 view .LVU78
 342 000e 1A4A     		ldr	r2, .L23
 343 0010 516B     		ldr	r1, [r2, #52]
 344 0012 0123     		movs	r3, #1
 345 0014 1943     		orrs	r1, r3
 346 0016 5163     		str	r1, [r2, #52]
 191:Drivers/BSP/STM32C0xx_Nucleo/stm32c0xx_nucleo.c ****     }
 347              		.loc 1 191 7 view .LVU79
 348 0018 526B     		ldr	r2, [r2, #52]
 349 001a 1340     		ands	r3, r2
 350 001c 0193     		str	r3, [sp, #4]
 191:Drivers/BSP/STM32C0xx_Nucleo/stm32c0xx_nucleo.c ****     }
 351              		.loc 1 191 7 view .LVU80
 352 001e 019B     		ldr	r3, [sp, #4]
 353              	.LBE5:
 191:Drivers/BSP/STM32C0xx_Nucleo/stm32c0xx_nucleo.c ****     }
 354              		.loc 1 191 7 view .LVU81
 355              	.L19:
 195:Drivers/BSP/STM32C0xx_Nucleo/stm32c0xx_nucleo.c ****     }
 356              		.loc 1 195 7 view .LVU82
 205:Drivers/BSP/STM32C0xx_Nucleo/stm32c0xx_nucleo.c ****     gpio_init_structure.Mode  = GPIO_MODE_OUTPUT_PP;
 357              		.loc 1 205 5 view .LVU83
 205:Drivers/BSP/STM32C0xx_Nucleo/stm32c0xx_nucleo.c ****     gpio_init_structure.Mode  = GPIO_MODE_OUTPUT_PP;
 358              		.loc 1 205 40 is_stmt 0 view .LVU84
 359 0020 164B     		ldr	r3, .L23+4
 360 0022 6200     		lsls	r2, r4, #1
 361 0024 D65A     		ldrh	r6, [r2, r3]
 205:Drivers/BSP/STM32C0xx_Nucleo/stm32c0xx_nucleo.c ****     gpio_init_structure.Mode  = GPIO_MODE_OUTPUT_PP;
 362              		.loc 1 205 31 view .LVU85
 363 0026 03A9     		add	r1, sp, #12
 364 0028 0396     		str	r6, [sp, #12]
 206:Drivers/BSP/STM32C0xx_Nucleo/stm32c0xx_nucleo.c ****     gpio_init_structure.Pull  = GPIO_NOPULL;
 365              		.loc 1 206 5 is_stmt 1 view .LVU86
 206:Drivers/BSP/STM32C0xx_Nucleo/stm32c0xx_nucleo.c ****     gpio_init_structure.Pull  = GPIO_NOPULL;
 366              		.loc 1 206 31 is_stmt 0 view .LVU87
 367 002a 0123     		movs	r3, #1
 368 002c 4B60     		str	r3, [r1, #4]
 207:Drivers/BSP/STM32C0xx_Nucleo/stm32c0xx_nucleo.c ****     gpio_init_structure.Speed = GPIO_SPEED_FREQ_VERY_HIGH;
 369              		.loc 1 207 5 is_stmt 1 view .LVU88
 207:Drivers/BSP/STM32C0xx_Nucleo/stm32c0xx_nucleo.c ****     gpio_init_structure.Speed = GPIO_SPEED_FREQ_VERY_HIGH;
 370              		.loc 1 207 31 is_stmt 0 view .LVU89
 371 002e 0023     		movs	r3, #0
 372 0030 8B60     		str	r3, [r1, #8]
 208:Drivers/BSP/STM32C0xx_Nucleo/stm32c0xx_nucleo.c **** 
ARM GAS  C:\Users\simay\AppData\Local\Temp\ccshm0l4.s 			page 22


 373              		.loc 1 208 5 is_stmt 1 view .LVU90
 208:Drivers/BSP/STM32C0xx_Nucleo/stm32c0xx_nucleo.c **** 
 374              		.loc 1 208 31 is_stmt 0 view .LVU91
 375 0032 0333     		adds	r3, r3, #3
 376 0034 CB60     		str	r3, [r1, #12]
 210:Drivers/BSP/STM32C0xx_Nucleo/stm32c0xx_nucleo.c **** #if defined (USE_NUCLEO_64)
 377              		.loc 1 210 5 is_stmt 1 view .LVU92
 378 0036 124B     		ldr	r3, .L23+8
 379 0038 A200     		lsls	r2, r4, #2
 380 003a D058     		ldr	r0, [r2, r3]
 381              	.LVL10:
 210:Drivers/BSP/STM32C0xx_Nucleo/stm32c0xx_nucleo.c **** #if defined (USE_NUCLEO_64)
 382              		.loc 1 210 5 is_stmt 0 view .LVU93
 383 003c FFF7FEFF 		bl	HAL_GPIO_Init
 384              	.LVL11:
 212:Drivers/BSP/STM32C0xx_Nucleo/stm32c0xx_nucleo.c ****     {
 385              		.loc 1 212 5 is_stmt 1 view .LVU94
 212:Drivers/BSP/STM32C0xx_Nucleo/stm32c0xx_nucleo.c ****     {
 386              		.loc 1 212 8 is_stmt 0 view .LVU95
 387 0040 012C     		cmp	r4, #1
 388 0042 0CD0     		beq	.L22
 173:Drivers/BSP/STM32C0xx_Nucleo/stm32c0xx_nucleo.c ****   GPIO_InitTypeDef  gpio_init_structure;
 389              		.loc 1 173 11 view .LVU96
 390 0044 0020     		movs	r0, #0
 218:Drivers/BSP/STM32C0xx_Nucleo/stm32c0xx_nucleo.c **** }
 391              		.loc 1 218 3 is_stmt 1 view .LVU97
 392              	.LVL12:
 393              	.L16:
 219:Drivers/BSP/STM32C0xx_Nucleo/stm32c0xx_nucleo.c **** 
 394              		.loc 1 219 1 is_stmt 0 view .LVU98
 395 0046 08B0     		add	sp, sp, #32
 396              		@ sp needed
 397 0048 70BD     		pop	{r4, r5, r6, pc}
 398              	.LVL13:
 399              	.L18:
 195:Drivers/BSP/STM32C0xx_Nucleo/stm32c0xx_nucleo.c ****     }
 400              		.loc 1 195 7 is_stmt 1 view .LVU99
 401              	.LBB6:
 195:Drivers/BSP/STM32C0xx_Nucleo/stm32c0xx_nucleo.c ****     }
 402              		.loc 1 195 7 view .LVU100
 195:Drivers/BSP/STM32C0xx_Nucleo/stm32c0xx_nucleo.c ****     }
 403              		.loc 1 195 7 view .LVU101
 404 004a 0B4A     		ldr	r2, .L23
 405 004c 516B     		ldr	r1, [r2, #52]
 406 004e 0423     		movs	r3, #4
 407 0050 1943     		orrs	r1, r3
 408 0052 5163     		str	r1, [r2, #52]
 195:Drivers/BSP/STM32C0xx_Nucleo/stm32c0xx_nucleo.c ****     }
 409              		.loc 1 195 7 view .LVU102
 410 0054 526B     		ldr	r2, [r2, #52]
 411 0056 1340     		ands	r3, r2
 412 0058 0293     		str	r3, [sp, #8]
 195:Drivers/BSP/STM32C0xx_Nucleo/stm32c0xx_nucleo.c ****     }
 413              		.loc 1 195 7 view .LVU103
 414 005a 029B     		ldr	r3, [sp, #8]
 415 005c E0E7     		b	.L19
 416              	.LVL14:
ARM GAS  C:\Users\simay\AppData\Local\Temp\ccshm0l4.s 			page 23


 417              	.L22:
 195:Drivers/BSP/STM32C0xx_Nucleo/stm32c0xx_nucleo.c ****     }
 418              		.loc 1 195 7 is_stmt 0 view .LVU104
 419              	.LBE6:
 214:Drivers/BSP/STM32C0xx_Nucleo/stm32c0xx_nucleo.c ****     }
 420              		.loc 1 214 6 is_stmt 1 view .LVU105
 421 005e 084B     		ldr	r3, .L23+8
 422 0060 A400     		lsls	r4, r4, #2
 423              	.LVL15:
 214:Drivers/BSP/STM32C0xx_Nucleo/stm32c0xx_nucleo.c ****     }
 424              		.loc 1 214 6 is_stmt 0 view .LVU106
 425 0062 E058     		ldr	r0, [r4, r3]
 426 0064 0122     		movs	r2, #1
 427 0066 3100     		movs	r1, r6
 428 0068 FFF7FEFF 		bl	HAL_GPIO_WritePin
 429              	.LVL16:
 173:Drivers/BSP/STM32C0xx_Nucleo/stm32c0xx_nucleo.c ****   GPIO_InitTypeDef  gpio_init_structure;
 430              		.loc 1 173 11 view .LVU107
 431 006c 0020     		movs	r0, #0
 432 006e EAE7     		b	.L16
 433              	.LVL17:
 434              	.L20:
 183:Drivers/BSP/STM32C0xx_Nucleo/stm32c0xx_nucleo.c ****   }
 435              		.loc 1 183 9 view .LVU108
 436 0070 0220     		movs	r0, #2
 437              	.LVL18:
 183:Drivers/BSP/STM32C0xx_Nucleo/stm32c0xx_nucleo.c ****   }
 438              		.loc 1 183 9 view .LVU109
 439 0072 4042     		rsbs	r0, r0, #0
 440 0074 E7E7     		b	.L16
 441              	.L24:
 442 0076 C046     		.align	2
 443              	.L23:
 444 0078 00100240 		.word	1073876992
 445 007c 00000000 		.word	LED_PIN
 446 0080 00000000 		.word	LED_PORT
 447              		.cfi_endproc
 448              	.LFE236:
 450              		.section	.text.BSP_LED_DeInit,"ax",%progbits
 451              		.align	1
 452              		.global	BSP_LED_DeInit
 453              		.syntax unified
 454              		.code	16
 455              		.thumb_func
 457              	BSP_LED_DeInit:
 458              	.LVL19:
 459              	.LFB237:
 231:Drivers/BSP/STM32C0xx_Nucleo/stm32c0xx_nucleo.c ****   int32_t ret = BSP_ERROR_NONE;
 460              		.loc 1 231 1 is_stmt 1 view -0
 461              		.cfi_startproc
 462              		@ args = 0, pretend = 0, frame = 24
 463              		@ frame_needed = 0, uses_anonymous_args = 0
 231:Drivers/BSP/STM32C0xx_Nucleo/stm32c0xx_nucleo.c ****   int32_t ret = BSP_ERROR_NONE;
 464              		.loc 1 231 1 is_stmt 0 view .LVU111
 465 0000 70B5     		push	{r4, r5, r6, lr}
 466              	.LCFI6:
 467              		.cfi_def_cfa_offset 16
ARM GAS  C:\Users\simay\AppData\Local\Temp\ccshm0l4.s 			page 24


 468              		.cfi_offset 4, -16
 469              		.cfi_offset 5, -12
 470              		.cfi_offset 6, -8
 471              		.cfi_offset 14, -4
 472 0002 86B0     		sub	sp, sp, #24
 473              	.LCFI7:
 474              		.cfi_def_cfa_offset 40
 475 0004 0400     		movs	r4, r0
 232:Drivers/BSP/STM32C0xx_Nucleo/stm32c0xx_nucleo.c ****   GPIO_InitTypeDef  gpio_init_structure;
 476              		.loc 1 232 3 is_stmt 1 view .LVU112
 477              	.LVL20:
 233:Drivers/BSP/STM32C0xx_Nucleo/stm32c0xx_nucleo.c **** 
 478              		.loc 1 233 3 view .LVU113
 236:Drivers/BSP/STM32C0xx_Nucleo/stm32c0xx_nucleo.c ****       && (Led != LED2))
 479              		.loc 1 236 3 view .LVU114
 236:Drivers/BSP/STM32C0xx_Nucleo/stm32c0xx_nucleo.c ****       && (Led != LED2))
 480              		.loc 1 236 6 is_stmt 0 view .LVU115
 481 0006 0128     		cmp	r0, #1
 482 0008 1DD8     		bhi	.L28
 247:Drivers/BSP/STM32C0xx_Nucleo/stm32c0xx_nucleo.c **** #if defined (USE_NUCLEO_64)
 483              		.loc 1 247 5 is_stmt 1 view .LVU116
 247:Drivers/BSP/STM32C0xx_Nucleo/stm32c0xx_nucleo.c **** #if defined (USE_NUCLEO_64)
 484              		.loc 1 247 45 is_stmt 0 view .LVU117
 485 000a 104B     		ldr	r3, .L30
 486 000c 4200     		lsls	r2, r0, #1
 487 000e D55A     		ldrh	r5, [r2, r3]
 247:Drivers/BSP/STM32C0xx_Nucleo/stm32c0xx_nucleo.c **** #if defined (USE_NUCLEO_64)
 488              		.loc 1 247 5 view .LVU118
 489 0010 0F4B     		ldr	r3, .L30+4
 490 0012 8200     		lsls	r2, r0, #2
 491 0014 D058     		ldr	r0, [r2, r3]
 492              	.LVL21:
 247:Drivers/BSP/STM32C0xx_Nucleo/stm32c0xx_nucleo.c **** #if defined (USE_NUCLEO_64)
 493              		.loc 1 247 5 view .LVU119
 494 0016 0022     		movs	r2, #0
 495 0018 2900     		movs	r1, r5
 496 001a FFF7FEFF 		bl	HAL_GPIO_WritePin
 497              	.LVL22:
 249:Drivers/BSP/STM32C0xx_Nucleo/stm32c0xx_nucleo.c ****     {
 498              		.loc 1 249 5 is_stmt 1 view .LVU120
 249:Drivers/BSP/STM32C0xx_Nucleo/stm32c0xx_nucleo.c ****     {
 499              		.loc 1 249 8 is_stmt 0 view .LVU121
 500 001e 012C     		cmp	r4, #1
 501 0020 09D0     		beq	.L29
 502              	.L27:
 255:Drivers/BSP/STM32C0xx_Nucleo/stm32c0xx_nucleo.c ****     HAL_GPIO_DeInit(LED_PORT[Led], gpio_init_structure.Pin);
 503              		.loc 1 255 5 is_stmt 1 view .LVU122
 255:Drivers/BSP/STM32C0xx_Nucleo/stm32c0xx_nucleo.c ****     HAL_GPIO_DeInit(LED_PORT[Led], gpio_init_structure.Pin);
 504              		.loc 1 255 29 is_stmt 0 view .LVU123
 505 0022 0195     		str	r5, [sp, #4]
 256:Drivers/BSP/STM32C0xx_Nucleo/stm32c0xx_nucleo.c ****   }
 506              		.loc 1 256 5 is_stmt 1 view .LVU124
 507 0024 0A4B     		ldr	r3, .L30+4
 508 0026 A400     		lsls	r4, r4, #2
 509              	.LVL23:
 256:Drivers/BSP/STM32C0xx_Nucleo/stm32c0xx_nucleo.c ****   }
 510              		.loc 1 256 5 is_stmt 0 view .LVU125
ARM GAS  C:\Users\simay\AppData\Local\Temp\ccshm0l4.s 			page 25


 511 0028 E058     		ldr	r0, [r4, r3]
 512 002a 2900     		movs	r1, r5
 513 002c FFF7FEFF 		bl	HAL_GPIO_DeInit
 514              	.LVL24:
 232:Drivers/BSP/STM32C0xx_Nucleo/stm32c0xx_nucleo.c ****   GPIO_InitTypeDef  gpio_init_structure;
 515              		.loc 1 232 11 view .LVU126
 516 0030 0020     		movs	r0, #0
 517              	.LVL25:
 518              	.L25:
 260:Drivers/BSP/STM32C0xx_Nucleo/stm32c0xx_nucleo.c **** 
 519              		.loc 1 260 1 view .LVU127
 520 0032 06B0     		add	sp, sp, #24
 521              		@ sp needed
 522 0034 70BD     		pop	{r4, r5, r6, pc}
 523              	.LVL26:
 524              	.L29:
 251:Drivers/BSP/STM32C0xx_Nucleo/stm32c0xx_nucleo.c ****     }
 525              		.loc 1 251 6 is_stmt 1 view .LVU128
 526 0036 064B     		ldr	r3, .L30+4
 527 0038 A200     		lsls	r2, r4, #2
 528 003a D058     		ldr	r0, [r2, r3]
 529 003c 0122     		movs	r2, #1
 530 003e 2900     		movs	r1, r5
 531 0040 FFF7FEFF 		bl	HAL_GPIO_WritePin
 532              	.LVL27:
 533 0044 EDE7     		b	.L27
 534              	.LVL28:
 535              	.L28:
 242:Drivers/BSP/STM32C0xx_Nucleo/stm32c0xx_nucleo.c ****   }
 536              		.loc 1 242 9 is_stmt 0 view .LVU129
 537 0046 0220     		movs	r0, #2
 538              	.LVL29:
 242:Drivers/BSP/STM32C0xx_Nucleo/stm32c0xx_nucleo.c ****   }
 539              		.loc 1 242 9 view .LVU130
 540 0048 4042     		rsbs	r0, r0, #0
 541              	.LVL30:
 259:Drivers/BSP/STM32C0xx_Nucleo/stm32c0xx_nucleo.c **** }
 542              		.loc 1 259 3 is_stmt 1 view .LVU131
 259:Drivers/BSP/STM32C0xx_Nucleo/stm32c0xx_nucleo.c **** }
 543              		.loc 1 259 10 is_stmt 0 view .LVU132
 544 004a F2E7     		b	.L25
 545              	.L31:
 546              		.align	2
 547              	.L30:
 548 004c 00000000 		.word	LED_PIN
 549 0050 00000000 		.word	LED_PORT
 550              		.cfi_endproc
 551              	.LFE237:
 553              		.section	.text.BSP_LED_On,"ax",%progbits
 554              		.align	1
 555              		.global	BSP_LED_On
 556              		.syntax unified
 557              		.code	16
 558              		.thumb_func
 560              	BSP_LED_On:
 561              	.LVL31:
 562              	.LFB238:
ARM GAS  C:\Users\simay\AppData\Local\Temp\ccshm0l4.s 			page 26


 272:Drivers/BSP/STM32C0xx_Nucleo/stm32c0xx_nucleo.c ****   int32_t ret = BSP_ERROR_NONE;
 563              		.loc 1 272 1 is_stmt 1 view -0
 564              		.cfi_startproc
 565              		@ args = 0, pretend = 0, frame = 0
 566              		@ frame_needed = 0, uses_anonymous_args = 0
 272:Drivers/BSP/STM32C0xx_Nucleo/stm32c0xx_nucleo.c ****   int32_t ret = BSP_ERROR_NONE;
 567              		.loc 1 272 1 is_stmt 0 view .LVU134
 568 0000 10B5     		push	{r4, lr}
 569              	.LCFI8:
 570              		.cfi_def_cfa_offset 8
 571              		.cfi_offset 4, -8
 572              		.cfi_offset 14, -4
 273:Drivers/BSP/STM32C0xx_Nucleo/stm32c0xx_nucleo.c **** 
 573              		.loc 1 273 3 is_stmt 1 view .LVU135
 574              	.LVL32:
 276:Drivers/BSP/STM32C0xx_Nucleo/stm32c0xx_nucleo.c ****       && (Led != LED2))
 575              		.loc 1 276 3 view .LVU136
 276:Drivers/BSP/STM32C0xx_Nucleo/stm32c0xx_nucleo.c ****       && (Led != LED2))
 576              		.loc 1 276 6 is_stmt 0 view .LVU137
 577 0002 0128     		cmp	r0, #1
 578 0004 17D8     		bhi	.L35
 287:Drivers/BSP/STM32C0xx_Nucleo/stm32c0xx_nucleo.c ****     {
 579              		.loc 1 287 5 is_stmt 1 view .LVU138
 287:Drivers/BSP/STM32C0xx_Nucleo/stm32c0xx_nucleo.c ****     {
 580              		.loc 1 287 8 is_stmt 0 view .LVU139
 581 0006 0028     		cmp	r0, #0
 582 0008 0AD1     		bne	.L34
 289:Drivers/BSP/STM32C0xx_Nucleo/stm32c0xx_nucleo.c ****     }
 583              		.loc 1 289 7 is_stmt 1 view .LVU140
 289:Drivers/BSP/STM32C0xx_Nucleo/stm32c0xx_nucleo.c ****     }
 584              		.loc 1 289 47 is_stmt 0 view .LVU141
 585 000a 0C4B     		ldr	r3, .L36
 586 000c 4200     		lsls	r2, r0, #1
 587 000e D15A     		ldrh	r1, [r2, r3]
 289:Drivers/BSP/STM32C0xx_Nucleo/stm32c0xx_nucleo.c ****     }
 588              		.loc 1 289 7 view .LVU142
 589 0010 0B4B     		ldr	r3, .L36+4
 590 0012 8000     		lsls	r0, r0, #2
 591              	.LVL33:
 289:Drivers/BSP/STM32C0xx_Nucleo/stm32c0xx_nucleo.c ****     }
 592              		.loc 1 289 7 view .LVU143
 593 0014 C058     		ldr	r0, [r0, r3]
 594 0016 0122     		movs	r2, #1
 595 0018 FFF7FEFF 		bl	HAL_GPIO_WritePin
 596              	.LVL34:
 273:Drivers/BSP/STM32C0xx_Nucleo/stm32c0xx_nucleo.c **** 
 597              		.loc 1 273 11 view .LVU144
 598 001c 0020     		movs	r0, #0
 599              	.LVL35:
 600              	.L32:
 302:Drivers/BSP/STM32C0xx_Nucleo/stm32c0xx_nucleo.c **** 
 601              		.loc 1 302 1 view .LVU145
 602              		@ sp needed
 603 001e 10BD     		pop	{r4, pc}
 604              	.LVL36:
 605              	.L34:
 293:Drivers/BSP/STM32C0xx_Nucleo/stm32c0xx_nucleo.c ****     }
ARM GAS  C:\Users\simay\AppData\Local\Temp\ccshm0l4.s 			page 27


 606              		.loc 1 293 7 is_stmt 1 view .LVU146
 293:Drivers/BSP/STM32C0xx_Nucleo/stm32c0xx_nucleo.c ****     }
 607              		.loc 1 293 47 is_stmt 0 view .LVU147
 608 0020 064B     		ldr	r3, .L36
 609 0022 4200     		lsls	r2, r0, #1
 610 0024 D15A     		ldrh	r1, [r2, r3]
 293:Drivers/BSP/STM32C0xx_Nucleo/stm32c0xx_nucleo.c ****     }
 611              		.loc 1 293 7 view .LVU148
 612 0026 064B     		ldr	r3, .L36+4
 613 0028 8000     		lsls	r0, r0, #2
 614              	.LVL37:
 293:Drivers/BSP/STM32C0xx_Nucleo/stm32c0xx_nucleo.c ****     }
 615              		.loc 1 293 7 view .LVU149
 616 002a C058     		ldr	r0, [r0, r3]
 617 002c 0022     		movs	r2, #0
 618 002e FFF7FEFF 		bl	HAL_GPIO_WritePin
 619              	.LVL38:
 273:Drivers/BSP/STM32C0xx_Nucleo/stm32c0xx_nucleo.c **** 
 620              		.loc 1 273 11 view .LVU150
 621 0032 0020     		movs	r0, #0
 622 0034 F3E7     		b	.L32
 623              	.LVL39:
 624              	.L35:
 282:Drivers/BSP/STM32C0xx_Nucleo/stm32c0xx_nucleo.c ****   }
 625              		.loc 1 282 9 view .LVU151
 626 0036 0220     		movs	r0, #2
 627              	.LVL40:
 282:Drivers/BSP/STM32C0xx_Nucleo/stm32c0xx_nucleo.c ****   }
 628              		.loc 1 282 9 view .LVU152
 629 0038 4042     		rsbs	r0, r0, #0
 630              	.LVL41:
 301:Drivers/BSP/STM32C0xx_Nucleo/stm32c0xx_nucleo.c **** }
 631              		.loc 1 301 3 is_stmt 1 view .LVU153
 301:Drivers/BSP/STM32C0xx_Nucleo/stm32c0xx_nucleo.c **** }
 632              		.loc 1 301 10 is_stmt 0 view .LVU154
 633 003a F0E7     		b	.L32
 634              	.L37:
 635              		.align	2
 636              	.L36:
 637 003c 00000000 		.word	LED_PIN
 638 0040 00000000 		.word	LED_PORT
 639              		.cfi_endproc
 640              	.LFE238:
 642              		.section	.text.BSP_LED_Off,"ax",%progbits
 643              		.align	1
 644              		.global	BSP_LED_Off
 645              		.syntax unified
 646              		.code	16
 647              		.thumb_func
 649              	BSP_LED_Off:
 650              	.LVL42:
 651              	.LFB239:
 314:Drivers/BSP/STM32C0xx_Nucleo/stm32c0xx_nucleo.c ****   int32_t ret = BSP_ERROR_NONE;
 652              		.loc 1 314 1 is_stmt 1 view -0
 653              		.cfi_startproc
 654              		@ args = 0, pretend = 0, frame = 0
 655              		@ frame_needed = 0, uses_anonymous_args = 0
ARM GAS  C:\Users\simay\AppData\Local\Temp\ccshm0l4.s 			page 28


 314:Drivers/BSP/STM32C0xx_Nucleo/stm32c0xx_nucleo.c ****   int32_t ret = BSP_ERROR_NONE;
 656              		.loc 1 314 1 is_stmt 0 view .LVU156
 657 0000 10B5     		push	{r4, lr}
 658              	.LCFI9:
 659              		.cfi_def_cfa_offset 8
 660              		.cfi_offset 4, -8
 661              		.cfi_offset 14, -4
 315:Drivers/BSP/STM32C0xx_Nucleo/stm32c0xx_nucleo.c **** 
 662              		.loc 1 315 3 is_stmt 1 view .LVU157
 663              	.LVL43:
 318:Drivers/BSP/STM32C0xx_Nucleo/stm32c0xx_nucleo.c ****       && (Led != LED2))
 664              		.loc 1 318 3 view .LVU158
 318:Drivers/BSP/STM32C0xx_Nucleo/stm32c0xx_nucleo.c ****       && (Led != LED2))
 665              		.loc 1 318 6 is_stmt 0 view .LVU159
 666 0002 0128     		cmp	r0, #1
 667 0004 17D8     		bhi	.L41
 329:Drivers/BSP/STM32C0xx_Nucleo/stm32c0xx_nucleo.c ****     {
 668              		.loc 1 329 5 is_stmt 1 view .LVU160
 329:Drivers/BSP/STM32C0xx_Nucleo/stm32c0xx_nucleo.c ****     {
 669              		.loc 1 329 8 is_stmt 0 view .LVU161
 670 0006 0028     		cmp	r0, #0
 671 0008 0AD1     		bne	.L40
 331:Drivers/BSP/STM32C0xx_Nucleo/stm32c0xx_nucleo.c ****     }
 672              		.loc 1 331 7 is_stmt 1 view .LVU162
 331:Drivers/BSP/STM32C0xx_Nucleo/stm32c0xx_nucleo.c ****     }
 673              		.loc 1 331 47 is_stmt 0 view .LVU163
 674 000a 0C4B     		ldr	r3, .L42
 675 000c 4200     		lsls	r2, r0, #1
 676 000e D15A     		ldrh	r1, [r2, r3]
 331:Drivers/BSP/STM32C0xx_Nucleo/stm32c0xx_nucleo.c ****     }
 677              		.loc 1 331 7 view .LVU164
 678 0010 0B4B     		ldr	r3, .L42+4
 679 0012 8000     		lsls	r0, r0, #2
 680              	.LVL44:
 331:Drivers/BSP/STM32C0xx_Nucleo/stm32c0xx_nucleo.c ****     }
 681              		.loc 1 331 7 view .LVU165
 682 0014 C058     		ldr	r0, [r0, r3]
 683 0016 0022     		movs	r2, #0
 684 0018 FFF7FEFF 		bl	HAL_GPIO_WritePin
 685              	.LVL45:
 315:Drivers/BSP/STM32C0xx_Nucleo/stm32c0xx_nucleo.c **** 
 686              		.loc 1 315 11 view .LVU166
 687 001c 0020     		movs	r0, #0
 688              	.LVL46:
 689              	.L38:
 344:Drivers/BSP/STM32C0xx_Nucleo/stm32c0xx_nucleo.c **** 
 690              		.loc 1 344 1 view .LVU167
 691              		@ sp needed
 692 001e 10BD     		pop	{r4, pc}
 693              	.LVL47:
 694              	.L40:
 335:Drivers/BSP/STM32C0xx_Nucleo/stm32c0xx_nucleo.c ****     }
 695              		.loc 1 335 7 is_stmt 1 view .LVU168
 335:Drivers/BSP/STM32C0xx_Nucleo/stm32c0xx_nucleo.c ****     }
 696              		.loc 1 335 47 is_stmt 0 view .LVU169
 697 0020 064B     		ldr	r3, .L42
 698 0022 4200     		lsls	r2, r0, #1
ARM GAS  C:\Users\simay\AppData\Local\Temp\ccshm0l4.s 			page 29


 699 0024 D15A     		ldrh	r1, [r2, r3]
 335:Drivers/BSP/STM32C0xx_Nucleo/stm32c0xx_nucleo.c ****     }
 700              		.loc 1 335 7 view .LVU170
 701 0026 064B     		ldr	r3, .L42+4
 702 0028 8000     		lsls	r0, r0, #2
 703              	.LVL48:
 335:Drivers/BSP/STM32C0xx_Nucleo/stm32c0xx_nucleo.c ****     }
 704              		.loc 1 335 7 view .LVU171
 705 002a C058     		ldr	r0, [r0, r3]
 706 002c 0122     		movs	r2, #1
 707 002e FFF7FEFF 		bl	HAL_GPIO_WritePin
 708              	.LVL49:
 315:Drivers/BSP/STM32C0xx_Nucleo/stm32c0xx_nucleo.c **** 
 709              		.loc 1 315 11 view .LVU172
 710 0032 0020     		movs	r0, #0
 711 0034 F3E7     		b	.L38
 712              	.LVL50:
 713              	.L41:
 324:Drivers/BSP/STM32C0xx_Nucleo/stm32c0xx_nucleo.c ****   }
 714              		.loc 1 324 9 view .LVU173
 715 0036 0220     		movs	r0, #2
 716              	.LVL51:
 324:Drivers/BSP/STM32C0xx_Nucleo/stm32c0xx_nucleo.c ****   }
 717              		.loc 1 324 9 view .LVU174
 718 0038 4042     		rsbs	r0, r0, #0
 719              	.LVL52:
 343:Drivers/BSP/STM32C0xx_Nucleo/stm32c0xx_nucleo.c **** }
 720              		.loc 1 343 3 is_stmt 1 view .LVU175
 343:Drivers/BSP/STM32C0xx_Nucleo/stm32c0xx_nucleo.c **** }
 721              		.loc 1 343 10 is_stmt 0 view .LVU176
 722 003a F0E7     		b	.L38
 723              	.L43:
 724              		.align	2
 725              	.L42:
 726 003c 00000000 		.word	LED_PIN
 727 0040 00000000 		.word	LED_PORT
 728              		.cfi_endproc
 729              	.LFE239:
 731              		.section	.text.BSP_LED_Toggle,"ax",%progbits
 732              		.align	1
 733              		.global	BSP_LED_Toggle
 734              		.syntax unified
 735              		.code	16
 736              		.thumb_func
 738              	BSP_LED_Toggle:
 739              	.LVL53:
 740              	.LFB240:
 356:Drivers/BSP/STM32C0xx_Nucleo/stm32c0xx_nucleo.c ****   int32_t ret = BSP_ERROR_NONE;
 741              		.loc 1 356 1 is_stmt 1 view -0
 742              		.cfi_startproc
 743              		@ args = 0, pretend = 0, frame = 0
 744              		@ frame_needed = 0, uses_anonymous_args = 0
 356:Drivers/BSP/STM32C0xx_Nucleo/stm32c0xx_nucleo.c ****   int32_t ret = BSP_ERROR_NONE;
 745              		.loc 1 356 1 is_stmt 0 view .LVU178
 746 0000 10B5     		push	{r4, lr}
 747              	.LCFI10:
 748              		.cfi_def_cfa_offset 8
ARM GAS  C:\Users\simay\AppData\Local\Temp\ccshm0l4.s 			page 30


 749              		.cfi_offset 4, -8
 750              		.cfi_offset 14, -4
 357:Drivers/BSP/STM32C0xx_Nucleo/stm32c0xx_nucleo.c **** 
 751              		.loc 1 357 3 is_stmt 1 view .LVU179
 752              	.LVL54:
 360:Drivers/BSP/STM32C0xx_Nucleo/stm32c0xx_nucleo.c ****       && (Led != LED2))
 753              		.loc 1 360 3 view .LVU180
 360:Drivers/BSP/STM32C0xx_Nucleo/stm32c0xx_nucleo.c ****       && (Led != LED2))
 754              		.loc 1 360 6 is_stmt 0 view .LVU181
 755 0002 0128     		cmp	r0, #1
 756 0004 09D8     		bhi	.L46
 370:Drivers/BSP/STM32C0xx_Nucleo/stm32c0xx_nucleo.c ****   }
 757              		.loc 1 370 5 is_stmt 1 view .LVU182
 370:Drivers/BSP/STM32C0xx_Nucleo/stm32c0xx_nucleo.c ****   }
 758              		.loc 1 370 46 is_stmt 0 view .LVU183
 759 0006 064B     		ldr	r3, .L47
 760 0008 4200     		lsls	r2, r0, #1
 761 000a D15A     		ldrh	r1, [r2, r3]
 370:Drivers/BSP/STM32C0xx_Nucleo/stm32c0xx_nucleo.c ****   }
 762              		.loc 1 370 5 view .LVU184
 763 000c 054B     		ldr	r3, .L47+4
 764 000e 8000     		lsls	r0, r0, #2
 765              	.LVL55:
 370:Drivers/BSP/STM32C0xx_Nucleo/stm32c0xx_nucleo.c ****   }
 766              		.loc 1 370 5 view .LVU185
 767 0010 C058     		ldr	r0, [r0, r3]
 768 0012 FFF7FEFF 		bl	HAL_GPIO_TogglePin
 769              	.LVL56:
 357:Drivers/BSP/STM32C0xx_Nucleo/stm32c0xx_nucleo.c **** 
 770              		.loc 1 357 11 view .LVU186
 771 0016 0020     		movs	r0, #0
 772              	.LVL57:
 773              	.L44:
 374:Drivers/BSP/STM32C0xx_Nucleo/stm32c0xx_nucleo.c **** 
 774              		.loc 1 374 1 view .LVU187
 775              		@ sp needed
 776 0018 10BD     		pop	{r4, pc}
 777              	.LVL58:
 778              	.L46:
 366:Drivers/BSP/STM32C0xx_Nucleo/stm32c0xx_nucleo.c ****   }
 779              		.loc 1 366 9 view .LVU188
 780 001a 0220     		movs	r0, #2
 781              	.LVL59:
 366:Drivers/BSP/STM32C0xx_Nucleo/stm32c0xx_nucleo.c ****   }
 782              		.loc 1 366 9 view .LVU189
 783 001c 4042     		rsbs	r0, r0, #0
 784              	.LVL60:
 373:Drivers/BSP/STM32C0xx_Nucleo/stm32c0xx_nucleo.c **** }
 785              		.loc 1 373 3 is_stmt 1 view .LVU190
 373:Drivers/BSP/STM32C0xx_Nucleo/stm32c0xx_nucleo.c **** }
 786              		.loc 1 373 10 is_stmt 0 view .LVU191
 787 001e FBE7     		b	.L44
 788              	.L48:
 789              		.align	2
 790              	.L47:
 791 0020 00000000 		.word	LED_PIN
 792 0024 00000000 		.word	LED_PORT
ARM GAS  C:\Users\simay\AppData\Local\Temp\ccshm0l4.s 			page 31


 793              		.cfi_endproc
 794              	.LFE240:
 796              		.section	.text.BSP_LED_GetState,"ax",%progbits
 797              		.align	1
 798              		.global	BSP_LED_GetState
 799              		.syntax unified
 800              		.code	16
 801              		.thumb_func
 803              	BSP_LED_GetState:
 804              	.LVL61:
 805              	.LFB241:
 386:Drivers/BSP/STM32C0xx_Nucleo/stm32c0xx_nucleo.c ****   int32_t ret;
 806              		.loc 1 386 1 is_stmt 1 view -0
 807              		.cfi_startproc
 808              		@ args = 0, pretend = 0, frame = 0
 809              		@ frame_needed = 0, uses_anonymous_args = 0
 386:Drivers/BSP/STM32C0xx_Nucleo/stm32c0xx_nucleo.c ****   int32_t ret;
 810              		.loc 1 386 1 is_stmt 0 view .LVU193
 811 0000 10B5     		push	{r4, lr}
 812              	.LCFI11:
 813              		.cfi_def_cfa_offset 8
 814              		.cfi_offset 4, -8
 815              		.cfi_offset 14, -4
 816 0002 0300     		movs	r3, r0
 387:Drivers/BSP/STM32C0xx_Nucleo/stm32c0xx_nucleo.c **** 
 817              		.loc 1 387 3 is_stmt 1 view .LVU194
 390:Drivers/BSP/STM32C0xx_Nucleo/stm32c0xx_nucleo.c ****       && (Led != LED2))
 818              		.loc 1 390 3 view .LVU195
 390:Drivers/BSP/STM32C0xx_Nucleo/stm32c0xx_nucleo.c ****       && (Led != LED2))
 819              		.loc 1 390 6 is_stmt 0 view .LVU196
 820 0004 0128     		cmp	r0, #1
 821 0006 08D8     		bhi	.L51
 400:Drivers/BSP/STM32C0xx_Nucleo/stm32c0xx_nucleo.c ****   }
 822              		.loc 1 400 5 is_stmt 1 view .LVU197
 400:Drivers/BSP/STM32C0xx_Nucleo/stm32c0xx_nucleo.c ****   }
 823              		.loc 1 400 46 is_stmt 0 view .LVU198
 824 0008 054A     		ldr	r2, .L52
 825 000a 8100     		lsls	r1, r0, #2
 826 000c 8858     		ldr	r0, [r1, r2]
 827              	.LVL62:
 400:Drivers/BSP/STM32C0xx_Nucleo/stm32c0xx_nucleo.c ****   }
 828              		.loc 1 400 61 view .LVU199
 829 000e 054A     		ldr	r2, .L52+4
 830 0010 5B00     		lsls	r3, r3, #1
 831              	.LVL63:
 400:Drivers/BSP/STM32C0xx_Nucleo/stm32c0xx_nucleo.c ****   }
 832              		.loc 1 400 61 view .LVU200
 833 0012 995A     		ldrh	r1, [r3, r2]
 400:Drivers/BSP/STM32C0xx_Nucleo/stm32c0xx_nucleo.c ****   }
 834              		.loc 1 400 20 view .LVU201
 835 0014 FFF7FEFF 		bl	HAL_GPIO_ReadPin
 836              	.LVL64:
 837              	.L49:
 404:Drivers/BSP/STM32C0xx_Nucleo/stm32c0xx_nucleo.c **** 
 838              		.loc 1 404 1 view .LVU202
 839              		@ sp needed
 840 0018 10BD     		pop	{r4, pc}
ARM GAS  C:\Users\simay\AppData\Local\Temp\ccshm0l4.s 			page 32


 841              	.LVL65:
 842              	.L51:
 396:Drivers/BSP/STM32C0xx_Nucleo/stm32c0xx_nucleo.c ****   }
 843              		.loc 1 396 9 view .LVU203
 844 001a 0220     		movs	r0, #2
 845              	.LVL66:
 396:Drivers/BSP/STM32C0xx_Nucleo/stm32c0xx_nucleo.c ****   }
 846              		.loc 1 396 9 view .LVU204
 847 001c 4042     		rsbs	r0, r0, #0
 848              	.LVL67:
 403:Drivers/BSP/STM32C0xx_Nucleo/stm32c0xx_nucleo.c **** }
 849              		.loc 1 403 3 is_stmt 1 view .LVU205
 403:Drivers/BSP/STM32C0xx_Nucleo/stm32c0xx_nucleo.c **** }
 850              		.loc 1 403 10 is_stmt 0 view .LVU206
 851 001e FBE7     		b	.L49
 852              	.L53:
 853              		.align	2
 854              	.L52:
 855 0020 00000000 		.word	LED_PORT
 856 0024 00000000 		.word	LED_PIN
 857              		.cfi_endproc
 858              	.LFE241:
 860              		.section	.text.BSP_PB_Init,"ax",%progbits
 861              		.align	1
 862              		.global	BSP_PB_Init
 863              		.syntax unified
 864              		.code	16
 865              		.thumb_func
 867              	BSP_PB_Init:
 868              	.LVL68:
 869              	.LFB242:
 418:Drivers/BSP/STM32C0xx_Nucleo/stm32c0xx_nucleo.c ****   GPIO_InitTypeDef gpio_init_structure;
 870              		.loc 1 418 1 is_stmt 1 view -0
 871              		.cfi_startproc
 872              		@ args = 0, pretend = 0, frame = 24
 873              		@ frame_needed = 0, uses_anonymous_args = 0
 418:Drivers/BSP/STM32C0xx_Nucleo/stm32c0xx_nucleo.c ****   GPIO_InitTypeDef gpio_init_structure;
 874              		.loc 1 418 1 is_stmt 0 view .LVU208
 875 0000 30B5     		push	{r4, r5, lr}
 876              	.LCFI12:
 877              		.cfi_def_cfa_offset 12
 878              		.cfi_offset 4, -12
 879              		.cfi_offset 5, -8
 880              		.cfi_offset 14, -4
 881 0002 87B0     		sub	sp, sp, #28
 882              	.LCFI13:
 883              		.cfi_def_cfa_offset 40
 884 0004 0500     		movs	r5, r0
 419:Drivers/BSP/STM32C0xx_Nucleo/stm32c0xx_nucleo.c ****   static BSP_EXTI_LineCallback ButtonCallback[BUTTONn] = {BUTTON_USER_EXTI_Callback};
 885              		.loc 1 419 3 is_stmt 1 view .LVU209
 420:Drivers/BSP/STM32C0xx_Nucleo/stm32c0xx_nucleo.c ****   static uint32_t  BSP_BUTTON_PRIO [BUTTONn] = {BSP_BUTTON_USER_IT_PRIORITY};
 886              		.loc 1 420 3 view .LVU210
 421:Drivers/BSP/STM32C0xx_Nucleo/stm32c0xx_nucleo.c ****   static const uint32_t BUTTON_EXTI_LINE[BUTTONn] = {BUTTON_USER_EXTI_LINE};
 887              		.loc 1 421 3 view .LVU211
 422:Drivers/BSP/STM32C0xx_Nucleo/stm32c0xx_nucleo.c **** 
 888              		.loc 1 422 3 view .LVU212
 425:Drivers/BSP/STM32C0xx_Nucleo/stm32c0xx_nucleo.c **** 
ARM GAS  C:\Users\simay\AppData\Local\Temp\ccshm0l4.s 			page 33


 889              		.loc 1 425 3 view .LVU213
 890              	.LBB7:
 425:Drivers/BSP/STM32C0xx_Nucleo/stm32c0xx_nucleo.c **** 
 891              		.loc 1 425 3 view .LVU214
 425:Drivers/BSP/STM32C0xx_Nucleo/stm32c0xx_nucleo.c **** 
 892              		.loc 1 425 3 view .LVU215
 893 0006 1C4A     		ldr	r2, .L57
 894 0008 506B     		ldr	r0, [r2, #52]
 895              	.LVL69:
 425:Drivers/BSP/STM32C0xx_Nucleo/stm32c0xx_nucleo.c **** 
 896              		.loc 1 425 3 is_stmt 0 view .LVU216
 897 000a 0423     		movs	r3, #4
 898 000c 1843     		orrs	r0, r3
 899 000e 5063     		str	r0, [r2, #52]
 425:Drivers/BSP/STM32C0xx_Nucleo/stm32c0xx_nucleo.c **** 
 900              		.loc 1 425 3 is_stmt 1 view .LVU217
 901 0010 526B     		ldr	r2, [r2, #52]
 902 0012 1340     		ands	r3, r2
 903 0014 0093     		str	r3, [sp]
 425:Drivers/BSP/STM32C0xx_Nucleo/stm32c0xx_nucleo.c **** 
 904              		.loc 1 425 3 view .LVU218
 905 0016 009B     		ldr	r3, [sp]
 906              	.LBE7:
 425:Drivers/BSP/STM32C0xx_Nucleo/stm32c0xx_nucleo.c **** 
 907              		.loc 1 425 3 view .LVU219
 427:Drivers/BSP/STM32C0xx_Nucleo/stm32c0xx_nucleo.c ****   gpio_init_structure.Pull = GPIO_PULLUP;
 908              		.loc 1 427 3 view .LVU220
 427:Drivers/BSP/STM32C0xx_Nucleo/stm32c0xx_nucleo.c ****   gpio_init_structure.Pull = GPIO_PULLUP;
 909              		.loc 1 427 27 is_stmt 0 view .LVU221
 910 0018 01AB     		add	r3, sp, #4
 911 001a 8022     		movs	r2, #128
 912 001c 9201     		lsls	r2, r2, #6
 913 001e 0192     		str	r2, [sp, #4]
 428:Drivers/BSP/STM32C0xx_Nucleo/stm32c0xx_nucleo.c ****   gpio_init_structure.Speed = GPIO_SPEED_FREQ_HIGH;
 914              		.loc 1 428 3 is_stmt 1 view .LVU222
 428:Drivers/BSP/STM32C0xx_Nucleo/stm32c0xx_nucleo.c ****   gpio_init_structure.Speed = GPIO_SPEED_FREQ_HIGH;
 915              		.loc 1 428 28 is_stmt 0 view .LVU223
 916 0020 0122     		movs	r2, #1
 917 0022 0392     		str	r2, [sp, #12]
 429:Drivers/BSP/STM32C0xx_Nucleo/stm32c0xx_nucleo.c **** 
 918              		.loc 1 429 3 is_stmt 1 view .LVU224
 429:Drivers/BSP/STM32C0xx_Nucleo/stm32c0xx_nucleo.c **** 
 919              		.loc 1 429 29 is_stmt 0 view .LVU225
 920 0024 0132     		adds	r2, r2, #1
 921 0026 0492     		str	r2, [sp, #16]
 431:Drivers/BSP/STM32C0xx_Nucleo/stm32c0xx_nucleo.c ****   {
 922              		.loc 1 431 3 is_stmt 1 view .LVU226
 431:Drivers/BSP/STM32C0xx_Nucleo/stm32c0xx_nucleo.c ****   {
 923              		.loc 1 431 6 is_stmt 0 view .LVU227
 924 0028 0029     		cmp	r1, #0
 925 002a 08D1     		bne	.L55
 434:Drivers/BSP/STM32C0xx_Nucleo/stm32c0xx_nucleo.c ****     HAL_GPIO_Init(BUTTON_PORT [Button], &gpio_init_structure);
 926              		.loc 1 434 5 is_stmt 1 view .LVU228
 434:Drivers/BSP/STM32C0xx_Nucleo/stm32c0xx_nucleo.c ****     HAL_GPIO_Init(BUTTON_PORT [Button], &gpio_init_structure);
 927              		.loc 1 434 30 is_stmt 0 view .LVU229
 928 002c 1900     		movs	r1, r3
 929              	.LVL70:
ARM GAS  C:\Users\simay\AppData\Local\Temp\ccshm0l4.s 			page 34


 434:Drivers/BSP/STM32C0xx_Nucleo/stm32c0xx_nucleo.c ****     HAL_GPIO_Init(BUTTON_PORT [Button], &gpio_init_structure);
 930              		.loc 1 434 30 view .LVU230
 931 002e 0023     		movs	r3, #0
 932 0030 4B60     		str	r3, [r1, #4]
 435:Drivers/BSP/STM32C0xx_Nucleo/stm32c0xx_nucleo.c ****   }
 933              		.loc 1 435 5 is_stmt 1 view .LVU231
 934 0032 1248     		ldr	r0, .L57+4
 935 0034 FFF7FEFF 		bl	HAL_GPIO_Init
 936              	.LVL71:
 937              	.L56:
 452:Drivers/BSP/STM32C0xx_Nucleo/stm32c0xx_nucleo.c **** }
 938              		.loc 1 452 3 view .LVU232
 453:Drivers/BSP/STM32C0xx_Nucleo/stm32c0xx_nucleo.c **** 
 939              		.loc 1 453 1 is_stmt 0 view .LVU233
 940 0038 0020     		movs	r0, #0
 941 003a 07B0     		add	sp, sp, #28
 942              		@ sp needed
 943              	.LVL72:
 453:Drivers/BSP/STM32C0xx_Nucleo/stm32c0xx_nucleo.c **** 
 944              		.loc 1 453 1 view .LVU234
 945 003c 30BD     		pop	{r4, r5, pc}
 946              	.LVL73:
 947              	.L55:
 440:Drivers/BSP/STM32C0xx_Nucleo/stm32c0xx_nucleo.c **** 
 948              		.loc 1 440 5 is_stmt 1 view .LVU235
 440:Drivers/BSP/STM32C0xx_Nucleo/stm32c0xx_nucleo.c **** 
 949              		.loc 1 440 30 is_stmt 0 view .LVU236
 950 003e 01A9     		add	r1, sp, #4
 951              	.LVL74:
 440:Drivers/BSP/STM32C0xx_Nucleo/stm32c0xx_nucleo.c **** 
 952              		.loc 1 440 30 view .LVU237
 953 0040 0F4B     		ldr	r3, .L57+8
 954 0042 4B60     		str	r3, [r1, #4]
 442:Drivers/BSP/STM32C0xx_Nucleo/stm32c0xx_nucleo.c **** 
 955              		.loc 1 442 5 is_stmt 1 view .LVU238
 956 0044 0D48     		ldr	r0, .L57+4
 957 0046 FFF7FEFF 		bl	HAL_GPIO_Init
 958              	.LVL75:
 444:Drivers/BSP/STM32C0xx_Nucleo/stm32c0xx_nucleo.c ****     (void)HAL_EXTI_RegisterCallback(&hpb_exti[Button],  HAL_EXTI_COMMON_CB_ID, ButtonCallback[Butto
 959              		.loc 1 444 5 view .LVU239
 444:Drivers/BSP/STM32C0xx_Nucleo/stm32c0xx_nucleo.c ****     (void)HAL_EXTI_RegisterCallback(&hpb_exti[Button],  HAL_EXTI_COMMON_CB_ID, ButtonCallback[Butto
 960              		.loc 1 444 11 is_stmt 0 view .LVU240
 961 004a 6C00     		lsls	r4, r5, #1
 962 004c 6419     		adds	r4, r4, r5
 963 004e A400     		lsls	r4, r4, #2
 964 0050 0C4B     		ldr	r3, .L57+12
 965 0052 E418     		adds	r4, r4, r3
 966 0054 0C49     		ldr	r1, .L57+16
 967 0056 2000     		movs	r0, r4
 968 0058 FFF7FEFF 		bl	HAL_EXTI_GetHandle
 969              	.LVL76:
 445:Drivers/BSP/STM32C0xx_Nucleo/stm32c0xx_nucleo.c **** 
 970              		.loc 1 445 5 is_stmt 1 view .LVU241
 445:Drivers/BSP/STM32C0xx_Nucleo/stm32c0xx_nucleo.c **** 
 971              		.loc 1 445 11 is_stmt 0 view .LVU242
 972 005c 0B4A     		ldr	r2, .L57+20
 973 005e 0021     		movs	r1, #0
ARM GAS  C:\Users\simay\AppData\Local\Temp\ccshm0l4.s 			page 35


 974 0060 2000     		movs	r0, r4
 975 0062 FFF7FEFF 		bl	HAL_EXTI_RegisterCallback
 976              	.LVL77:
 448:Drivers/BSP/STM32C0xx_Nucleo/stm32c0xx_nucleo.c ****     HAL_NVIC_EnableIRQ((BUTTON_IRQn[Button]));
 977              		.loc 1 448 5 is_stmt 1 view .LVU243
 978 0066 0022     		movs	r2, #0
 979 0068 0F21     		movs	r1, #15
 980 006a 0720     		movs	r0, #7
 981 006c FFF7FEFF 		bl	HAL_NVIC_SetPriority
 982              	.LVL78:
 449:Drivers/BSP/STM32C0xx_Nucleo/stm32c0xx_nucleo.c ****   }
 983              		.loc 1 449 5 view .LVU244
 984 0070 0720     		movs	r0, #7
 985 0072 FFF7FEFF 		bl	HAL_NVIC_EnableIRQ
 986              	.LVL79:
 987 0076 DFE7     		b	.L56
 988              	.L58:
 989              		.align	2
 990              	.L57:
 991 0078 00100240 		.word	1073876992
 992 007c 00080050 		.word	1342179328
 993 0080 00002110 		.word	270598144
 994 0084 00000000 		.word	hpb_exti
 995 0088 0D000006 		.word	100663309
 996 008c 00000000 		.word	BUTTON_USER_EXTI_Callback
 997              		.cfi_endproc
 998              	.LFE242:
 1000              		.section	.text.BSP_PB_DeInit,"ax",%progbits
 1001              		.align	1
 1002              		.global	BSP_PB_DeInit
 1003              		.syntax unified
 1004              		.code	16
 1005              		.thumb_func
 1007              	BSP_PB_DeInit:
 1008              	.LVL80:
 1009              	.LFB243:
 463:Drivers/BSP/STM32C0xx_Nucleo/stm32c0xx_nucleo.c ****   GPIO_InitTypeDef gpio_init_structure;
 1010              		.loc 1 463 1 view -0
 1011              		.cfi_startproc
 1012              		@ args = 0, pretend = 0, frame = 24
 1013              		@ frame_needed = 0, uses_anonymous_args = 0
 463:Drivers/BSP/STM32C0xx_Nucleo/stm32c0xx_nucleo.c ****   GPIO_InitTypeDef gpio_init_structure;
 1014              		.loc 1 463 1 is_stmt 0 view .LVU246
 1015 0000 10B5     		push	{r4, lr}
 1016              	.LCFI14:
 1017              		.cfi_def_cfa_offset 8
 1018              		.cfi_offset 4, -8
 1019              		.cfi_offset 14, -4
 1020 0002 86B0     		sub	sp, sp, #24
 1021              	.LCFI15:
 1022              		.cfi_def_cfa_offset 32
 464:Drivers/BSP/STM32C0xx_Nucleo/stm32c0xx_nucleo.c **** 
 1023              		.loc 1 464 3 is_stmt 1 view .LVU247
 466:Drivers/BSP/STM32C0xx_Nucleo/stm32c0xx_nucleo.c ****   HAL_NVIC_DisableIRQ((IRQn_Type)(BUTTON_IRQn[Button]));
 1024              		.loc 1 466 3 view .LVU248
 466:Drivers/BSP/STM32C0xx_Nucleo/stm32c0xx_nucleo.c ****   HAL_NVIC_DisableIRQ((IRQn_Type)(BUTTON_IRQn[Button]));
 1025              		.loc 1 466 27 is_stmt 0 view .LVU249
ARM GAS  C:\Users\simay\AppData\Local\Temp\ccshm0l4.s 			page 36


 1026 0004 8024     		movs	r4, #128
 1027 0006 A401     		lsls	r4, r4, #6
 1028 0008 0194     		str	r4, [sp, #4]
 467:Drivers/BSP/STM32C0xx_Nucleo/stm32c0xx_nucleo.c ****   HAL_GPIO_DeInit(BUTTON_PORT[Button], gpio_init_structure.Pin);
 1029              		.loc 1 467 3 is_stmt 1 view .LVU250
 1030 000a 0720     		movs	r0, #7
 1031              	.LVL81:
 467:Drivers/BSP/STM32C0xx_Nucleo/stm32c0xx_nucleo.c ****   HAL_GPIO_DeInit(BUTTON_PORT[Button], gpio_init_structure.Pin);
 1032              		.loc 1 467 3 is_stmt 0 view .LVU251
 1033 000c FFF7FEFF 		bl	HAL_NVIC_DisableIRQ
 1034              	.LVL82:
 468:Drivers/BSP/STM32C0xx_Nucleo/stm32c0xx_nucleo.c **** 
 1035              		.loc 1 468 3 is_stmt 1 view .LVU252
 1036 0010 2100     		movs	r1, r4
 1037 0012 0348     		ldr	r0, .L60
 1038 0014 FFF7FEFF 		bl	HAL_GPIO_DeInit
 1039              	.LVL83:
 470:Drivers/BSP/STM32C0xx_Nucleo/stm32c0xx_nucleo.c **** }
 1040              		.loc 1 470 3 view .LVU253
 471:Drivers/BSP/STM32C0xx_Nucleo/stm32c0xx_nucleo.c **** 
 1041              		.loc 1 471 1 is_stmt 0 view .LVU254
 1042 0018 0020     		movs	r0, #0
 1043 001a 06B0     		add	sp, sp, #24
 1044              		@ sp needed
 1045 001c 10BD     		pop	{r4, pc}
 1046              	.L61:
 1047 001e C046     		.align	2
 1048              	.L60:
 1049 0020 00080050 		.word	1342179328
 1050              		.cfi_endproc
 1051              	.LFE243:
 1053              		.section	.text.BSP_PB_GetState,"ax",%progbits
 1054              		.align	1
 1055              		.global	BSP_PB_GetState
 1056              		.syntax unified
 1057              		.code	16
 1058              		.thumb_func
 1060              	BSP_PB_GetState:
 1061              	.LVL84:
 1062              	.LFB244:
 481:Drivers/BSP/STM32C0xx_Nucleo/stm32c0xx_nucleo.c ****   return (int32_t)HAL_GPIO_ReadPin(BUTTON_PORT[Button], BUTTON_PIN[Button]);
 1063              		.loc 1 481 1 is_stmt 1 view -0
 1064              		.cfi_startproc
 1065              		@ args = 0, pretend = 0, frame = 0
 1066              		@ frame_needed = 0, uses_anonymous_args = 0
 481:Drivers/BSP/STM32C0xx_Nucleo/stm32c0xx_nucleo.c ****   return (int32_t)HAL_GPIO_ReadPin(BUTTON_PORT[Button], BUTTON_PIN[Button]);
 1067              		.loc 1 481 1 is_stmt 0 view .LVU256
 1068 0000 10B5     		push	{r4, lr}
 1069              	.LCFI16:
 1070              		.cfi_def_cfa_offset 8
 1071              		.cfi_offset 4, -8
 1072              		.cfi_offset 14, -4
 482:Drivers/BSP/STM32C0xx_Nucleo/stm32c0xx_nucleo.c **** }
 1073              		.loc 1 482 3 is_stmt 1 view .LVU257
 482:Drivers/BSP/STM32C0xx_Nucleo/stm32c0xx_nucleo.c **** }
 1074              		.loc 1 482 19 is_stmt 0 view .LVU258
 1075 0002 8021     		movs	r1, #128
ARM GAS  C:\Users\simay\AppData\Local\Temp\ccshm0l4.s 			page 37


 1076 0004 8901     		lsls	r1, r1, #6
 1077 0006 0248     		ldr	r0, .L63
 1078              	.LVL85:
 482:Drivers/BSP/STM32C0xx_Nucleo/stm32c0xx_nucleo.c **** }
 1079              		.loc 1 482 19 view .LVU259
 1080 0008 FFF7FEFF 		bl	HAL_GPIO_ReadPin
 1081              	.LVL86:
 483:Drivers/BSP/STM32C0xx_Nucleo/stm32c0xx_nucleo.c **** 
 1082              		.loc 1 483 1 view .LVU260
 1083              		@ sp needed
 1084 000c 10BD     		pop	{r4, pc}
 1085              	.L64:
 1086 000e C046     		.align	2
 1087              	.L63:
 1088 0010 00080050 		.word	1342179328
 1089              		.cfi_endproc
 1090              	.LFE244:
 1092              		.section	.text.BSP_PB_IRQHandler,"ax",%progbits
 1093              		.align	1
 1094              		.global	BSP_PB_IRQHandler
 1095              		.syntax unified
 1096              		.code	16
 1097              		.thumb_func
 1099              	BSP_PB_IRQHandler:
 1100              	.LVL87:
 1101              	.LFB245:
 491:Drivers/BSP/STM32C0xx_Nucleo/stm32c0xx_nucleo.c ****   HAL_EXTI_IRQHandler(&hpb_exti[Button]);
 1102              		.loc 1 491 1 is_stmt 1 view -0
 1103              		.cfi_startproc
 1104              		@ args = 0, pretend = 0, frame = 0
 1105              		@ frame_needed = 0, uses_anonymous_args = 0
 491:Drivers/BSP/STM32C0xx_Nucleo/stm32c0xx_nucleo.c ****   HAL_EXTI_IRQHandler(&hpb_exti[Button]);
 1106              		.loc 1 491 1 is_stmt 0 view .LVU262
 1107 0000 10B5     		push	{r4, lr}
 1108              	.LCFI17:
 1109              		.cfi_def_cfa_offset 8
 1110              		.cfi_offset 4, -8
 1111              		.cfi_offset 14, -4
 492:Drivers/BSP/STM32C0xx_Nucleo/stm32c0xx_nucleo.c **** }
 1112              		.loc 1 492 3 is_stmt 1 view .LVU263
 492:Drivers/BSP/STM32C0xx_Nucleo/stm32c0xx_nucleo.c **** }
 1113              		.loc 1 492 23 is_stmt 0 view .LVU264
 1114 0002 4300     		lsls	r3, r0, #1
 1115 0004 1818     		adds	r0, r3, r0
 1116              	.LVL88:
 492:Drivers/BSP/STM32C0xx_Nucleo/stm32c0xx_nucleo.c **** }
 1117              		.loc 1 492 23 view .LVU265
 1118 0006 8000     		lsls	r0, r0, #2
 1119 0008 024B     		ldr	r3, .L66
 1120 000a C018     		adds	r0, r0, r3
 492:Drivers/BSP/STM32C0xx_Nucleo/stm32c0xx_nucleo.c **** }
 1121              		.loc 1 492 3 view .LVU266
 1122 000c FFF7FEFF 		bl	HAL_EXTI_IRQHandler
 1123              	.LVL89:
 493:Drivers/BSP/STM32C0xx_Nucleo/stm32c0xx_nucleo.c **** 
 1124              		.loc 1 493 1 view .LVU267
 1125              		@ sp needed
ARM GAS  C:\Users\simay\AppData\Local\Temp\ccshm0l4.s 			page 38


 1126 0010 10BD     		pop	{r4, pc}
 1127              	.L67:
 1128 0012 C046     		.align	2
 1129              	.L66:
 1130 0014 00000000 		.word	hpb_exti
 1131              		.cfi_endproc
 1132              	.LFE245:
 1134              		.section	.text.BSP_PB_Callback,"ax",%progbits
 1135              		.align	1
 1136              		.weak	BSP_PB_Callback
 1137              		.syntax unified
 1138              		.code	16
 1139              		.thumb_func
 1141              	BSP_PB_Callback:
 1142              	.LVL90:
 1143              	.LFB246:
 501:Drivers/BSP/STM32C0xx_Nucleo/stm32c0xx_nucleo.c ****   /* Prevent unused argument(s) compilation warning */
 1144              		.loc 1 501 1 is_stmt 1 view -0
 1145              		.cfi_startproc
 1146              		@ args = 0, pretend = 0, frame = 0
 1147              		@ frame_needed = 0, uses_anonymous_args = 0
 1148              		@ link register save eliminated.
 503:Drivers/BSP/STM32C0xx_Nucleo/stm32c0xx_nucleo.c **** 
 1149              		.loc 1 503 3 view .LVU269
 507:Drivers/BSP/STM32C0xx_Nucleo/stm32c0xx_nucleo.c **** 
 1150              		.loc 1 507 1 is_stmt 0 view .LVU270
 1151              		@ sp needed
 1152 0000 7047     		bx	lr
 1153              		.cfi_endproc
 1154              	.LFE246:
 1156              		.section	.text.BUTTON_USER_EXTI_Callback,"ax",%progbits
 1157              		.align	1
 1158              		.syntax unified
 1159              		.code	16
 1160              		.thumb_func
 1162              	BUTTON_USER_EXTI_Callback:
 1163              	.LFB252:
 736:Drivers/BSP/STM32C0xx_Nucleo/stm32c0xx_nucleo.c ****   BSP_PB_Callback(BUTTON_USER);
 1164              		.loc 1 736 1 is_stmt 1 view -0
 1165              		.cfi_startproc
 1166              		@ args = 0, pretend = 0, frame = 0
 1167              		@ frame_needed = 0, uses_anonymous_args = 0
 1168 0000 10B5     		push	{r4, lr}
 1169              	.LCFI18:
 1170              		.cfi_def_cfa_offset 8
 1171              		.cfi_offset 4, -8
 1172              		.cfi_offset 14, -4
 737:Drivers/BSP/STM32C0xx_Nucleo/stm32c0xx_nucleo.c **** }
 1173              		.loc 1 737 3 view .LVU272
 1174 0002 0020     		movs	r0, #0
 1175 0004 FFF7FEFF 		bl	BSP_PB_Callback
 1176              	.LVL91:
 738:Drivers/BSP/STM32C0xx_Nucleo/stm32c0xx_nucleo.c **** 
 1177              		.loc 1 738 1 is_stmt 0 view .LVU273
 1178              		@ sp needed
 1179 0008 10BD     		pop	{r4, pc}
 1180              		.cfi_endproc
ARM GAS  C:\Users\simay\AppData\Local\Temp\ccshm0l4.s 			page 39


 1181              	.LFE252:
 1183              		.section	.text.BSP_COM_DeInit,"ax",%progbits
 1184              		.align	1
 1185              		.global	BSP_COM_DeInit
 1186              		.syntax unified
 1187              		.code	16
 1188              		.thumb_func
 1190              	BSP_COM_DeInit:
 1191              	.LVL92:
 1192              	.LFB248:
 557:Drivers/BSP/STM32C0xx_Nucleo/stm32c0xx_nucleo.c ****   int32_t ret = BSP_ERROR_NONE;
 1193              		.loc 1 557 1 is_stmt 1 view -0
 1194              		.cfi_startproc
 1195              		@ args = 0, pretend = 0, frame = 0
 1196              		@ frame_needed = 0, uses_anonymous_args = 0
 557:Drivers/BSP/STM32C0xx_Nucleo/stm32c0xx_nucleo.c ****   int32_t ret = BSP_ERROR_NONE;
 1197              		.loc 1 557 1 is_stmt 0 view .LVU275
 1198 0000 10B5     		push	{r4, lr}
 1199              	.LCFI19:
 1200              		.cfi_def_cfa_offset 8
 1201              		.cfi_offset 4, -8
 1202              		.cfi_offset 14, -4
 558:Drivers/BSP/STM32C0xx_Nucleo/stm32c0xx_nucleo.c **** 
 1203              		.loc 1 558 3 is_stmt 1 view .LVU276
 1204              	.LVL93:
 560:Drivers/BSP/STM32C0xx_Nucleo/stm32c0xx_nucleo.c ****   {
 1205              		.loc 1 560 3 view .LVU277
 560:Drivers/BSP/STM32C0xx_Nucleo/stm32c0xx_nucleo.c ****   {
 1206              		.loc 1 560 6 is_stmt 0 view .LVU278
 1207 0002 0028     		cmp	r0, #0
 1208 0004 10D1     		bne	.L72
 567:Drivers/BSP/STM32C0xx_Nucleo/stm32c0xx_nucleo.c **** 
 1209              		.loc 1 567 5 is_stmt 1 view .LVU279
 567:Drivers/BSP/STM32C0xx_Nucleo/stm32c0xx_nucleo.c **** 
 1210              		.loc 1 567 40 is_stmt 0 view .LVU280
 1211 0006 0B4B     		ldr	r3, .L74
 1212 0008 8200     		lsls	r2, r0, #2
 1213 000a D258     		ldr	r2, [r2, r3]
 567:Drivers/BSP/STM32C0xx_Nucleo/stm32c0xx_nucleo.c **** 
 1214              		.loc 1 567 29 view .LVU281
 1215 000c 0A4B     		ldr	r3, .L74+4
 1216 000e 9424     		movs	r4, #148
 1217 0010 4443     		muls	r4, r0
 1218 0012 E250     		str	r2, [r4, r3]
 570:Drivers/BSP/STM32C0xx_Nucleo/stm32c0xx_nucleo.c **** #endif /* (USE_HAL_UART_REGISTER_CALLBACKS == 0) */
 1219              		.loc 1 570 5 is_stmt 1 view .LVU282
 1220 0014 E418     		adds	r4, r4, r3
 1221 0016 2000     		movs	r0, r4
 1222              	.LVL94:
 570:Drivers/BSP/STM32C0xx_Nucleo/stm32c0xx_nucleo.c **** #endif /* (USE_HAL_UART_REGISTER_CALLBACKS == 0) */
 1223              		.loc 1 570 5 is_stmt 0 view .LVU283
 1224 0018 FFF7FEFF 		bl	COM1_MspDeInit
 1225              	.LVL95:
 573:Drivers/BSP/STM32C0xx_Nucleo/stm32c0xx_nucleo.c ****     {
 1226              		.loc 1 573 5 is_stmt 1 view .LVU284
 573:Drivers/BSP/STM32C0xx_Nucleo/stm32c0xx_nucleo.c ****     {
 1227              		.loc 1 573 9 is_stmt 0 view .LVU285
ARM GAS  C:\Users\simay\AppData\Local\Temp\ccshm0l4.s 			page 40


 1228 001c 2000     		movs	r0, r4
 1229 001e FFF7FEFF 		bl	HAL_UART_DeInit
 1230              	.LVL96:
 573:Drivers/BSP/STM32C0xx_Nucleo/stm32c0xx_nucleo.c ****     {
 1231              		.loc 1 573 8 discriminator 1 view .LVU286
 1232 0022 0028     		cmp	r0, #0
 1233 0024 03D1     		bne	.L73
 1234              	.LVL97:
 1235              	.L70:
 580:Drivers/BSP/STM32C0xx_Nucleo/stm32c0xx_nucleo.c **** 
 1236              		.loc 1 580 1 view .LVU287
 1237              		@ sp needed
 1238 0026 10BD     		pop	{r4, pc}
 1239              	.LVL98:
 1240              	.L72:
 562:Drivers/BSP/STM32C0xx_Nucleo/stm32c0xx_nucleo.c ****   }
 1241              		.loc 1 562 9 view .LVU288
 1242 0028 0220     		movs	r0, #2
 1243              	.LVL99:
 562:Drivers/BSP/STM32C0xx_Nucleo/stm32c0xx_nucleo.c ****   }
 1244              		.loc 1 562 9 view .LVU289
 1245 002a 4042     		rsbs	r0, r0, #0
 1246 002c FBE7     		b	.L70
 1247              	.L73:
 575:Drivers/BSP/STM32C0xx_Nucleo/stm32c0xx_nucleo.c ****     }
 1248              		.loc 1 575 11 view .LVU290
 1249 002e 0420     		movs	r0, #4
 1250 0030 4042     		rsbs	r0, r0, #0
 1251              	.LVL100:
 579:Drivers/BSP/STM32C0xx_Nucleo/stm32c0xx_nucleo.c **** }
 1252              		.loc 1 579 3 is_stmt 1 view .LVU291
 579:Drivers/BSP/STM32C0xx_Nucleo/stm32c0xx_nucleo.c **** }
 1253              		.loc 1 579 10 is_stmt 0 view .LVU292
 1254 0032 F8E7     		b	.L70
 1255              	.L75:
 1256              		.align	2
 1257              	.L74:
 1258 0034 00000000 		.word	COM_USART
 1259 0038 00000000 		.word	hcom_uart
 1260              		.cfi_endproc
 1261              	.LFE248:
 1263              		.section	.text.MX_USART2_Init,"ax",%progbits
 1264              		.align	1
 1265              		.weak	MX_USART2_Init
 1266              		.syntax unified
 1267              		.code	16
 1268              		.thumb_func
 1270              	MX_USART2_Init:
 1271              	.LVL101:
 1272              	.LFB249:
 590:Drivers/BSP/STM32C0xx_Nucleo/stm32c0xx_nucleo.c ****   /* USART configuration */
 1273              		.loc 1 590 1 is_stmt 1 view -0
 1274              		.cfi_startproc
 1275              		@ args = 0, pretend = 0, frame = 0
 1276              		@ frame_needed = 0, uses_anonymous_args = 0
 590:Drivers/BSP/STM32C0xx_Nucleo/stm32c0xx_nucleo.c ****   /* USART configuration */
 1277              		.loc 1 590 1 is_stmt 0 view .LVU294
ARM GAS  C:\Users\simay\AppData\Local\Temp\ccshm0l4.s 			page 41


 1278 0000 10B5     		push	{r4, lr}
 1279              	.LCFI20:
 1280              		.cfi_def_cfa_offset 8
 1281              		.cfi_offset 4, -8
 1282              		.cfi_offset 14, -4
 592:Drivers/BSP/STM32C0xx_Nucleo/stm32c0xx_nucleo.c ****   huart->Init.BaudRate           = COM_Init->BaudRate;
 1283              		.loc 1 592 3 is_stmt 1 view .LVU295
 592:Drivers/BSP/STM32C0xx_Nucleo/stm32c0xx_nucleo.c ****   huart->Init.BaudRate           = COM_Init->BaudRate;
 1284              		.loc 1 592 45 is_stmt 0 view .LVU296
 1285 0002 0B4B     		ldr	r3, .L77
 1286 0004 1B68     		ldr	r3, [r3]
 592:Drivers/BSP/STM32C0xx_Nucleo/stm32c0xx_nucleo.c ****   huart->Init.BaudRate           = COM_Init->BaudRate;
 1287              		.loc 1 592 34 view .LVU297
 1288 0006 0360     		str	r3, [r0]
 593:Drivers/BSP/STM32C0xx_Nucleo/stm32c0xx_nucleo.c ****   huart->Init.Mode               = UART_MODE_TX_RX;
 1289              		.loc 1 593 3 is_stmt 1 view .LVU298
 593:Drivers/BSP/STM32C0xx_Nucleo/stm32c0xx_nucleo.c ****   huart->Init.Mode               = UART_MODE_TX_RX;
 1290              		.loc 1 593 44 is_stmt 0 view .LVU299
 1291 0008 0B68     		ldr	r3, [r1]
 593:Drivers/BSP/STM32C0xx_Nucleo/stm32c0xx_nucleo.c ****   huart->Init.Mode               = UART_MODE_TX_RX;
 1292              		.loc 1 593 34 view .LVU300
 1293 000a 4360     		str	r3, [r0, #4]
 594:Drivers/BSP/STM32C0xx_Nucleo/stm32c0xx_nucleo.c ****   huart->Init.Parity             = (uint32_t)COM_Init->Parity;
 1294              		.loc 1 594 3 is_stmt 1 view .LVU301
 594:Drivers/BSP/STM32C0xx_Nucleo/stm32c0xx_nucleo.c ****   huart->Init.Parity             = (uint32_t)COM_Init->Parity;
 1295              		.loc 1 594 34 is_stmt 0 view .LVU302
 1296 000c 0C23     		movs	r3, #12
 1297 000e 4361     		str	r3, [r0, #20]
 595:Drivers/BSP/STM32C0xx_Nucleo/stm32c0xx_nucleo.c ****   huart->Init.WordLength         = (uint32_t)COM_Init->WordLength;
 1298              		.loc 1 595 3 is_stmt 1 view .LVU303
 595:Drivers/BSP/STM32C0xx_Nucleo/stm32c0xx_nucleo.c ****   huart->Init.WordLength         = (uint32_t)COM_Init->WordLength;
 1299              		.loc 1 595 54 is_stmt 0 view .LVU304
 1300 0010 4B89     		ldrh	r3, [r1, #10]
 595:Drivers/BSP/STM32C0xx_Nucleo/stm32c0xx_nucleo.c ****   huart->Init.WordLength         = (uint32_t)COM_Init->WordLength;
 1301              		.loc 1 595 34 view .LVU305
 1302 0012 0361     		str	r3, [r0, #16]
 596:Drivers/BSP/STM32C0xx_Nucleo/stm32c0xx_nucleo.c ****   huart->Init.StopBits           = (uint32_t)COM_Init->StopBits;
 1303              		.loc 1 596 3 is_stmt 1 view .LVU306
 596:Drivers/BSP/STM32C0xx_Nucleo/stm32c0xx_nucleo.c ****   huart->Init.StopBits           = (uint32_t)COM_Init->StopBits;
 1304              		.loc 1 596 54 is_stmt 0 view .LVU307
 1305 0014 4B68     		ldr	r3, [r1, #4]
 596:Drivers/BSP/STM32C0xx_Nucleo/stm32c0xx_nucleo.c ****   huart->Init.StopBits           = (uint32_t)COM_Init->StopBits;
 1306              		.loc 1 596 34 view .LVU308
 1307 0016 8360     		str	r3, [r0, #8]
 597:Drivers/BSP/STM32C0xx_Nucleo/stm32c0xx_nucleo.c ****   huart->Init.HwFlowCtl          = (uint32_t)COM_Init->HwFlowCtl;
 1308              		.loc 1 597 3 is_stmt 1 view .LVU309
 597:Drivers/BSP/STM32C0xx_Nucleo/stm32c0xx_nucleo.c ****   huart->Init.HwFlowCtl          = (uint32_t)COM_Init->HwFlowCtl;
 1309              		.loc 1 597 54 is_stmt 0 view .LVU310
 1310 0018 0B89     		ldrh	r3, [r1, #8]
 597:Drivers/BSP/STM32C0xx_Nucleo/stm32c0xx_nucleo.c ****   huart->Init.HwFlowCtl          = (uint32_t)COM_Init->HwFlowCtl;
 1311              		.loc 1 597 34 view .LVU311
 1312 001a C360     		str	r3, [r0, #12]
 598:Drivers/BSP/STM32C0xx_Nucleo/stm32c0xx_nucleo.c ****   huart->Init.OverSampling       = UART_OVERSAMPLING_8;
 1313              		.loc 1 598 3 is_stmt 1 view .LVU312
 598:Drivers/BSP/STM32C0xx_Nucleo/stm32c0xx_nucleo.c ****   huart->Init.OverSampling       = UART_OVERSAMPLING_8;
 1314              		.loc 1 598 54 is_stmt 0 view .LVU313
 1315 001c 8B89     		ldrh	r3, [r1, #12]
ARM GAS  C:\Users\simay\AppData\Local\Temp\ccshm0l4.s 			page 42


 598:Drivers/BSP/STM32C0xx_Nucleo/stm32c0xx_nucleo.c ****   huart->Init.OverSampling       = UART_OVERSAMPLING_8;
 1316              		.loc 1 598 34 view .LVU314
 1317 001e 8361     		str	r3, [r0, #24]
 599:Drivers/BSP/STM32C0xx_Nucleo/stm32c0xx_nucleo.c ****   huart->Init.ClockPrescaler     = UART_PRESCALER_DIV1;
 1318              		.loc 1 599 3 is_stmt 1 view .LVU315
 599:Drivers/BSP/STM32C0xx_Nucleo/stm32c0xx_nucleo.c ****   huart->Init.ClockPrescaler     = UART_PRESCALER_DIV1;
 1319              		.loc 1 599 34 is_stmt 0 view .LVU316
 1320 0020 8023     		movs	r3, #128
 1321 0022 1B02     		lsls	r3, r3, #8
 1322 0024 C361     		str	r3, [r0, #28]
 600:Drivers/BSP/STM32C0xx_Nucleo/stm32c0xx_nucleo.c ****   return HAL_UART_Init(huart);
 1323              		.loc 1 600 3 is_stmt 1 view .LVU317
 600:Drivers/BSP/STM32C0xx_Nucleo/stm32c0xx_nucleo.c ****   return HAL_UART_Init(huart);
 1324              		.loc 1 600 34 is_stmt 0 view .LVU318
 1325 0026 0023     		movs	r3, #0
 1326 0028 4362     		str	r3, [r0, #36]
 601:Drivers/BSP/STM32C0xx_Nucleo/stm32c0xx_nucleo.c **** }
 1327              		.loc 1 601 3 is_stmt 1 view .LVU319
 601:Drivers/BSP/STM32C0xx_Nucleo/stm32c0xx_nucleo.c **** }
 1328              		.loc 1 601 10 is_stmt 0 view .LVU320
 1329 002a FFF7FEFF 		bl	HAL_UART_Init
 1330              	.LVL102:
 602:Drivers/BSP/STM32C0xx_Nucleo/stm32c0xx_nucleo.c **** 
 1331              		.loc 1 602 1 view .LVU321
 1332              		@ sp needed
 1333 002e 10BD     		pop	{r4, pc}
 1334              	.L78:
 1335              		.align	2
 1336              	.L77:
 1337 0030 00000000 		.word	COM_USART
 1338              		.cfi_endproc
 1339              	.LFE249:
 1341              		.section	.text.BSP_COM_Init,"ax",%progbits
 1342              		.align	1
 1343              		.global	BSP_COM_Init
 1344              		.syntax unified
 1345              		.code	16
 1346              		.thumb_func
 1348              	BSP_COM_Init:
 1349              	.LVL103:
 1350              	.LFB247:
 519:Drivers/BSP/STM32C0xx_Nucleo/stm32c0xx_nucleo.c ****   int32_t ret = BSP_ERROR_NONE;
 1351              		.loc 1 519 1 is_stmt 1 view -0
 1352              		.cfi_startproc
 1353              		@ args = 0, pretend = 0, frame = 0
 1354              		@ frame_needed = 0, uses_anonymous_args = 0
 519:Drivers/BSP/STM32C0xx_Nucleo/stm32c0xx_nucleo.c ****   int32_t ret = BSP_ERROR_NONE;
 1355              		.loc 1 519 1 is_stmt 0 view .LVU323
 1356 0000 70B5     		push	{r4, r5, r6, lr}
 1357              	.LCFI21:
 1358              		.cfi_def_cfa_offset 16
 1359              		.cfi_offset 4, -16
 1360              		.cfi_offset 5, -12
 1361              		.cfi_offset 6, -8
 1362              		.cfi_offset 14, -4
 1363 0002 0D00     		movs	r5, r1
 520:Drivers/BSP/STM32C0xx_Nucleo/stm32c0xx_nucleo.c **** 
ARM GAS  C:\Users\simay\AppData\Local\Temp\ccshm0l4.s 			page 43


 1364              		.loc 1 520 3 is_stmt 1 view .LVU324
 1365              	.LVL104:
 522:Drivers/BSP/STM32C0xx_Nucleo/stm32c0xx_nucleo.c ****   {
 1366              		.loc 1 522 3 view .LVU325
 522:Drivers/BSP/STM32C0xx_Nucleo/stm32c0xx_nucleo.c ****   {
 1367              		.loc 1 522 6 is_stmt 0 view .LVU326
 1368 0004 0028     		cmp	r0, #0
 1369 0006 0DD1     		bne	.L81
 530:Drivers/BSP/STM32C0xx_Nucleo/stm32c0xx_nucleo.c **** #else
 1370              		.loc 1 530 5 is_stmt 1 view .LVU327
 1371 0008 9424     		movs	r4, #148
 1372 000a 4443     		muls	r4, r0
 1373 000c 084B     		ldr	r3, .L83
 1374 000e E418     		adds	r4, r4, r3
 1375 0010 2000     		movs	r0, r4
 1376              	.LVL105:
 530:Drivers/BSP/STM32C0xx_Nucleo/stm32c0xx_nucleo.c **** #else
 1377              		.loc 1 530 5 is_stmt 0 view .LVU328
 1378 0012 FFF7FEFF 		bl	COM1_MspInit
 1379              	.LVL106:
 541:Drivers/BSP/STM32C0xx_Nucleo/stm32c0xx_nucleo.c ****     {
 1380              		.loc 1 541 5 is_stmt 1 view .LVU329
 541:Drivers/BSP/STM32C0xx_Nucleo/stm32c0xx_nucleo.c ****     {
 1381              		.loc 1 541 9 is_stmt 0 view .LVU330
 1382 0016 2900     		movs	r1, r5
 1383 0018 2000     		movs	r0, r4
 1384 001a FFF7FEFF 		bl	MX_USART2_Init
 1385              	.LVL107:
 541:Drivers/BSP/STM32C0xx_Nucleo/stm32c0xx_nucleo.c ****     {
 1386              		.loc 1 541 8 discriminator 1 view .LVU331
 1387 001e 0028     		cmp	r0, #0
 1388 0020 03D1     		bne	.L82
 1389              	.LVL108:
 1390              	.L79:
 548:Drivers/BSP/STM32C0xx_Nucleo/stm32c0xx_nucleo.c **** 
 1391              		.loc 1 548 1 view .LVU332
 1392              		@ sp needed
 1393              	.LVL109:
 548:Drivers/BSP/STM32C0xx_Nucleo/stm32c0xx_nucleo.c **** 
 1394              		.loc 1 548 1 view .LVU333
 1395 0022 70BD     		pop	{r4, r5, r6, pc}
 1396              	.LVL110:
 1397              	.L81:
 524:Drivers/BSP/STM32C0xx_Nucleo/stm32c0xx_nucleo.c ****   }
 1398              		.loc 1 524 9 view .LVU334
 1399 0024 0220     		movs	r0, #2
 1400              	.LVL111:
 524:Drivers/BSP/STM32C0xx_Nucleo/stm32c0xx_nucleo.c ****   }
 1401              		.loc 1 524 9 view .LVU335
 1402 0026 4042     		rsbs	r0, r0, #0
 1403 0028 FBE7     		b	.L79
 1404              	.LVL112:
 1405              	.L82:
 543:Drivers/BSP/STM32C0xx_Nucleo/stm32c0xx_nucleo.c ****     }
 1406              		.loc 1 543 11 view .LVU336
 1407 002a 0420     		movs	r0, #4
 1408 002c 4042     		rsbs	r0, r0, #0
ARM GAS  C:\Users\simay\AppData\Local\Temp\ccshm0l4.s 			page 44


 1409              	.LVL113:
 547:Drivers/BSP/STM32C0xx_Nucleo/stm32c0xx_nucleo.c **** }
 1410              		.loc 1 547 3 is_stmt 1 view .LVU337
 547:Drivers/BSP/STM32C0xx_Nucleo/stm32c0xx_nucleo.c **** }
 1411              		.loc 1 547 10 is_stmt 0 view .LVU338
 1412 002e F8E7     		b	.L79
 1413              	.L84:
 1414              		.align	2
 1415              	.L83:
 1416 0030 00000000 		.word	hcom_uart
 1417              		.cfi_endproc
 1418              	.LFE247:
 1420              		.section	.text.BSP_COM_SelectLogPort,"ax",%progbits
 1421              		.align	1
 1422              		.global	BSP_COM_SelectLogPort
 1423              		.syntax unified
 1424              		.code	16
 1425              		.thumb_func
 1427              	BSP_COM_SelectLogPort:
 1428              	.LVL114:
 1429              	.LFB250:
 688:Drivers/BSP/STM32C0xx_Nucleo/stm32c0xx_nucleo.c ****   if (COM_ActiveLogPort != COM)
 1430              		.loc 1 688 1 is_stmt 1 view -0
 1431              		.cfi_startproc
 1432              		@ args = 0, pretend = 0, frame = 0
 1433              		@ frame_needed = 0, uses_anonymous_args = 0
 1434              		@ link register save eliminated.
 689:Drivers/BSP/STM32C0xx_Nucleo/stm32c0xx_nucleo.c ****   {
 1435              		.loc 1 689 3 view .LVU340
 689:Drivers/BSP/STM32C0xx_Nucleo/stm32c0xx_nucleo.c ****   {
 1436              		.loc 1 689 25 is_stmt 0 view .LVU341
 1437 0000 034B     		ldr	r3, .L87
 1438 0002 1B78     		ldrb	r3, [r3]
 689:Drivers/BSP/STM32C0xx_Nucleo/stm32c0xx_nucleo.c ****   {
 1439              		.loc 1 689 6 view .LVU342
 1440 0004 8342     		cmp	r3, r0
 1441 0006 01D0     		beq	.L86
 691:Drivers/BSP/STM32C0xx_Nucleo/stm32c0xx_nucleo.c ****   }
 1442              		.loc 1 691 5 is_stmt 1 view .LVU343
 691:Drivers/BSP/STM32C0xx_Nucleo/stm32c0xx_nucleo.c ****   }
 1443              		.loc 1 691 23 is_stmt 0 view .LVU344
 1444 0008 014B     		ldr	r3, .L87
 1445 000a 1870     		strb	r0, [r3]
 1446              	.L86:
 693:Drivers/BSP/STM32C0xx_Nucleo/stm32c0xx_nucleo.c **** }
 1447              		.loc 1 693 3 is_stmt 1 view .LVU345
 694:Drivers/BSP/STM32C0xx_Nucleo/stm32c0xx_nucleo.c **** 
 1448              		.loc 1 694 1 is_stmt 0 view .LVU346
 1449 000c 0020     		movs	r0, #0
 1450              	.LVL115:
 694:Drivers/BSP/STM32C0xx_Nucleo/stm32c0xx_nucleo.c **** 
 1451              		.loc 1 694 1 view .LVU347
 1452              		@ sp needed
 1453 000e 7047     		bx	lr
 1454              	.L88:
 1455              		.align	2
 1456              	.L87:
ARM GAS  C:\Users\simay\AppData\Local\Temp\ccshm0l4.s 			page 45


 1457 0010 00000000 		.word	COM_ActiveLogPort
 1458              		.cfi_endproc
 1459              	.LFE250:
 1461              		.section	.text.__io_putchar,"ax",%progbits
 1462              		.align	1
 1463              		.global	__io_putchar
 1464              		.syntax unified
 1465              		.code	16
 1466              		.thumb_func
 1468              	__io_putchar:
 1469              	.LVL116:
 1470              	.LFB251:
 716:Drivers/BSP/STM32C0xx_Nucleo/stm32c0xx_nucleo.c ****   HAL_UART_Transmit(&hcom_uart [COM_ActiveLogPort], (uint8_t *) &ch, 1, COM_POLL_TIMEOUT);
 1471              		.loc 1 716 1 is_stmt 1 view -0
 1472              		.cfi_startproc
 1473              		@ args = 0, pretend = 0, frame = 8
 1474              		@ frame_needed = 0, uses_anonymous_args = 0
 716:Drivers/BSP/STM32C0xx_Nucleo/stm32c0xx_nucleo.c ****   HAL_UART_Transmit(&hcom_uart [COM_ActiveLogPort], (uint8_t *) &ch, 1, COM_POLL_TIMEOUT);
 1475              		.loc 1 716 1 is_stmt 0 view .LVU349
 1476 0000 00B5     		push	{lr}
 1477              	.LCFI22:
 1478              		.cfi_def_cfa_offset 4
 1479              		.cfi_offset 14, -4
 1480 0002 83B0     		sub	sp, sp, #12
 1481              	.LCFI23:
 1482              		.cfi_def_cfa_offset 16
 1483 0004 0190     		str	r0, [sp, #4]
 717:Drivers/BSP/STM32C0xx_Nucleo/stm32c0xx_nucleo.c ****   return ch;
 1484              		.loc 1 717 3 is_stmt 1 view .LVU350
 717:Drivers/BSP/STM32C0xx_Nucleo/stm32c0xx_nucleo.c ****   return ch;
 1485              		.loc 1 717 32 is_stmt 0 view .LVU351
 1486 0006 074B     		ldr	r3, .L90
 1487 0008 1A78     		ldrb	r2, [r3]
 717:Drivers/BSP/STM32C0xx_Nucleo/stm32c0xx_nucleo.c ****   return ch;
 1488              		.loc 1 717 3 view .LVU352
 1489 000a FA23     		movs	r3, #250
 1490 000c 9420     		movs	r0, #148
 1491              	.LVL117:
 717:Drivers/BSP/STM32C0xx_Nucleo/stm32c0xx_nucleo.c ****   return ch;
 1492              		.loc 1 717 3 view .LVU353
 1493 000e 5043     		muls	r0, r2
 1494 0010 054A     		ldr	r2, .L90+4
 1495 0012 8018     		adds	r0, r0, r2
 1496 0014 9B00     		lsls	r3, r3, #2
 1497 0016 0122     		movs	r2, #1
 1498 0018 01A9     		add	r1, sp, #4
 1499              	.LVL118:
 717:Drivers/BSP/STM32C0xx_Nucleo/stm32c0xx_nucleo.c ****   return ch;
 1500              		.loc 1 717 3 view .LVU354
 1501 001a FFF7FEFF 		bl	HAL_UART_Transmit
 1502              	.LVL119:
 718:Drivers/BSP/STM32C0xx_Nucleo/stm32c0xx_nucleo.c **** }
 1503              		.loc 1 718 3 is_stmt 1 view .LVU355
 718:Drivers/BSP/STM32C0xx_Nucleo/stm32c0xx_nucleo.c **** }
 1504              		.loc 1 718 10 is_stmt 0 discriminator 1 view .LVU356
 1505 001e 0198     		ldr	r0, [sp, #4]
 719:Drivers/BSP/STM32C0xx_Nucleo/stm32c0xx_nucleo.c **** 
ARM GAS  C:\Users\simay\AppData\Local\Temp\ccshm0l4.s 			page 46


 1506              		.loc 1 719 1 view .LVU357
 1507 0020 03B0     		add	sp, sp, #12
 1508              		@ sp needed
 1509 0022 00BD     		pop	{pc}
 1510              	.L91:
 1511              		.align	2
 1512              	.L90:
 1513 0024 00000000 		.word	COM_ActiveLogPort
 1514 0028 00000000 		.word	hcom_uart
 1515              		.cfi_endproc
 1516              	.LFE251:
 1518              		.section	.bss.COM_ActiveLogPort,"aw",%nobits
 1521              	COM_ActiveLogPort:
 1522 0000 00       		.space	1
 1523              		.section	.rodata.LED_PIN,"a"
 1524              		.align	2
 1527              	LED_PIN:
 1528 0000 2000     		.short	32
 1529 0002 0002     		.short	512
 1530              		.section	.rodata.LED_PORT,"a"
 1531              		.align	2
 1534              	LED_PORT:
 1535 0000 00000050 		.word	1342177280
 1536 0004 00080050 		.word	1342179328
 1537              		.global	COM_USART
 1538              		.section	.data.COM_USART,"aw"
 1539              		.align	2
 1542              	COM_USART:
 1543 0000 00440040 		.word	1073759232
 1544              		.global	hcom_uart
 1545              		.section	.bss.hcom_uart,"aw",%nobits
 1546              		.align	2
 1549              	hcom_uart:
 1550 0000 00000000 		.space	148
 1550      00000000 
 1550      00000000 
 1550      00000000 
 1550      00000000 
 1551              		.global	hpb_exti
 1552              		.section	.bss.hpb_exti,"aw",%nobits
 1553              		.align	2
 1556              	hpb_exti:
 1557 0000 00000000 		.space	12
 1557      00000000 
 1557      00000000 
 1558              		.text
 1559              	.Letext0:
 1560              		.file 2 "Drivers/CMSIS/Device/ST/STM32C0xx/Include/stm32c092xx.h"
 1561              		.file 3 "C:/Users/simay/CTOOLS-ARM/arm-none-eabi/include/machine/_default_types.h"
 1562              		.file 4 "C:/Users/simay/CTOOLS-ARM/arm-none-eabi/include/sys/_stdint.h"
 1563              		.file 5 "Drivers/STM32C0xx_HAL_Driver/Inc/stm32c0xx_hal_def.h"
 1564              		.file 6 "Drivers/STM32C0xx_HAL_Driver/Inc/stm32c0xx_hal_gpio.h"
 1565              		.file 7 "Drivers/STM32C0xx_HAL_Driver/Inc/stm32c0xx_hal_dma.h"
 1566              		.file 8 "Drivers/STM32C0xx_HAL_Driver/Inc/stm32c0xx_hal_exti.h"
 1567              		.file 9 "Drivers/STM32C0xx_HAL_Driver/Inc/stm32c0xx_hal_uart.h"
 1568              		.file 10 "Drivers/BSP/STM32C0xx_Nucleo/stm32c0xx_nucleo.h"
 1569              		.file 11 "Drivers/STM32C0xx_HAL_Driver/Inc/stm32c0xx_hal_cortex.h"
ARM GAS  C:\Users\simay\AppData\Local\Temp\ccshm0l4.s 			page 47


ARM GAS  C:\Users\simay\AppData\Local\Temp\ccshm0l4.s 			page 48

