ARM GAS  C:\Users\simay\AppData\Local\Temp\cc43TqXJ.s 			page 1


   1              		.cpu cortex-m0plus
   2              		.arch armv6s-m
   3              		.fpu softvfp
   4              		.eabi_attribute 20, 1
   5              		.eabi_attribute 21, 1
   6              		.eabi_attribute 23, 3
   7              		.eabi_attribute 24, 1
   8              		.eabi_attribute 25, 1
   9              		.eabi_attribute 26, 1
  10              		.eabi_attribute 30, 1
  11              		.eabi_attribute 34, 0
  12              		.eabi_attribute 18, 4
  13              		.file	"stm32c0xx_hal_dma.c"
  14              		.text
  15              	.Ltext0:
  16              		.cfi_sections	.debug_frame
  17              		.file 1 "Drivers/STM32C0xx_HAL_Driver/Src/stm32c0xx_hal_dma.c"
  18              		.section	.text.DMA_SetConfig,"ax",%progbits
  19              		.align	1
  20              		.syntax unified
  21              		.code	16
  22              		.thumb_func
  24              	DMA_SetConfig:
  25              	.LVL0:
  26              	.LFB242:
   1:Drivers/STM32C0xx_HAL_Driver/Src/stm32c0xx_hal_dma.c **** /**
   2:Drivers/STM32C0xx_HAL_Driver/Src/stm32c0xx_hal_dma.c ****   ******************************************************************************
   3:Drivers/STM32C0xx_HAL_Driver/Src/stm32c0xx_hal_dma.c ****   * @file    stm32c0xx_hal_dma.c
   4:Drivers/STM32C0xx_HAL_Driver/Src/stm32c0xx_hal_dma.c ****   * @author  MCD Application Team
   5:Drivers/STM32C0xx_HAL_Driver/Src/stm32c0xx_hal_dma.c ****   * @brief   DMA HAL module driver.
   6:Drivers/STM32C0xx_HAL_Driver/Src/stm32c0xx_hal_dma.c ****   *         This file provides firmware functions to manage the following
   7:Drivers/STM32C0xx_HAL_Driver/Src/stm32c0xx_hal_dma.c ****   *         functionalities of the Direct Memory Access (DMA) peripheral:
   8:Drivers/STM32C0xx_HAL_Driver/Src/stm32c0xx_hal_dma.c ****   *           + Initialization and de-initialization functions
   9:Drivers/STM32C0xx_HAL_Driver/Src/stm32c0xx_hal_dma.c ****   *           + IO operation functions
  10:Drivers/STM32C0xx_HAL_Driver/Src/stm32c0xx_hal_dma.c ****   *           + Peripheral State and errors functions
  11:Drivers/STM32C0xx_HAL_Driver/Src/stm32c0xx_hal_dma.c ****   ******************************************************************************
  12:Drivers/STM32C0xx_HAL_Driver/Src/stm32c0xx_hal_dma.c ****   * @attention
  13:Drivers/STM32C0xx_HAL_Driver/Src/stm32c0xx_hal_dma.c ****   *
  14:Drivers/STM32C0xx_HAL_Driver/Src/stm32c0xx_hal_dma.c ****   * Copyright (c) 2022 STMicroelectronics.
  15:Drivers/STM32C0xx_HAL_Driver/Src/stm32c0xx_hal_dma.c ****   * All rights reserved.
  16:Drivers/STM32C0xx_HAL_Driver/Src/stm32c0xx_hal_dma.c ****   *
  17:Drivers/STM32C0xx_HAL_Driver/Src/stm32c0xx_hal_dma.c ****   * This software is licensed under terms that can be found in the LICENSE file
  18:Drivers/STM32C0xx_HAL_Driver/Src/stm32c0xx_hal_dma.c ****   * in the root directory of this software component.
  19:Drivers/STM32C0xx_HAL_Driver/Src/stm32c0xx_hal_dma.c ****   * If no LICENSE file comes with this software, it is provided AS-IS.
  20:Drivers/STM32C0xx_HAL_Driver/Src/stm32c0xx_hal_dma.c ****   *
  21:Drivers/STM32C0xx_HAL_Driver/Src/stm32c0xx_hal_dma.c ****   ******************************************************************************
  22:Drivers/STM32C0xx_HAL_Driver/Src/stm32c0xx_hal_dma.c ****   @verbatim
  23:Drivers/STM32C0xx_HAL_Driver/Src/stm32c0xx_hal_dma.c ****   ==============================================================================
  24:Drivers/STM32C0xx_HAL_Driver/Src/stm32c0xx_hal_dma.c ****                         ##### How to use this driver #####
  25:Drivers/STM32C0xx_HAL_Driver/Src/stm32c0xx_hal_dma.c ****   ==============================================================================
  26:Drivers/STM32C0xx_HAL_Driver/Src/stm32c0xx_hal_dma.c ****   [..]
  27:Drivers/STM32C0xx_HAL_Driver/Src/stm32c0xx_hal_dma.c ****    (#) Enable and configure the peripheral to be connected to the DMA Channel
  28:Drivers/STM32C0xx_HAL_Driver/Src/stm32c0xx_hal_dma.c ****        (except for internal SRAM / FLASH memories: no initialization is
  29:Drivers/STM32C0xx_HAL_Driver/Src/stm32c0xx_hal_dma.c ****        necessary). Please refer to the Reference manual for connection between peripherals
  30:Drivers/STM32C0xx_HAL_Driver/Src/stm32c0xx_hal_dma.c ****        and DMA requests.
  31:Drivers/STM32C0xx_HAL_Driver/Src/stm32c0xx_hal_dma.c **** 
  32:Drivers/STM32C0xx_HAL_Driver/Src/stm32c0xx_hal_dma.c ****    (#) For a given Channel, program the required configuration through the following parameters:
ARM GAS  C:\Users\simay\AppData\Local\Temp\cc43TqXJ.s 			page 2


  33:Drivers/STM32C0xx_HAL_Driver/Src/stm32c0xx_hal_dma.c ****        Channel request, Transfer Direction, Source and Destination data formats,
  34:Drivers/STM32C0xx_HAL_Driver/Src/stm32c0xx_hal_dma.c ****        Circular or Normal mode, Channel Priority level, Source and Destination Increment mode
  35:Drivers/STM32C0xx_HAL_Driver/Src/stm32c0xx_hal_dma.c ****        using HAL_DMA_Init() function.
  36:Drivers/STM32C0xx_HAL_Driver/Src/stm32c0xx_hal_dma.c **** 
  37:Drivers/STM32C0xx_HAL_Driver/Src/stm32c0xx_hal_dma.c ****        Prior to HAL_DMA_Init the CLK shall be enabled for both DMA & DMAMUX
  38:Drivers/STM32C0xx_HAL_Driver/Src/stm32c0xx_hal_dma.c ****        thanks to:
  39:Drivers/STM32C0xx_HAL_Driver/Src/stm32c0xx_hal_dma.c ****        DMA1   :       __HAL_RCC_DMA1_CLK_ENABLE();
  40:Drivers/STM32C0xx_HAL_Driver/Src/stm32c0xx_hal_dma.c **** 
  41:Drivers/STM32C0xx_HAL_Driver/Src/stm32c0xx_hal_dma.c ****    (#) Use HAL_DMA_GetState() function to return the DMA state and HAL_DMA_GetError() in case of er
  42:Drivers/STM32C0xx_HAL_Driver/Src/stm32c0xx_hal_dma.c ****        detection.
  43:Drivers/STM32C0xx_HAL_Driver/Src/stm32c0xx_hal_dma.c **** 
  44:Drivers/STM32C0xx_HAL_Driver/Src/stm32c0xx_hal_dma.c ****    (#) Use HAL_DMA_Abort() function to abort the current transfer
  45:Drivers/STM32C0xx_HAL_Driver/Src/stm32c0xx_hal_dma.c **** 
  46:Drivers/STM32C0xx_HAL_Driver/Src/stm32c0xx_hal_dma.c ****      -@-   In Memory-to-Memory transfer mode, Circular mode is not allowed.
  47:Drivers/STM32C0xx_HAL_Driver/Src/stm32c0xx_hal_dma.c ****      *** Polling mode IO operation ***
  48:Drivers/STM32C0xx_HAL_Driver/Src/stm32c0xx_hal_dma.c ****      =================================
  49:Drivers/STM32C0xx_HAL_Driver/Src/stm32c0xx_hal_dma.c ****     [..]
  50:Drivers/STM32C0xx_HAL_Driver/Src/stm32c0xx_hal_dma.c ****           (+) Use HAL_DMA_Start() to start DMA transfer after the configuration of Source
  51:Drivers/STM32C0xx_HAL_Driver/Src/stm32c0xx_hal_dma.c ****               address and destination address and the Length of data to be transferred
  52:Drivers/STM32C0xx_HAL_Driver/Src/stm32c0xx_hal_dma.c ****           (+) Use HAL_DMA_PollForTransfer() to poll for the end of current transfer, in this
  53:Drivers/STM32C0xx_HAL_Driver/Src/stm32c0xx_hal_dma.c ****               case a fixed Timeout can be configured by User depending from his application.
  54:Drivers/STM32C0xx_HAL_Driver/Src/stm32c0xx_hal_dma.c **** 
  55:Drivers/STM32C0xx_HAL_Driver/Src/stm32c0xx_hal_dma.c ****      *** Interrupt mode IO operation ***
  56:Drivers/STM32C0xx_HAL_Driver/Src/stm32c0xx_hal_dma.c ****      ===================================
  57:Drivers/STM32C0xx_HAL_Driver/Src/stm32c0xx_hal_dma.c ****     [..]
  58:Drivers/STM32C0xx_HAL_Driver/Src/stm32c0xx_hal_dma.c ****           (+) Configure the DMA interrupt priority using HAL_NVIC_SetPriority()
  59:Drivers/STM32C0xx_HAL_Driver/Src/stm32c0xx_hal_dma.c ****           (+) Enable the DMA IRQ handler using HAL_NVIC_EnableIRQ()
  60:Drivers/STM32C0xx_HAL_Driver/Src/stm32c0xx_hal_dma.c ****           (+) Use HAL_DMA_Start_IT() to start DMA transfer after the configuration of
  61:Drivers/STM32C0xx_HAL_Driver/Src/stm32c0xx_hal_dma.c ****               Source address and destination address and the Length of data to be transferred.
  62:Drivers/STM32C0xx_HAL_Driver/Src/stm32c0xx_hal_dma.c ****               In this case the DMA interrupt is configured
  63:Drivers/STM32C0xx_HAL_Driver/Src/stm32c0xx_hal_dma.c ****           (+) Use HAL_DMA_IRQHandler() called under DMA_IRQHandler() Interrupt subroutine
  64:Drivers/STM32C0xx_HAL_Driver/Src/stm32c0xx_hal_dma.c ****           (+) At the end of data transfer HAL_DMA_IRQHandler() function is executed and user can
  65:Drivers/STM32C0xx_HAL_Driver/Src/stm32c0xx_hal_dma.c ****               add his own function by customization of function pointer XferCpltCallback and
  66:Drivers/STM32C0xx_HAL_Driver/Src/stm32c0xx_hal_dma.c ****               XferErrorCallback (i.e. a member of DMA handle structure).
  67:Drivers/STM32C0xx_HAL_Driver/Src/stm32c0xx_hal_dma.c **** 
  68:Drivers/STM32C0xx_HAL_Driver/Src/stm32c0xx_hal_dma.c ****      *** DMA HAL driver macros list ***
  69:Drivers/STM32C0xx_HAL_Driver/Src/stm32c0xx_hal_dma.c ****      =============================================
  70:Drivers/STM32C0xx_HAL_Driver/Src/stm32c0xx_hal_dma.c ****       [..]
  71:Drivers/STM32C0xx_HAL_Driver/Src/stm32c0xx_hal_dma.c ****        Below the list of most used macros in DMA HAL driver.
  72:Drivers/STM32C0xx_HAL_Driver/Src/stm32c0xx_hal_dma.c **** 
  73:Drivers/STM32C0xx_HAL_Driver/Src/stm32c0xx_hal_dma.c ****        (+) __HAL_DMA_ENABLE: Enable the specified DMA Channel.
  74:Drivers/STM32C0xx_HAL_Driver/Src/stm32c0xx_hal_dma.c ****        (+) __HAL_DMA_DISABLE: Disable the specified DMA Channel.
  75:Drivers/STM32C0xx_HAL_Driver/Src/stm32c0xx_hal_dma.c ****        (+) __HAL_DMA_GET_FLAG: Get the DMA Channel pending flags.
  76:Drivers/STM32C0xx_HAL_Driver/Src/stm32c0xx_hal_dma.c ****        (+) __HAL_DMA_CLEAR_FLAG: Clear the DMA Channel pending flags.
  77:Drivers/STM32C0xx_HAL_Driver/Src/stm32c0xx_hal_dma.c ****        (+) __HAL_DMA_ENABLE_IT: Enable the specified DMA Channel interrupts.
  78:Drivers/STM32C0xx_HAL_Driver/Src/stm32c0xx_hal_dma.c ****        (+) __HAL_DMA_DISABLE_IT: Disable the specified DMA Channel interrupts.
  79:Drivers/STM32C0xx_HAL_Driver/Src/stm32c0xx_hal_dma.c ****        (+) __HAL_DMA_GET_IT_SOURCE: Check whether the specified DMA Channel interrupt has occurred 
  80:Drivers/STM32C0xx_HAL_Driver/Src/stm32c0xx_hal_dma.c **** 
  81:Drivers/STM32C0xx_HAL_Driver/Src/stm32c0xx_hal_dma.c ****      [..]
  82:Drivers/STM32C0xx_HAL_Driver/Src/stm32c0xx_hal_dma.c ****       (@) You can refer to the DMA HAL driver header file for more useful macros
  83:Drivers/STM32C0xx_HAL_Driver/Src/stm32c0xx_hal_dma.c **** 
  84:Drivers/STM32C0xx_HAL_Driver/Src/stm32c0xx_hal_dma.c ****   @endverbatim
  85:Drivers/STM32C0xx_HAL_Driver/Src/stm32c0xx_hal_dma.c ****   ******************************************************************************
  86:Drivers/STM32C0xx_HAL_Driver/Src/stm32c0xx_hal_dma.c ****   */
  87:Drivers/STM32C0xx_HAL_Driver/Src/stm32c0xx_hal_dma.c **** 
  88:Drivers/STM32C0xx_HAL_Driver/Src/stm32c0xx_hal_dma.c **** /* Includes ------------------------------------------------------------------*/
  89:Drivers/STM32C0xx_HAL_Driver/Src/stm32c0xx_hal_dma.c **** #include "stm32c0xx_hal.h"
ARM GAS  C:\Users\simay\AppData\Local\Temp\cc43TqXJ.s 			page 3


  90:Drivers/STM32C0xx_HAL_Driver/Src/stm32c0xx_hal_dma.c **** 
  91:Drivers/STM32C0xx_HAL_Driver/Src/stm32c0xx_hal_dma.c **** /** @addtogroup STM32C0xx_HAL_Driver
  92:Drivers/STM32C0xx_HAL_Driver/Src/stm32c0xx_hal_dma.c ****   * @{
  93:Drivers/STM32C0xx_HAL_Driver/Src/stm32c0xx_hal_dma.c ****   */
  94:Drivers/STM32C0xx_HAL_Driver/Src/stm32c0xx_hal_dma.c **** 
  95:Drivers/STM32C0xx_HAL_Driver/Src/stm32c0xx_hal_dma.c **** /** @defgroup DMA DMA
  96:Drivers/STM32C0xx_HAL_Driver/Src/stm32c0xx_hal_dma.c ****   * @brief DMA HAL module driver
  97:Drivers/STM32C0xx_HAL_Driver/Src/stm32c0xx_hal_dma.c ****   * @{
  98:Drivers/STM32C0xx_HAL_Driver/Src/stm32c0xx_hal_dma.c ****   */
  99:Drivers/STM32C0xx_HAL_Driver/Src/stm32c0xx_hal_dma.c **** 
 100:Drivers/STM32C0xx_HAL_Driver/Src/stm32c0xx_hal_dma.c **** #ifdef HAL_DMA_MODULE_ENABLED
 101:Drivers/STM32C0xx_HAL_Driver/Src/stm32c0xx_hal_dma.c **** 
 102:Drivers/STM32C0xx_HAL_Driver/Src/stm32c0xx_hal_dma.c **** /* Private typedef -----------------------------------------------------------*/
 103:Drivers/STM32C0xx_HAL_Driver/Src/stm32c0xx_hal_dma.c **** /* Private define ------------------------------------------------------------*/
 104:Drivers/STM32C0xx_HAL_Driver/Src/stm32c0xx_hal_dma.c **** /* Private macro -------------------------------------------------------------*/
 105:Drivers/STM32C0xx_HAL_Driver/Src/stm32c0xx_hal_dma.c **** /* Private variables ---------------------------------------------------------*/
 106:Drivers/STM32C0xx_HAL_Driver/Src/stm32c0xx_hal_dma.c **** /* Private function prototypes -----------------------------------------------*/
 107:Drivers/STM32C0xx_HAL_Driver/Src/stm32c0xx_hal_dma.c **** 
 108:Drivers/STM32C0xx_HAL_Driver/Src/stm32c0xx_hal_dma.c **** /** @defgroup DMA_Private_Functions DMA Private Functions
 109:Drivers/STM32C0xx_HAL_Driver/Src/stm32c0xx_hal_dma.c ****   * @{
 110:Drivers/STM32C0xx_HAL_Driver/Src/stm32c0xx_hal_dma.c ****   */
 111:Drivers/STM32C0xx_HAL_Driver/Src/stm32c0xx_hal_dma.c **** static void DMA_SetConfig(DMA_HandleTypeDef *hdma, uint32_t SrcAddress, uint32_t DstAddress, uint32
 112:Drivers/STM32C0xx_HAL_Driver/Src/stm32c0xx_hal_dma.c **** static void DMA_CalcDMAMUXChannelBaseAndMask(DMA_HandleTypeDef *hdma);
 113:Drivers/STM32C0xx_HAL_Driver/Src/stm32c0xx_hal_dma.c **** static void DMA_CalcDMAMUXRequestGenBaseAndMask(DMA_HandleTypeDef *hdma);
 114:Drivers/STM32C0xx_HAL_Driver/Src/stm32c0xx_hal_dma.c **** 
 115:Drivers/STM32C0xx_HAL_Driver/Src/stm32c0xx_hal_dma.c **** /**
 116:Drivers/STM32C0xx_HAL_Driver/Src/stm32c0xx_hal_dma.c ****   * @}
 117:Drivers/STM32C0xx_HAL_Driver/Src/stm32c0xx_hal_dma.c ****   */
 118:Drivers/STM32C0xx_HAL_Driver/Src/stm32c0xx_hal_dma.c **** 
 119:Drivers/STM32C0xx_HAL_Driver/Src/stm32c0xx_hal_dma.c **** /* Exported functions ---------------------------------------------------------*/
 120:Drivers/STM32C0xx_HAL_Driver/Src/stm32c0xx_hal_dma.c **** 
 121:Drivers/STM32C0xx_HAL_Driver/Src/stm32c0xx_hal_dma.c **** /** @defgroup DMA_Exported_Functions DMA Exported Functions
 122:Drivers/STM32C0xx_HAL_Driver/Src/stm32c0xx_hal_dma.c ****   * @{
 123:Drivers/STM32C0xx_HAL_Driver/Src/stm32c0xx_hal_dma.c ****   */
 124:Drivers/STM32C0xx_HAL_Driver/Src/stm32c0xx_hal_dma.c **** 
 125:Drivers/STM32C0xx_HAL_Driver/Src/stm32c0xx_hal_dma.c **** /** @defgroup DMA_Exported_Functions_Group1 Initialization and de-initialization functions
 126:Drivers/STM32C0xx_HAL_Driver/Src/stm32c0xx_hal_dma.c ****   *  @brief   Initialization and de-initialization functions
 127:Drivers/STM32C0xx_HAL_Driver/Src/stm32c0xx_hal_dma.c ****   *
 128:Drivers/STM32C0xx_HAL_Driver/Src/stm32c0xx_hal_dma.c **** @verbatim
 129:Drivers/STM32C0xx_HAL_Driver/Src/stm32c0xx_hal_dma.c ****  ===============================================================================
 130:Drivers/STM32C0xx_HAL_Driver/Src/stm32c0xx_hal_dma.c ****              ##### Initialization and de-initialization functions  #####
 131:Drivers/STM32C0xx_HAL_Driver/Src/stm32c0xx_hal_dma.c ****  ===============================================================================
 132:Drivers/STM32C0xx_HAL_Driver/Src/stm32c0xx_hal_dma.c ****     [..]
 133:Drivers/STM32C0xx_HAL_Driver/Src/stm32c0xx_hal_dma.c ****     This section provides functions allowing to initialize the DMA Channel source
 134:Drivers/STM32C0xx_HAL_Driver/Src/stm32c0xx_hal_dma.c ****     and destination addresses, incrementation and data sizes, transfer direction,
 135:Drivers/STM32C0xx_HAL_Driver/Src/stm32c0xx_hal_dma.c ****     circular/normal mode selection, memory-to-memory mode selection and Channel priority value.
 136:Drivers/STM32C0xx_HAL_Driver/Src/stm32c0xx_hal_dma.c ****     [..]
 137:Drivers/STM32C0xx_HAL_Driver/Src/stm32c0xx_hal_dma.c ****     The HAL_DMA_Init() function follows the DMA configuration procedures as described in
 138:Drivers/STM32C0xx_HAL_Driver/Src/stm32c0xx_hal_dma.c ****     reference manual.
 139:Drivers/STM32C0xx_HAL_Driver/Src/stm32c0xx_hal_dma.c **** 
 140:Drivers/STM32C0xx_HAL_Driver/Src/stm32c0xx_hal_dma.c **** @endverbatim
 141:Drivers/STM32C0xx_HAL_Driver/Src/stm32c0xx_hal_dma.c ****   * @{
 142:Drivers/STM32C0xx_HAL_Driver/Src/stm32c0xx_hal_dma.c ****   */
 143:Drivers/STM32C0xx_HAL_Driver/Src/stm32c0xx_hal_dma.c **** 
 144:Drivers/STM32C0xx_HAL_Driver/Src/stm32c0xx_hal_dma.c **** /**
 145:Drivers/STM32C0xx_HAL_Driver/Src/stm32c0xx_hal_dma.c ****   * @brief  Initialize the DMA according to the specified
 146:Drivers/STM32C0xx_HAL_Driver/Src/stm32c0xx_hal_dma.c ****   *         parameters in the DMA_InitTypeDef and initialize the associated handle.
ARM GAS  C:\Users\simay\AppData\Local\Temp\cc43TqXJ.s 			page 4


 147:Drivers/STM32C0xx_HAL_Driver/Src/stm32c0xx_hal_dma.c ****   * @param  hdma  Pointer to a DMA_HandleTypeDef structure that contains
 148:Drivers/STM32C0xx_HAL_Driver/Src/stm32c0xx_hal_dma.c ****   *               the configuration information for the specified DMA Channel.
 149:Drivers/STM32C0xx_HAL_Driver/Src/stm32c0xx_hal_dma.c ****   * @retval HAL status
 150:Drivers/STM32C0xx_HAL_Driver/Src/stm32c0xx_hal_dma.c ****   */
 151:Drivers/STM32C0xx_HAL_Driver/Src/stm32c0xx_hal_dma.c **** HAL_StatusTypeDef HAL_DMA_Init(DMA_HandleTypeDef *hdma)
 152:Drivers/STM32C0xx_HAL_Driver/Src/stm32c0xx_hal_dma.c **** {
 153:Drivers/STM32C0xx_HAL_Driver/Src/stm32c0xx_hal_dma.c ****   /* Check the DMA handle allocation */
 154:Drivers/STM32C0xx_HAL_Driver/Src/stm32c0xx_hal_dma.c ****   if (hdma == NULL)
 155:Drivers/STM32C0xx_HAL_Driver/Src/stm32c0xx_hal_dma.c ****   {
 156:Drivers/STM32C0xx_HAL_Driver/Src/stm32c0xx_hal_dma.c ****     return HAL_ERROR;
 157:Drivers/STM32C0xx_HAL_Driver/Src/stm32c0xx_hal_dma.c ****   }
 158:Drivers/STM32C0xx_HAL_Driver/Src/stm32c0xx_hal_dma.c **** 
 159:Drivers/STM32C0xx_HAL_Driver/Src/stm32c0xx_hal_dma.c ****   /* Check the parameters */
 160:Drivers/STM32C0xx_HAL_Driver/Src/stm32c0xx_hal_dma.c ****   assert_param(IS_DMA_ALL_INSTANCE(hdma->Instance));
 161:Drivers/STM32C0xx_HAL_Driver/Src/stm32c0xx_hal_dma.c ****   assert_param(IS_DMA_DIRECTION(hdma->Init.Direction));
 162:Drivers/STM32C0xx_HAL_Driver/Src/stm32c0xx_hal_dma.c ****   assert_param(IS_DMA_PERIPHERAL_INC_STATE(hdma->Init.PeriphInc));
 163:Drivers/STM32C0xx_HAL_Driver/Src/stm32c0xx_hal_dma.c ****   assert_param(IS_DMA_MEMORY_INC_STATE(hdma->Init.MemInc));
 164:Drivers/STM32C0xx_HAL_Driver/Src/stm32c0xx_hal_dma.c ****   assert_param(IS_DMA_PERIPHERAL_DATA_SIZE(hdma->Init.PeriphDataAlignment));
 165:Drivers/STM32C0xx_HAL_Driver/Src/stm32c0xx_hal_dma.c ****   assert_param(IS_DMA_MEMORY_DATA_SIZE(hdma->Init.MemDataAlignment));
 166:Drivers/STM32C0xx_HAL_Driver/Src/stm32c0xx_hal_dma.c ****   assert_param(IS_DMA_MODE(hdma->Init.Mode));
 167:Drivers/STM32C0xx_HAL_Driver/Src/stm32c0xx_hal_dma.c ****   assert_param(IS_DMA_PRIORITY(hdma->Init.Priority));
 168:Drivers/STM32C0xx_HAL_Driver/Src/stm32c0xx_hal_dma.c **** 
 169:Drivers/STM32C0xx_HAL_Driver/Src/stm32c0xx_hal_dma.c ****   /* calculation of the channel index */
 170:Drivers/STM32C0xx_HAL_Driver/Src/stm32c0xx_hal_dma.c ****   hdma->ChannelIndex = (((uint32_t)hdma->Instance - (uint32_t)DMA1_Channel1) / ((uint32_t)DMA1_Chan
 171:Drivers/STM32C0xx_HAL_Driver/Src/stm32c0xx_hal_dma.c ****                                                                                 (uint32_t)DMA1_Chan
 172:Drivers/STM32C0xx_HAL_Driver/Src/stm32c0xx_hal_dma.c ****   /* Change DMA peripheral state */
 173:Drivers/STM32C0xx_HAL_Driver/Src/stm32c0xx_hal_dma.c ****   hdma->State = HAL_DMA_STATE_BUSY;
 174:Drivers/STM32C0xx_HAL_Driver/Src/stm32c0xx_hal_dma.c **** 
 175:Drivers/STM32C0xx_HAL_Driver/Src/stm32c0xx_hal_dma.c ****   /* Clear PL, MSIZE, PSIZE, MINC, PINC, CIRC, DIR and MEM2MEM bits */
 176:Drivers/STM32C0xx_HAL_Driver/Src/stm32c0xx_hal_dma.c ****   CLEAR_BIT(hdma->Instance->CCR, (DMA_CCR_PL    | DMA_CCR_MSIZE  | DMA_CCR_PSIZE  | \
 177:Drivers/STM32C0xx_HAL_Driver/Src/stm32c0xx_hal_dma.c ****                                   DMA_CCR_MINC  | DMA_CCR_PINC   | DMA_CCR_CIRC   | \
 178:Drivers/STM32C0xx_HAL_Driver/Src/stm32c0xx_hal_dma.c ****                                   DMA_CCR_DIR   | DMA_CCR_MEM2MEM));
 179:Drivers/STM32C0xx_HAL_Driver/Src/stm32c0xx_hal_dma.c **** 
 180:Drivers/STM32C0xx_HAL_Driver/Src/stm32c0xx_hal_dma.c ****   /* Set the DMA Channel configuration */
 181:Drivers/STM32C0xx_HAL_Driver/Src/stm32c0xx_hal_dma.c ****   SET_BIT(hdma->Instance->CCR, (hdma->Init.Direction           |                               \
 182:Drivers/STM32C0xx_HAL_Driver/Src/stm32c0xx_hal_dma.c ****                                 hdma->Init.PeriphInc           | hdma->Init.MemInc           | \
 183:Drivers/STM32C0xx_HAL_Driver/Src/stm32c0xx_hal_dma.c ****                                 hdma->Init.PeriphDataAlignment | hdma->Init.MemDataAlignment | \
 184:Drivers/STM32C0xx_HAL_Driver/Src/stm32c0xx_hal_dma.c ****                                 hdma->Init.Mode                | hdma->Init.Priority));
 185:Drivers/STM32C0xx_HAL_Driver/Src/stm32c0xx_hal_dma.c **** 
 186:Drivers/STM32C0xx_HAL_Driver/Src/stm32c0xx_hal_dma.c ****   /* Initialize parameters for DMAMUX channel :
 187:Drivers/STM32C0xx_HAL_Driver/Src/stm32c0xx_hal_dma.c ****      DMAmuxChannel, DMAmuxChannelStatus and DMAmuxChannelStatusMask
 188:Drivers/STM32C0xx_HAL_Driver/Src/stm32c0xx_hal_dma.c ****   */
 189:Drivers/STM32C0xx_HAL_Driver/Src/stm32c0xx_hal_dma.c ****   DMA_CalcDMAMUXChannelBaseAndMask(hdma);
 190:Drivers/STM32C0xx_HAL_Driver/Src/stm32c0xx_hal_dma.c **** 
 191:Drivers/STM32C0xx_HAL_Driver/Src/stm32c0xx_hal_dma.c ****   if (hdma->Init.Direction == DMA_MEMORY_TO_MEMORY)
 192:Drivers/STM32C0xx_HAL_Driver/Src/stm32c0xx_hal_dma.c ****   {
 193:Drivers/STM32C0xx_HAL_Driver/Src/stm32c0xx_hal_dma.c ****     /* if memory to memory force the request to 0*/
 194:Drivers/STM32C0xx_HAL_Driver/Src/stm32c0xx_hal_dma.c ****     hdma->Init.Request = DMA_REQUEST_MEM2MEM;
 195:Drivers/STM32C0xx_HAL_Driver/Src/stm32c0xx_hal_dma.c ****   }
 196:Drivers/STM32C0xx_HAL_Driver/Src/stm32c0xx_hal_dma.c **** 
 197:Drivers/STM32C0xx_HAL_Driver/Src/stm32c0xx_hal_dma.c ****   /* Set peripheral request  to DMAMUX channel */
 198:Drivers/STM32C0xx_HAL_Driver/Src/stm32c0xx_hal_dma.c ****   hdma->DMAmuxChannel->CCR = (hdma->Init.Request & DMAMUX_CxCR_DMAREQ_ID);
 199:Drivers/STM32C0xx_HAL_Driver/Src/stm32c0xx_hal_dma.c **** 
 200:Drivers/STM32C0xx_HAL_Driver/Src/stm32c0xx_hal_dma.c ****   /* Clear the DMAMUX synchro overrun flag */
 201:Drivers/STM32C0xx_HAL_Driver/Src/stm32c0xx_hal_dma.c ****   hdma->DMAmuxChannelStatus->CFR = hdma->DMAmuxChannelStatusMask;
 202:Drivers/STM32C0xx_HAL_Driver/Src/stm32c0xx_hal_dma.c **** 
 203:Drivers/STM32C0xx_HAL_Driver/Src/stm32c0xx_hal_dma.c ****   if (((hdma->Init.Request > 0UL) && (hdma->Init.Request <= DMA_REQUEST_GENERATOR3)))
ARM GAS  C:\Users\simay\AppData\Local\Temp\cc43TqXJ.s 			page 5


 204:Drivers/STM32C0xx_HAL_Driver/Src/stm32c0xx_hal_dma.c ****   {
 205:Drivers/STM32C0xx_HAL_Driver/Src/stm32c0xx_hal_dma.c ****     /* Initialize parameters for DMAMUX request generator :
 206:Drivers/STM32C0xx_HAL_Driver/Src/stm32c0xx_hal_dma.c ****        DMAmuxRequestGen, DMAmuxRequestGenStatus and DMAmuxRequestGenStatusMask
 207:Drivers/STM32C0xx_HAL_Driver/Src/stm32c0xx_hal_dma.c ****     */
 208:Drivers/STM32C0xx_HAL_Driver/Src/stm32c0xx_hal_dma.c ****     DMA_CalcDMAMUXRequestGenBaseAndMask(hdma);
 209:Drivers/STM32C0xx_HAL_Driver/Src/stm32c0xx_hal_dma.c **** 
 210:Drivers/STM32C0xx_HAL_Driver/Src/stm32c0xx_hal_dma.c ****     /* Reset the DMAMUX request generator register*/
 211:Drivers/STM32C0xx_HAL_Driver/Src/stm32c0xx_hal_dma.c ****     hdma->DMAmuxRequestGen->RGCR = 0U;
 212:Drivers/STM32C0xx_HAL_Driver/Src/stm32c0xx_hal_dma.c **** 
 213:Drivers/STM32C0xx_HAL_Driver/Src/stm32c0xx_hal_dma.c ****     /* Clear the DMAMUX request generator overrun flag */
 214:Drivers/STM32C0xx_HAL_Driver/Src/stm32c0xx_hal_dma.c ****     hdma->DMAmuxRequestGenStatus->RGCFR = hdma->DMAmuxRequestGenStatusMask;
 215:Drivers/STM32C0xx_HAL_Driver/Src/stm32c0xx_hal_dma.c ****   }
 216:Drivers/STM32C0xx_HAL_Driver/Src/stm32c0xx_hal_dma.c ****   else
 217:Drivers/STM32C0xx_HAL_Driver/Src/stm32c0xx_hal_dma.c ****   {
 218:Drivers/STM32C0xx_HAL_Driver/Src/stm32c0xx_hal_dma.c ****     hdma->DMAmuxRequestGen = 0U;
 219:Drivers/STM32C0xx_HAL_Driver/Src/stm32c0xx_hal_dma.c ****     hdma->DMAmuxRequestGenStatus = 0U;
 220:Drivers/STM32C0xx_HAL_Driver/Src/stm32c0xx_hal_dma.c ****     hdma->DMAmuxRequestGenStatusMask = 0U;
 221:Drivers/STM32C0xx_HAL_Driver/Src/stm32c0xx_hal_dma.c ****   }
 222:Drivers/STM32C0xx_HAL_Driver/Src/stm32c0xx_hal_dma.c **** 
 223:Drivers/STM32C0xx_HAL_Driver/Src/stm32c0xx_hal_dma.c ****   /* Initialize the error code */
 224:Drivers/STM32C0xx_HAL_Driver/Src/stm32c0xx_hal_dma.c ****   hdma->ErrorCode = HAL_DMA_ERROR_NONE;
 225:Drivers/STM32C0xx_HAL_Driver/Src/stm32c0xx_hal_dma.c **** 
 226:Drivers/STM32C0xx_HAL_Driver/Src/stm32c0xx_hal_dma.c ****   /* Initialize the DMA state*/
 227:Drivers/STM32C0xx_HAL_Driver/Src/stm32c0xx_hal_dma.c ****   hdma->State  = HAL_DMA_STATE_READY;
 228:Drivers/STM32C0xx_HAL_Driver/Src/stm32c0xx_hal_dma.c **** 
 229:Drivers/STM32C0xx_HAL_Driver/Src/stm32c0xx_hal_dma.c ****   /* Release Lock */
 230:Drivers/STM32C0xx_HAL_Driver/Src/stm32c0xx_hal_dma.c ****   __HAL_UNLOCK(hdma);
 231:Drivers/STM32C0xx_HAL_Driver/Src/stm32c0xx_hal_dma.c **** 
 232:Drivers/STM32C0xx_HAL_Driver/Src/stm32c0xx_hal_dma.c ****   return HAL_OK;
 233:Drivers/STM32C0xx_HAL_Driver/Src/stm32c0xx_hal_dma.c **** }
 234:Drivers/STM32C0xx_HAL_Driver/Src/stm32c0xx_hal_dma.c **** 
 235:Drivers/STM32C0xx_HAL_Driver/Src/stm32c0xx_hal_dma.c **** /**
 236:Drivers/STM32C0xx_HAL_Driver/Src/stm32c0xx_hal_dma.c ****   * @brief  DeInitialize the DMA peripheral.
 237:Drivers/STM32C0xx_HAL_Driver/Src/stm32c0xx_hal_dma.c ****   * @param  hdma  pointer to a DMA_HandleTypeDef structure that contains
 238:Drivers/STM32C0xx_HAL_Driver/Src/stm32c0xx_hal_dma.c ****   *               the configuration information for the specified DMA Channel.
 239:Drivers/STM32C0xx_HAL_Driver/Src/stm32c0xx_hal_dma.c ****   * @retval HAL status
 240:Drivers/STM32C0xx_HAL_Driver/Src/stm32c0xx_hal_dma.c ****   */
 241:Drivers/STM32C0xx_HAL_Driver/Src/stm32c0xx_hal_dma.c **** HAL_StatusTypeDef HAL_DMA_DeInit(DMA_HandleTypeDef *hdma)
 242:Drivers/STM32C0xx_HAL_Driver/Src/stm32c0xx_hal_dma.c **** {
 243:Drivers/STM32C0xx_HAL_Driver/Src/stm32c0xx_hal_dma.c ****   /* Check the DMA handle allocation */
 244:Drivers/STM32C0xx_HAL_Driver/Src/stm32c0xx_hal_dma.c ****   if (NULL == hdma)
 245:Drivers/STM32C0xx_HAL_Driver/Src/stm32c0xx_hal_dma.c ****   {
 246:Drivers/STM32C0xx_HAL_Driver/Src/stm32c0xx_hal_dma.c ****     return HAL_ERROR;
 247:Drivers/STM32C0xx_HAL_Driver/Src/stm32c0xx_hal_dma.c ****   }
 248:Drivers/STM32C0xx_HAL_Driver/Src/stm32c0xx_hal_dma.c **** 
 249:Drivers/STM32C0xx_HAL_Driver/Src/stm32c0xx_hal_dma.c ****   /* Check the parameters */
 250:Drivers/STM32C0xx_HAL_Driver/Src/stm32c0xx_hal_dma.c ****   assert_param(IS_DMA_ALL_INSTANCE(hdma->Instance));
 251:Drivers/STM32C0xx_HAL_Driver/Src/stm32c0xx_hal_dma.c **** 
 252:Drivers/STM32C0xx_HAL_Driver/Src/stm32c0xx_hal_dma.c ****   /* Disable the selected DMA Channelx */
 253:Drivers/STM32C0xx_HAL_Driver/Src/stm32c0xx_hal_dma.c ****   __HAL_DMA_DISABLE(hdma);
 254:Drivers/STM32C0xx_HAL_Driver/Src/stm32c0xx_hal_dma.c **** 
 255:Drivers/STM32C0xx_HAL_Driver/Src/stm32c0xx_hal_dma.c ****   /* calculation of the channel index */
 256:Drivers/STM32C0xx_HAL_Driver/Src/stm32c0xx_hal_dma.c ****   hdma->ChannelIndex = (((uint32_t)hdma->Instance - (uint32_t)DMA1_Channel1) / ((uint32_t)DMA1_Chan
 257:Drivers/STM32C0xx_HAL_Driver/Src/stm32c0xx_hal_dma.c ****                                                                                 (uint32_t)DMA1_Chan
 258:Drivers/STM32C0xx_HAL_Driver/Src/stm32c0xx_hal_dma.c **** 
 259:Drivers/STM32C0xx_HAL_Driver/Src/stm32c0xx_hal_dma.c ****   /* Reset DMA Channel control register */
 260:Drivers/STM32C0xx_HAL_Driver/Src/stm32c0xx_hal_dma.c ****   hdma->Instance->CCR  = 0U;
ARM GAS  C:\Users\simay\AppData\Local\Temp\cc43TqXJ.s 			page 6


 261:Drivers/STM32C0xx_HAL_Driver/Src/stm32c0xx_hal_dma.c **** 
 262:Drivers/STM32C0xx_HAL_Driver/Src/stm32c0xx_hal_dma.c ****   /* Clear all flags */
 263:Drivers/STM32C0xx_HAL_Driver/Src/stm32c0xx_hal_dma.c ****   __HAL_DMA_CLEAR_FLAG(hdma, (DMA_FLAG_GI1 << (hdma->ChannelIndex & 0x1cU)));
 264:Drivers/STM32C0xx_HAL_Driver/Src/stm32c0xx_hal_dma.c **** 
 265:Drivers/STM32C0xx_HAL_Driver/Src/stm32c0xx_hal_dma.c ****   /* Initialize parameters for DMAMUX channel :
 266:Drivers/STM32C0xx_HAL_Driver/Src/stm32c0xx_hal_dma.c ****      DMAmuxChannel, DMAmuxChannelStatus and DMAmuxChannelStatusMask */
 267:Drivers/STM32C0xx_HAL_Driver/Src/stm32c0xx_hal_dma.c **** 
 268:Drivers/STM32C0xx_HAL_Driver/Src/stm32c0xx_hal_dma.c ****   DMA_CalcDMAMUXChannelBaseAndMask(hdma);
 269:Drivers/STM32C0xx_HAL_Driver/Src/stm32c0xx_hal_dma.c **** 
 270:Drivers/STM32C0xx_HAL_Driver/Src/stm32c0xx_hal_dma.c ****   /* Reset the DMAMUX channel that corresponds to the DMA channel */
 271:Drivers/STM32C0xx_HAL_Driver/Src/stm32c0xx_hal_dma.c ****   hdma->DMAmuxChannel->CCR = 0U;
 272:Drivers/STM32C0xx_HAL_Driver/Src/stm32c0xx_hal_dma.c **** 
 273:Drivers/STM32C0xx_HAL_Driver/Src/stm32c0xx_hal_dma.c ****   /* Clear the DMAMUX synchro overrun flag */
 274:Drivers/STM32C0xx_HAL_Driver/Src/stm32c0xx_hal_dma.c ****   hdma->DMAmuxChannelStatus->CFR = hdma->DMAmuxChannelStatusMask;
 275:Drivers/STM32C0xx_HAL_Driver/Src/stm32c0xx_hal_dma.c **** 
 276:Drivers/STM32C0xx_HAL_Driver/Src/stm32c0xx_hal_dma.c ****   /* Reset Request generator parameters if any */
 277:Drivers/STM32C0xx_HAL_Driver/Src/stm32c0xx_hal_dma.c ****   if (((hdma->Init.Request >  0UL) && (hdma->Init.Request <= DMA_REQUEST_GENERATOR3)))
 278:Drivers/STM32C0xx_HAL_Driver/Src/stm32c0xx_hal_dma.c ****   {
 279:Drivers/STM32C0xx_HAL_Driver/Src/stm32c0xx_hal_dma.c ****     /* Initialize parameters for DMAMUX request generator :
 280:Drivers/STM32C0xx_HAL_Driver/Src/stm32c0xx_hal_dma.c ****        DMAmuxRequestGen, DMAmuxRequestGenStatus and DMAmuxRequestGenStatusMask
 281:Drivers/STM32C0xx_HAL_Driver/Src/stm32c0xx_hal_dma.c ****     */
 282:Drivers/STM32C0xx_HAL_Driver/Src/stm32c0xx_hal_dma.c ****     DMA_CalcDMAMUXRequestGenBaseAndMask(hdma);
 283:Drivers/STM32C0xx_HAL_Driver/Src/stm32c0xx_hal_dma.c **** 
 284:Drivers/STM32C0xx_HAL_Driver/Src/stm32c0xx_hal_dma.c ****     /* Reset the DMAMUX request generator register*/
 285:Drivers/STM32C0xx_HAL_Driver/Src/stm32c0xx_hal_dma.c ****     hdma->DMAmuxRequestGen->RGCR = 0U;
 286:Drivers/STM32C0xx_HAL_Driver/Src/stm32c0xx_hal_dma.c **** 
 287:Drivers/STM32C0xx_HAL_Driver/Src/stm32c0xx_hal_dma.c ****     /* Clear the DMAMUX request generator overrun flag */
 288:Drivers/STM32C0xx_HAL_Driver/Src/stm32c0xx_hal_dma.c ****     hdma->DMAmuxRequestGenStatus->RGCFR = hdma->DMAmuxRequestGenStatusMask;
 289:Drivers/STM32C0xx_HAL_Driver/Src/stm32c0xx_hal_dma.c ****   }
 290:Drivers/STM32C0xx_HAL_Driver/Src/stm32c0xx_hal_dma.c **** 
 291:Drivers/STM32C0xx_HAL_Driver/Src/stm32c0xx_hal_dma.c ****   /* Clean callbacks */
 292:Drivers/STM32C0xx_HAL_Driver/Src/stm32c0xx_hal_dma.c ****   hdma->XferCpltCallback = NULL;
 293:Drivers/STM32C0xx_HAL_Driver/Src/stm32c0xx_hal_dma.c ****   hdma->XferHalfCpltCallback = NULL;
 294:Drivers/STM32C0xx_HAL_Driver/Src/stm32c0xx_hal_dma.c ****   hdma->XferErrorCallback = NULL;
 295:Drivers/STM32C0xx_HAL_Driver/Src/stm32c0xx_hal_dma.c ****   hdma->XferAbortCallback = NULL;
 296:Drivers/STM32C0xx_HAL_Driver/Src/stm32c0xx_hal_dma.c **** 
 297:Drivers/STM32C0xx_HAL_Driver/Src/stm32c0xx_hal_dma.c ****   hdma->DMAmuxRequestGen = 0U;
 298:Drivers/STM32C0xx_HAL_Driver/Src/stm32c0xx_hal_dma.c ****   hdma->DMAmuxRequestGenStatus = 0U;
 299:Drivers/STM32C0xx_HAL_Driver/Src/stm32c0xx_hal_dma.c ****   hdma->DMAmuxRequestGenStatusMask = 0U;
 300:Drivers/STM32C0xx_HAL_Driver/Src/stm32c0xx_hal_dma.c **** 
 301:Drivers/STM32C0xx_HAL_Driver/Src/stm32c0xx_hal_dma.c ****   /* Initialize the error code */
 302:Drivers/STM32C0xx_HAL_Driver/Src/stm32c0xx_hal_dma.c ****   hdma->ErrorCode = HAL_DMA_ERROR_NONE;
 303:Drivers/STM32C0xx_HAL_Driver/Src/stm32c0xx_hal_dma.c **** 
 304:Drivers/STM32C0xx_HAL_Driver/Src/stm32c0xx_hal_dma.c ****   /* Initialize the DMA state */
 305:Drivers/STM32C0xx_HAL_Driver/Src/stm32c0xx_hal_dma.c ****   hdma->State = HAL_DMA_STATE_RESET;
 306:Drivers/STM32C0xx_HAL_Driver/Src/stm32c0xx_hal_dma.c **** 
 307:Drivers/STM32C0xx_HAL_Driver/Src/stm32c0xx_hal_dma.c ****   /* Release Lock */
 308:Drivers/STM32C0xx_HAL_Driver/Src/stm32c0xx_hal_dma.c ****   __HAL_UNLOCK(hdma);
 309:Drivers/STM32C0xx_HAL_Driver/Src/stm32c0xx_hal_dma.c **** 
 310:Drivers/STM32C0xx_HAL_Driver/Src/stm32c0xx_hal_dma.c ****   return HAL_OK;
 311:Drivers/STM32C0xx_HAL_Driver/Src/stm32c0xx_hal_dma.c **** }
 312:Drivers/STM32C0xx_HAL_Driver/Src/stm32c0xx_hal_dma.c **** 
 313:Drivers/STM32C0xx_HAL_Driver/Src/stm32c0xx_hal_dma.c **** /**
 314:Drivers/STM32C0xx_HAL_Driver/Src/stm32c0xx_hal_dma.c ****   * @}
 315:Drivers/STM32C0xx_HAL_Driver/Src/stm32c0xx_hal_dma.c ****   */
 316:Drivers/STM32C0xx_HAL_Driver/Src/stm32c0xx_hal_dma.c **** 
 317:Drivers/STM32C0xx_HAL_Driver/Src/stm32c0xx_hal_dma.c **** /** @defgroup DMA_Exported_Functions_Group2 Input and Output operation functions
ARM GAS  C:\Users\simay\AppData\Local\Temp\cc43TqXJ.s 			page 7


 318:Drivers/STM32C0xx_HAL_Driver/Src/stm32c0xx_hal_dma.c ****   *  @brief   Input and Output operation functions
 319:Drivers/STM32C0xx_HAL_Driver/Src/stm32c0xx_hal_dma.c ****   *
 320:Drivers/STM32C0xx_HAL_Driver/Src/stm32c0xx_hal_dma.c **** @verbatim
 321:Drivers/STM32C0xx_HAL_Driver/Src/stm32c0xx_hal_dma.c ****  ===============================================================================
 322:Drivers/STM32C0xx_HAL_Driver/Src/stm32c0xx_hal_dma.c ****                       #####  IO operation functions  #####
 323:Drivers/STM32C0xx_HAL_Driver/Src/stm32c0xx_hal_dma.c ****  ===============================================================================
 324:Drivers/STM32C0xx_HAL_Driver/Src/stm32c0xx_hal_dma.c ****     [..]  This section provides functions allowing to:
 325:Drivers/STM32C0xx_HAL_Driver/Src/stm32c0xx_hal_dma.c ****       (+) Configure the source, destination address and data length and Start DMA transfer
 326:Drivers/STM32C0xx_HAL_Driver/Src/stm32c0xx_hal_dma.c ****       (+) Configure the source, destination address and data length and
 327:Drivers/STM32C0xx_HAL_Driver/Src/stm32c0xx_hal_dma.c ****           Start DMA transfer with interrupt
 328:Drivers/STM32C0xx_HAL_Driver/Src/stm32c0xx_hal_dma.c ****       (+) Abort DMA transfer
 329:Drivers/STM32C0xx_HAL_Driver/Src/stm32c0xx_hal_dma.c ****       (+) Poll for transfer complete
 330:Drivers/STM32C0xx_HAL_Driver/Src/stm32c0xx_hal_dma.c ****       (+) Handle DMA interrupt request
 331:Drivers/STM32C0xx_HAL_Driver/Src/stm32c0xx_hal_dma.c **** 
 332:Drivers/STM32C0xx_HAL_Driver/Src/stm32c0xx_hal_dma.c **** @endverbatim
 333:Drivers/STM32C0xx_HAL_Driver/Src/stm32c0xx_hal_dma.c ****   * @{
 334:Drivers/STM32C0xx_HAL_Driver/Src/stm32c0xx_hal_dma.c ****   */
 335:Drivers/STM32C0xx_HAL_Driver/Src/stm32c0xx_hal_dma.c **** 
 336:Drivers/STM32C0xx_HAL_Driver/Src/stm32c0xx_hal_dma.c **** /**
 337:Drivers/STM32C0xx_HAL_Driver/Src/stm32c0xx_hal_dma.c ****   * @brief  Start the DMA Transfer.
 338:Drivers/STM32C0xx_HAL_Driver/Src/stm32c0xx_hal_dma.c ****   * @param hdma Pointer to a DMA_HandleTypeDef structure that contains
 339:Drivers/STM32C0xx_HAL_Driver/Src/stm32c0xx_hal_dma.c ****   *               the configuration information for the specified DMA Channel.
 340:Drivers/STM32C0xx_HAL_Driver/Src/stm32c0xx_hal_dma.c ****   * @param SrcAddress The source memory Buffer address
 341:Drivers/STM32C0xx_HAL_Driver/Src/stm32c0xx_hal_dma.c ****   * @param DstAddress The destination memory Buffer address
 342:Drivers/STM32C0xx_HAL_Driver/Src/stm32c0xx_hal_dma.c ****   * @param DataLength The length of data to be transferred from source to destination
 343:Drivers/STM32C0xx_HAL_Driver/Src/stm32c0xx_hal_dma.c ****   * @retval HAL status
 344:Drivers/STM32C0xx_HAL_Driver/Src/stm32c0xx_hal_dma.c ****   */
 345:Drivers/STM32C0xx_HAL_Driver/Src/stm32c0xx_hal_dma.c **** HAL_StatusTypeDef HAL_DMA_Start(DMA_HandleTypeDef *hdma, uint32_t SrcAddress, uint32_t DstAddress, 
 346:Drivers/STM32C0xx_HAL_Driver/Src/stm32c0xx_hal_dma.c **** {
 347:Drivers/STM32C0xx_HAL_Driver/Src/stm32c0xx_hal_dma.c ****   HAL_StatusTypeDef status = HAL_OK;
 348:Drivers/STM32C0xx_HAL_Driver/Src/stm32c0xx_hal_dma.c **** 
 349:Drivers/STM32C0xx_HAL_Driver/Src/stm32c0xx_hal_dma.c ****   /* Check the parameters */
 350:Drivers/STM32C0xx_HAL_Driver/Src/stm32c0xx_hal_dma.c ****   assert_param(IS_DMA_BUFFER_SIZE(DataLength));
 351:Drivers/STM32C0xx_HAL_Driver/Src/stm32c0xx_hal_dma.c **** 
 352:Drivers/STM32C0xx_HAL_Driver/Src/stm32c0xx_hal_dma.c ****   /* Process locked */
 353:Drivers/STM32C0xx_HAL_Driver/Src/stm32c0xx_hal_dma.c ****   __HAL_LOCK(hdma);
 354:Drivers/STM32C0xx_HAL_Driver/Src/stm32c0xx_hal_dma.c **** 
 355:Drivers/STM32C0xx_HAL_Driver/Src/stm32c0xx_hal_dma.c ****   if (HAL_DMA_STATE_READY == hdma->State)
 356:Drivers/STM32C0xx_HAL_Driver/Src/stm32c0xx_hal_dma.c ****   {
 357:Drivers/STM32C0xx_HAL_Driver/Src/stm32c0xx_hal_dma.c ****     /* Change DMA peripheral state */
 358:Drivers/STM32C0xx_HAL_Driver/Src/stm32c0xx_hal_dma.c ****     hdma->State = HAL_DMA_STATE_BUSY;
 359:Drivers/STM32C0xx_HAL_Driver/Src/stm32c0xx_hal_dma.c ****     hdma->ErrorCode = HAL_DMA_ERROR_NONE;
 360:Drivers/STM32C0xx_HAL_Driver/Src/stm32c0xx_hal_dma.c **** 
 361:Drivers/STM32C0xx_HAL_Driver/Src/stm32c0xx_hal_dma.c ****     /* Disable the peripheral */
 362:Drivers/STM32C0xx_HAL_Driver/Src/stm32c0xx_hal_dma.c ****     __HAL_DMA_DISABLE(hdma);
 363:Drivers/STM32C0xx_HAL_Driver/Src/stm32c0xx_hal_dma.c **** 
 364:Drivers/STM32C0xx_HAL_Driver/Src/stm32c0xx_hal_dma.c ****     /* Configure the source, destination address and the data length & clear flags*/
 365:Drivers/STM32C0xx_HAL_Driver/Src/stm32c0xx_hal_dma.c ****     DMA_SetConfig(hdma, SrcAddress, DstAddress, DataLength);
 366:Drivers/STM32C0xx_HAL_Driver/Src/stm32c0xx_hal_dma.c **** 
 367:Drivers/STM32C0xx_HAL_Driver/Src/stm32c0xx_hal_dma.c ****     /* Enable the Peripheral */
 368:Drivers/STM32C0xx_HAL_Driver/Src/stm32c0xx_hal_dma.c ****     __HAL_DMA_ENABLE(hdma);
 369:Drivers/STM32C0xx_HAL_Driver/Src/stm32c0xx_hal_dma.c ****   }
 370:Drivers/STM32C0xx_HAL_Driver/Src/stm32c0xx_hal_dma.c ****   else
 371:Drivers/STM32C0xx_HAL_Driver/Src/stm32c0xx_hal_dma.c ****   {
 372:Drivers/STM32C0xx_HAL_Driver/Src/stm32c0xx_hal_dma.c ****     /* Process Unlocked */
 373:Drivers/STM32C0xx_HAL_Driver/Src/stm32c0xx_hal_dma.c ****     __HAL_UNLOCK(hdma);
 374:Drivers/STM32C0xx_HAL_Driver/Src/stm32c0xx_hal_dma.c ****     status = HAL_BUSY;
ARM GAS  C:\Users\simay\AppData\Local\Temp\cc43TqXJ.s 			page 8


 375:Drivers/STM32C0xx_HAL_Driver/Src/stm32c0xx_hal_dma.c ****   }
 376:Drivers/STM32C0xx_HAL_Driver/Src/stm32c0xx_hal_dma.c **** 
 377:Drivers/STM32C0xx_HAL_Driver/Src/stm32c0xx_hal_dma.c ****   /* Process locked */
 378:Drivers/STM32C0xx_HAL_Driver/Src/stm32c0xx_hal_dma.c ****   __HAL_UNLOCK(hdma);
 379:Drivers/STM32C0xx_HAL_Driver/Src/stm32c0xx_hal_dma.c **** 
 380:Drivers/STM32C0xx_HAL_Driver/Src/stm32c0xx_hal_dma.c ****   return status;
 381:Drivers/STM32C0xx_HAL_Driver/Src/stm32c0xx_hal_dma.c **** }
 382:Drivers/STM32C0xx_HAL_Driver/Src/stm32c0xx_hal_dma.c **** 
 383:Drivers/STM32C0xx_HAL_Driver/Src/stm32c0xx_hal_dma.c **** /**
 384:Drivers/STM32C0xx_HAL_Driver/Src/stm32c0xx_hal_dma.c ****   * @brief  Start the DMA Transfer with interrupt enabled.
 385:Drivers/STM32C0xx_HAL_Driver/Src/stm32c0xx_hal_dma.c ****   * @param hdma Pointer to a DMA_HandleTypeDef structure that contains
 386:Drivers/STM32C0xx_HAL_Driver/Src/stm32c0xx_hal_dma.c ****   *               the configuration information for the specified DMA Channel.
 387:Drivers/STM32C0xx_HAL_Driver/Src/stm32c0xx_hal_dma.c ****   * @param SrcAddress The source memory Buffer address
 388:Drivers/STM32C0xx_HAL_Driver/Src/stm32c0xx_hal_dma.c ****   * @param DstAddress The destination memory Buffer address
 389:Drivers/STM32C0xx_HAL_Driver/Src/stm32c0xx_hal_dma.c ****   * @param DataLength The length of data to be transferred from source to destination
 390:Drivers/STM32C0xx_HAL_Driver/Src/stm32c0xx_hal_dma.c ****   * @retval HAL status
 391:Drivers/STM32C0xx_HAL_Driver/Src/stm32c0xx_hal_dma.c ****   */
 392:Drivers/STM32C0xx_HAL_Driver/Src/stm32c0xx_hal_dma.c **** HAL_StatusTypeDef HAL_DMA_Start_IT(DMA_HandleTypeDef *hdma, uint32_t SrcAddress, uint32_t DstAddres
 393:Drivers/STM32C0xx_HAL_Driver/Src/stm32c0xx_hal_dma.c ****                                    uint32_t DataLength)
 394:Drivers/STM32C0xx_HAL_Driver/Src/stm32c0xx_hal_dma.c **** {
 395:Drivers/STM32C0xx_HAL_Driver/Src/stm32c0xx_hal_dma.c ****   HAL_StatusTypeDef status = HAL_OK;
 396:Drivers/STM32C0xx_HAL_Driver/Src/stm32c0xx_hal_dma.c **** 
 397:Drivers/STM32C0xx_HAL_Driver/Src/stm32c0xx_hal_dma.c ****   /* Check the parameters */
 398:Drivers/STM32C0xx_HAL_Driver/Src/stm32c0xx_hal_dma.c ****   assert_param(IS_DMA_BUFFER_SIZE(DataLength));
 399:Drivers/STM32C0xx_HAL_Driver/Src/stm32c0xx_hal_dma.c **** 
 400:Drivers/STM32C0xx_HAL_Driver/Src/stm32c0xx_hal_dma.c ****   /* Process locked */
 401:Drivers/STM32C0xx_HAL_Driver/Src/stm32c0xx_hal_dma.c ****   __HAL_LOCK(hdma);
 402:Drivers/STM32C0xx_HAL_Driver/Src/stm32c0xx_hal_dma.c **** 
 403:Drivers/STM32C0xx_HAL_Driver/Src/stm32c0xx_hal_dma.c ****   if (HAL_DMA_STATE_READY == hdma->State)
 404:Drivers/STM32C0xx_HAL_Driver/Src/stm32c0xx_hal_dma.c ****   {
 405:Drivers/STM32C0xx_HAL_Driver/Src/stm32c0xx_hal_dma.c ****     /* Change DMA peripheral state */
 406:Drivers/STM32C0xx_HAL_Driver/Src/stm32c0xx_hal_dma.c ****     hdma->State = HAL_DMA_STATE_BUSY;
 407:Drivers/STM32C0xx_HAL_Driver/Src/stm32c0xx_hal_dma.c ****     hdma->ErrorCode = HAL_DMA_ERROR_NONE;
 408:Drivers/STM32C0xx_HAL_Driver/Src/stm32c0xx_hal_dma.c **** 
 409:Drivers/STM32C0xx_HAL_Driver/Src/stm32c0xx_hal_dma.c ****     /* Disable the peripheral */
 410:Drivers/STM32C0xx_HAL_Driver/Src/stm32c0xx_hal_dma.c ****     __HAL_DMA_DISABLE(hdma);
 411:Drivers/STM32C0xx_HAL_Driver/Src/stm32c0xx_hal_dma.c **** 
 412:Drivers/STM32C0xx_HAL_Driver/Src/stm32c0xx_hal_dma.c ****     /* Configure the source, destination address and the data length & clear flags*/
 413:Drivers/STM32C0xx_HAL_Driver/Src/stm32c0xx_hal_dma.c ****     DMA_SetConfig(hdma, SrcAddress, DstAddress, DataLength);
 414:Drivers/STM32C0xx_HAL_Driver/Src/stm32c0xx_hal_dma.c **** 
 415:Drivers/STM32C0xx_HAL_Driver/Src/stm32c0xx_hal_dma.c ****     /* Enable the transfer complete interrupt */
 416:Drivers/STM32C0xx_HAL_Driver/Src/stm32c0xx_hal_dma.c ****     /* Enable the transfer Error interrupt */
 417:Drivers/STM32C0xx_HAL_Driver/Src/stm32c0xx_hal_dma.c ****     if (NULL != hdma->XferHalfCpltCallback)
 418:Drivers/STM32C0xx_HAL_Driver/Src/stm32c0xx_hal_dma.c ****     {
 419:Drivers/STM32C0xx_HAL_Driver/Src/stm32c0xx_hal_dma.c ****       /* Enable the Half transfer complete interrupt as well */
 420:Drivers/STM32C0xx_HAL_Driver/Src/stm32c0xx_hal_dma.c ****       __HAL_DMA_ENABLE_IT(hdma, (DMA_IT_TC | DMA_IT_HT | DMA_IT_TE));
 421:Drivers/STM32C0xx_HAL_Driver/Src/stm32c0xx_hal_dma.c ****     }
 422:Drivers/STM32C0xx_HAL_Driver/Src/stm32c0xx_hal_dma.c ****     else
 423:Drivers/STM32C0xx_HAL_Driver/Src/stm32c0xx_hal_dma.c ****     {
 424:Drivers/STM32C0xx_HAL_Driver/Src/stm32c0xx_hal_dma.c ****       __HAL_DMA_DISABLE_IT(hdma, DMA_IT_HT);
 425:Drivers/STM32C0xx_HAL_Driver/Src/stm32c0xx_hal_dma.c ****       __HAL_DMA_ENABLE_IT(hdma, (DMA_IT_TC | DMA_IT_TE));
 426:Drivers/STM32C0xx_HAL_Driver/Src/stm32c0xx_hal_dma.c ****     }
 427:Drivers/STM32C0xx_HAL_Driver/Src/stm32c0xx_hal_dma.c **** 
 428:Drivers/STM32C0xx_HAL_Driver/Src/stm32c0xx_hal_dma.c ****     /* Check if DMAMUX Synchronization is enabled*/
 429:Drivers/STM32C0xx_HAL_Driver/Src/stm32c0xx_hal_dma.c ****     if ((hdma->DMAmuxChannel->CCR & DMAMUX_CxCR_SE) != 0U)
 430:Drivers/STM32C0xx_HAL_Driver/Src/stm32c0xx_hal_dma.c ****     {
 431:Drivers/STM32C0xx_HAL_Driver/Src/stm32c0xx_hal_dma.c ****       /* Enable DMAMUX sync overrun IT*/
ARM GAS  C:\Users\simay\AppData\Local\Temp\cc43TqXJ.s 			page 9


 432:Drivers/STM32C0xx_HAL_Driver/Src/stm32c0xx_hal_dma.c ****       hdma->DMAmuxChannel->CCR |= DMAMUX_CxCR_SOIE;
 433:Drivers/STM32C0xx_HAL_Driver/Src/stm32c0xx_hal_dma.c ****     }
 434:Drivers/STM32C0xx_HAL_Driver/Src/stm32c0xx_hal_dma.c **** 
 435:Drivers/STM32C0xx_HAL_Driver/Src/stm32c0xx_hal_dma.c ****     if (hdma->DMAmuxRequestGen != 0U)
 436:Drivers/STM32C0xx_HAL_Driver/Src/stm32c0xx_hal_dma.c ****     {
 437:Drivers/STM32C0xx_HAL_Driver/Src/stm32c0xx_hal_dma.c ****       /* if using DMAMUX request generator, enable the DMAMUX request generator overrun IT*/
 438:Drivers/STM32C0xx_HAL_Driver/Src/stm32c0xx_hal_dma.c ****       /* enable the request gen overrun IT*/
 439:Drivers/STM32C0xx_HAL_Driver/Src/stm32c0xx_hal_dma.c ****       hdma->DMAmuxRequestGen->RGCR |= DMAMUX_RGxCR_OIE;
 440:Drivers/STM32C0xx_HAL_Driver/Src/stm32c0xx_hal_dma.c ****     }
 441:Drivers/STM32C0xx_HAL_Driver/Src/stm32c0xx_hal_dma.c **** 
 442:Drivers/STM32C0xx_HAL_Driver/Src/stm32c0xx_hal_dma.c ****     /* Enable the Peripheral */
 443:Drivers/STM32C0xx_HAL_Driver/Src/stm32c0xx_hal_dma.c ****     __HAL_DMA_ENABLE(hdma);
 444:Drivers/STM32C0xx_HAL_Driver/Src/stm32c0xx_hal_dma.c ****   }
 445:Drivers/STM32C0xx_HAL_Driver/Src/stm32c0xx_hal_dma.c ****   else
 446:Drivers/STM32C0xx_HAL_Driver/Src/stm32c0xx_hal_dma.c ****   {
 447:Drivers/STM32C0xx_HAL_Driver/Src/stm32c0xx_hal_dma.c ****     /* Process Unlocked */
 448:Drivers/STM32C0xx_HAL_Driver/Src/stm32c0xx_hal_dma.c ****     __HAL_UNLOCK(hdma);
 449:Drivers/STM32C0xx_HAL_Driver/Src/stm32c0xx_hal_dma.c **** 
 450:Drivers/STM32C0xx_HAL_Driver/Src/stm32c0xx_hal_dma.c ****     /* Remain BUSY */
 451:Drivers/STM32C0xx_HAL_Driver/Src/stm32c0xx_hal_dma.c ****     status = HAL_BUSY;
 452:Drivers/STM32C0xx_HAL_Driver/Src/stm32c0xx_hal_dma.c ****   }
 453:Drivers/STM32C0xx_HAL_Driver/Src/stm32c0xx_hal_dma.c **** 
 454:Drivers/STM32C0xx_HAL_Driver/Src/stm32c0xx_hal_dma.c ****   /* Process unlocked */
 455:Drivers/STM32C0xx_HAL_Driver/Src/stm32c0xx_hal_dma.c ****   __HAL_UNLOCK(hdma);
 456:Drivers/STM32C0xx_HAL_Driver/Src/stm32c0xx_hal_dma.c **** 
 457:Drivers/STM32C0xx_HAL_Driver/Src/stm32c0xx_hal_dma.c ****   return status;
 458:Drivers/STM32C0xx_HAL_Driver/Src/stm32c0xx_hal_dma.c **** }
 459:Drivers/STM32C0xx_HAL_Driver/Src/stm32c0xx_hal_dma.c **** 
 460:Drivers/STM32C0xx_HAL_Driver/Src/stm32c0xx_hal_dma.c **** /**
 461:Drivers/STM32C0xx_HAL_Driver/Src/stm32c0xx_hal_dma.c ****   * @brief  Abort the DMA Transfer.
 462:Drivers/STM32C0xx_HAL_Driver/Src/stm32c0xx_hal_dma.c ****   * @param hdma Pointer to a DMA_HandleTypeDef structure that contains
 463:Drivers/STM32C0xx_HAL_Driver/Src/stm32c0xx_hal_dma.c ****   *               the configuration information for the specified DMA Channel.
 464:Drivers/STM32C0xx_HAL_Driver/Src/stm32c0xx_hal_dma.c ****     * @retval HAL status
 465:Drivers/STM32C0xx_HAL_Driver/Src/stm32c0xx_hal_dma.c ****   */
 466:Drivers/STM32C0xx_HAL_Driver/Src/stm32c0xx_hal_dma.c **** HAL_StatusTypeDef HAL_DMA_Abort(DMA_HandleTypeDef *hdma)
 467:Drivers/STM32C0xx_HAL_Driver/Src/stm32c0xx_hal_dma.c **** {
 468:Drivers/STM32C0xx_HAL_Driver/Src/stm32c0xx_hal_dma.c ****   /* Check the DMA peripheral handle */
 469:Drivers/STM32C0xx_HAL_Driver/Src/stm32c0xx_hal_dma.c ****   if (NULL == hdma)
 470:Drivers/STM32C0xx_HAL_Driver/Src/stm32c0xx_hal_dma.c ****   {
 471:Drivers/STM32C0xx_HAL_Driver/Src/stm32c0xx_hal_dma.c ****     return HAL_ERROR;
 472:Drivers/STM32C0xx_HAL_Driver/Src/stm32c0xx_hal_dma.c ****   }
 473:Drivers/STM32C0xx_HAL_Driver/Src/stm32c0xx_hal_dma.c **** 
 474:Drivers/STM32C0xx_HAL_Driver/Src/stm32c0xx_hal_dma.c ****   /* Check the DMA peripheral state */
 475:Drivers/STM32C0xx_HAL_Driver/Src/stm32c0xx_hal_dma.c ****   if (hdma->State != HAL_DMA_STATE_BUSY)
 476:Drivers/STM32C0xx_HAL_Driver/Src/stm32c0xx_hal_dma.c ****   {
 477:Drivers/STM32C0xx_HAL_Driver/Src/stm32c0xx_hal_dma.c ****     hdma->ErrorCode = HAL_DMA_ERROR_NO_XFER;
 478:Drivers/STM32C0xx_HAL_Driver/Src/stm32c0xx_hal_dma.c **** 
 479:Drivers/STM32C0xx_HAL_Driver/Src/stm32c0xx_hal_dma.c ****     /* Process Unlocked */
 480:Drivers/STM32C0xx_HAL_Driver/Src/stm32c0xx_hal_dma.c ****     __HAL_UNLOCK(hdma);
 481:Drivers/STM32C0xx_HAL_Driver/Src/stm32c0xx_hal_dma.c **** 
 482:Drivers/STM32C0xx_HAL_Driver/Src/stm32c0xx_hal_dma.c ****     return HAL_ERROR;
 483:Drivers/STM32C0xx_HAL_Driver/Src/stm32c0xx_hal_dma.c ****   }
 484:Drivers/STM32C0xx_HAL_Driver/Src/stm32c0xx_hal_dma.c ****   else
 485:Drivers/STM32C0xx_HAL_Driver/Src/stm32c0xx_hal_dma.c ****   {
 486:Drivers/STM32C0xx_HAL_Driver/Src/stm32c0xx_hal_dma.c ****     /* Disable DMA IT */
 487:Drivers/STM32C0xx_HAL_Driver/Src/stm32c0xx_hal_dma.c ****     __HAL_DMA_DISABLE_IT(hdma, (DMA_IT_TC | DMA_IT_HT | DMA_IT_TE));
 488:Drivers/STM32C0xx_HAL_Driver/Src/stm32c0xx_hal_dma.c **** 
ARM GAS  C:\Users\simay\AppData\Local\Temp\cc43TqXJ.s 			page 10


 489:Drivers/STM32C0xx_HAL_Driver/Src/stm32c0xx_hal_dma.c ****     /* disable the DMAMUX sync overrun IT*/
 490:Drivers/STM32C0xx_HAL_Driver/Src/stm32c0xx_hal_dma.c ****     hdma->DMAmuxChannel->CCR &= ~DMAMUX_CxCR_SOIE;
 491:Drivers/STM32C0xx_HAL_Driver/Src/stm32c0xx_hal_dma.c **** 
 492:Drivers/STM32C0xx_HAL_Driver/Src/stm32c0xx_hal_dma.c ****     /* Disable the channel */
 493:Drivers/STM32C0xx_HAL_Driver/Src/stm32c0xx_hal_dma.c ****     __HAL_DMA_DISABLE(hdma);
 494:Drivers/STM32C0xx_HAL_Driver/Src/stm32c0xx_hal_dma.c **** 
 495:Drivers/STM32C0xx_HAL_Driver/Src/stm32c0xx_hal_dma.c ****     /* Clear all flags */
 496:Drivers/STM32C0xx_HAL_Driver/Src/stm32c0xx_hal_dma.c ****     __HAL_DMA_CLEAR_FLAG(hdma, ((DMA_FLAG_GI1) << (hdma->ChannelIndex  & 0x1cU)));
 497:Drivers/STM32C0xx_HAL_Driver/Src/stm32c0xx_hal_dma.c **** 
 498:Drivers/STM32C0xx_HAL_Driver/Src/stm32c0xx_hal_dma.c ****     /* Clear the DMAMUX synchro overrun flag */
 499:Drivers/STM32C0xx_HAL_Driver/Src/stm32c0xx_hal_dma.c ****     hdma->DMAmuxChannelStatus->CFR = hdma->DMAmuxChannelStatusMask;
 500:Drivers/STM32C0xx_HAL_Driver/Src/stm32c0xx_hal_dma.c **** 
 501:Drivers/STM32C0xx_HAL_Driver/Src/stm32c0xx_hal_dma.c ****     if (hdma->DMAmuxRequestGen != 0U)
 502:Drivers/STM32C0xx_HAL_Driver/Src/stm32c0xx_hal_dma.c ****     {
 503:Drivers/STM32C0xx_HAL_Driver/Src/stm32c0xx_hal_dma.c ****       /* if using DMAMUX request generator, disable the DMAMUX request generator overrun IT*/
 504:Drivers/STM32C0xx_HAL_Driver/Src/stm32c0xx_hal_dma.c ****       /* disable the request gen overrun IT*/
 505:Drivers/STM32C0xx_HAL_Driver/Src/stm32c0xx_hal_dma.c ****       hdma->DMAmuxRequestGen->RGCR &= ~DMAMUX_RGxCR_OIE;
 506:Drivers/STM32C0xx_HAL_Driver/Src/stm32c0xx_hal_dma.c **** 
 507:Drivers/STM32C0xx_HAL_Driver/Src/stm32c0xx_hal_dma.c ****       /* Clear the DMAMUX request generator overrun flag */
 508:Drivers/STM32C0xx_HAL_Driver/Src/stm32c0xx_hal_dma.c ****       hdma->DMAmuxRequestGenStatus->RGCFR = hdma->DMAmuxRequestGenStatusMask;
 509:Drivers/STM32C0xx_HAL_Driver/Src/stm32c0xx_hal_dma.c ****     }
 510:Drivers/STM32C0xx_HAL_Driver/Src/stm32c0xx_hal_dma.c **** 
 511:Drivers/STM32C0xx_HAL_Driver/Src/stm32c0xx_hal_dma.c ****     /* Change the DMA state */
 512:Drivers/STM32C0xx_HAL_Driver/Src/stm32c0xx_hal_dma.c ****     hdma->State = HAL_DMA_STATE_READY;
 513:Drivers/STM32C0xx_HAL_Driver/Src/stm32c0xx_hal_dma.c **** 
 514:Drivers/STM32C0xx_HAL_Driver/Src/stm32c0xx_hal_dma.c ****     /* Process Unlocked */
 515:Drivers/STM32C0xx_HAL_Driver/Src/stm32c0xx_hal_dma.c ****     __HAL_UNLOCK(hdma);
 516:Drivers/STM32C0xx_HAL_Driver/Src/stm32c0xx_hal_dma.c ****   }
 517:Drivers/STM32C0xx_HAL_Driver/Src/stm32c0xx_hal_dma.c **** 
 518:Drivers/STM32C0xx_HAL_Driver/Src/stm32c0xx_hal_dma.c ****   return HAL_OK;
 519:Drivers/STM32C0xx_HAL_Driver/Src/stm32c0xx_hal_dma.c **** }
 520:Drivers/STM32C0xx_HAL_Driver/Src/stm32c0xx_hal_dma.c **** 
 521:Drivers/STM32C0xx_HAL_Driver/Src/stm32c0xx_hal_dma.c **** /**
 522:Drivers/STM32C0xx_HAL_Driver/Src/stm32c0xx_hal_dma.c ****   * @brief  Aborts the DMA Transfer in Interrupt mode.
 523:Drivers/STM32C0xx_HAL_Driver/Src/stm32c0xx_hal_dma.c ****   * @param  hdma    pointer to a DMA_HandleTypeDef structure that contains
 524:Drivers/STM32C0xx_HAL_Driver/Src/stm32c0xx_hal_dma.c ****   *                 the configuration information for the specified DMA Stream.
 525:Drivers/STM32C0xx_HAL_Driver/Src/stm32c0xx_hal_dma.c ****   * @retval HAL status
 526:Drivers/STM32C0xx_HAL_Driver/Src/stm32c0xx_hal_dma.c ****   */
 527:Drivers/STM32C0xx_HAL_Driver/Src/stm32c0xx_hal_dma.c **** HAL_StatusTypeDef HAL_DMA_Abort_IT(DMA_HandleTypeDef *hdma)
 528:Drivers/STM32C0xx_HAL_Driver/Src/stm32c0xx_hal_dma.c **** {
 529:Drivers/STM32C0xx_HAL_Driver/Src/stm32c0xx_hal_dma.c ****   HAL_StatusTypeDef status = HAL_OK;
 530:Drivers/STM32C0xx_HAL_Driver/Src/stm32c0xx_hal_dma.c **** 
 531:Drivers/STM32C0xx_HAL_Driver/Src/stm32c0xx_hal_dma.c ****   /* Process Unlocked/locked */
 532:Drivers/STM32C0xx_HAL_Driver/Src/stm32c0xx_hal_dma.c ****   __HAL_UNLOCK(hdma);
 533:Drivers/STM32C0xx_HAL_Driver/Src/stm32c0xx_hal_dma.c ****   __HAL_LOCK(hdma);
 534:Drivers/STM32C0xx_HAL_Driver/Src/stm32c0xx_hal_dma.c **** 
 535:Drivers/STM32C0xx_HAL_Driver/Src/stm32c0xx_hal_dma.c ****   if (HAL_DMA_STATE_BUSY != hdma->State)
 536:Drivers/STM32C0xx_HAL_Driver/Src/stm32c0xx_hal_dma.c ****   {
 537:Drivers/STM32C0xx_HAL_Driver/Src/stm32c0xx_hal_dma.c ****     /* no transfer ongoing */
 538:Drivers/STM32C0xx_HAL_Driver/Src/stm32c0xx_hal_dma.c ****     hdma->ErrorCode = HAL_DMA_ERROR_NO_XFER;
 539:Drivers/STM32C0xx_HAL_Driver/Src/stm32c0xx_hal_dma.c **** 
 540:Drivers/STM32C0xx_HAL_Driver/Src/stm32c0xx_hal_dma.c ****     status = HAL_ERROR;
 541:Drivers/STM32C0xx_HAL_Driver/Src/stm32c0xx_hal_dma.c ****   }
 542:Drivers/STM32C0xx_HAL_Driver/Src/stm32c0xx_hal_dma.c ****   else
 543:Drivers/STM32C0xx_HAL_Driver/Src/stm32c0xx_hal_dma.c ****   {
 544:Drivers/STM32C0xx_HAL_Driver/Src/stm32c0xx_hal_dma.c ****     /* Disable DMA IT */
 545:Drivers/STM32C0xx_HAL_Driver/Src/stm32c0xx_hal_dma.c ****     __HAL_DMA_DISABLE_IT(hdma, (DMA_IT_TC | DMA_IT_HT | DMA_IT_TE));
ARM GAS  C:\Users\simay\AppData\Local\Temp\cc43TqXJ.s 			page 11


 546:Drivers/STM32C0xx_HAL_Driver/Src/stm32c0xx_hal_dma.c **** 
 547:Drivers/STM32C0xx_HAL_Driver/Src/stm32c0xx_hal_dma.c ****     /* Disable the channel */
 548:Drivers/STM32C0xx_HAL_Driver/Src/stm32c0xx_hal_dma.c ****     __HAL_DMA_DISABLE(hdma);
 549:Drivers/STM32C0xx_HAL_Driver/Src/stm32c0xx_hal_dma.c **** 
 550:Drivers/STM32C0xx_HAL_Driver/Src/stm32c0xx_hal_dma.c ****     /* disable the DMAMUX sync overrun IT*/
 551:Drivers/STM32C0xx_HAL_Driver/Src/stm32c0xx_hal_dma.c ****     hdma->DMAmuxChannel->CCR &= ~DMAMUX_CxCR_SOIE;
 552:Drivers/STM32C0xx_HAL_Driver/Src/stm32c0xx_hal_dma.c **** 
 553:Drivers/STM32C0xx_HAL_Driver/Src/stm32c0xx_hal_dma.c ****     /* Clear all flags */
 554:Drivers/STM32C0xx_HAL_Driver/Src/stm32c0xx_hal_dma.c ****     __HAL_DMA_CLEAR_FLAG(hdma, ((DMA_FLAG_GI1) << (hdma->ChannelIndex & 0x1cU)));
 555:Drivers/STM32C0xx_HAL_Driver/Src/stm32c0xx_hal_dma.c **** 
 556:Drivers/STM32C0xx_HAL_Driver/Src/stm32c0xx_hal_dma.c ****     /* Clear the DMAMUX synchro overrun flag */
 557:Drivers/STM32C0xx_HAL_Driver/Src/stm32c0xx_hal_dma.c ****     hdma->DMAmuxChannelStatus->CFR = hdma->DMAmuxChannelStatusMask;
 558:Drivers/STM32C0xx_HAL_Driver/Src/stm32c0xx_hal_dma.c **** 
 559:Drivers/STM32C0xx_HAL_Driver/Src/stm32c0xx_hal_dma.c ****     if (hdma->DMAmuxRequestGen != 0U)
 560:Drivers/STM32C0xx_HAL_Driver/Src/stm32c0xx_hal_dma.c ****     {
 561:Drivers/STM32C0xx_HAL_Driver/Src/stm32c0xx_hal_dma.c ****       /* if using DMAMUX request generator, disable the DMAMUX request generator overrun IT*/
 562:Drivers/STM32C0xx_HAL_Driver/Src/stm32c0xx_hal_dma.c ****       /* disable the request gen overrun IT*/
 563:Drivers/STM32C0xx_HAL_Driver/Src/stm32c0xx_hal_dma.c ****       hdma->DMAmuxRequestGen->RGCR &= ~DMAMUX_RGxCR_OIE;
 564:Drivers/STM32C0xx_HAL_Driver/Src/stm32c0xx_hal_dma.c **** 
 565:Drivers/STM32C0xx_HAL_Driver/Src/stm32c0xx_hal_dma.c ****       /* Clear the DMAMUX request generator overrun flag */
 566:Drivers/STM32C0xx_HAL_Driver/Src/stm32c0xx_hal_dma.c ****       hdma->DMAmuxRequestGenStatus->RGCFR = hdma->DMAmuxRequestGenStatusMask;
 567:Drivers/STM32C0xx_HAL_Driver/Src/stm32c0xx_hal_dma.c ****     }
 568:Drivers/STM32C0xx_HAL_Driver/Src/stm32c0xx_hal_dma.c **** 
 569:Drivers/STM32C0xx_HAL_Driver/Src/stm32c0xx_hal_dma.c ****     /* Change the DMA state */
 570:Drivers/STM32C0xx_HAL_Driver/Src/stm32c0xx_hal_dma.c ****     hdma->State = HAL_DMA_STATE_READY;
 571:Drivers/STM32C0xx_HAL_Driver/Src/stm32c0xx_hal_dma.c **** 
 572:Drivers/STM32C0xx_HAL_Driver/Src/stm32c0xx_hal_dma.c ****     /* Process Unlocked */
 573:Drivers/STM32C0xx_HAL_Driver/Src/stm32c0xx_hal_dma.c ****     __HAL_UNLOCK(hdma);
 574:Drivers/STM32C0xx_HAL_Driver/Src/stm32c0xx_hal_dma.c **** 
 575:Drivers/STM32C0xx_HAL_Driver/Src/stm32c0xx_hal_dma.c ****     /* Call User Abort callback */
 576:Drivers/STM32C0xx_HAL_Driver/Src/stm32c0xx_hal_dma.c ****     if (hdma->XferAbortCallback != NULL)
 577:Drivers/STM32C0xx_HAL_Driver/Src/stm32c0xx_hal_dma.c ****     {
 578:Drivers/STM32C0xx_HAL_Driver/Src/stm32c0xx_hal_dma.c ****       hdma->XferAbortCallback(hdma);
 579:Drivers/STM32C0xx_HAL_Driver/Src/stm32c0xx_hal_dma.c ****     }
 580:Drivers/STM32C0xx_HAL_Driver/Src/stm32c0xx_hal_dma.c ****   }
 581:Drivers/STM32C0xx_HAL_Driver/Src/stm32c0xx_hal_dma.c ****   return status;
 582:Drivers/STM32C0xx_HAL_Driver/Src/stm32c0xx_hal_dma.c **** }
 583:Drivers/STM32C0xx_HAL_Driver/Src/stm32c0xx_hal_dma.c **** 
 584:Drivers/STM32C0xx_HAL_Driver/Src/stm32c0xx_hal_dma.c **** /**
 585:Drivers/STM32C0xx_HAL_Driver/Src/stm32c0xx_hal_dma.c ****   * @brief  Polling for transfer complete.
 586:Drivers/STM32C0xx_HAL_Driver/Src/stm32c0xx_hal_dma.c ****   * @param hdma Pointer to a DMA_HandleTypeDef structure that contains
 587:Drivers/STM32C0xx_HAL_Driver/Src/stm32c0xx_hal_dma.c ****   *                  the configuration information for the specified DMA Channel.
 588:Drivers/STM32C0xx_HAL_Driver/Src/stm32c0xx_hal_dma.c ****   * @param CompleteLevel Specifies the DMA level complete.
 589:Drivers/STM32C0xx_HAL_Driver/Src/stm32c0xx_hal_dma.c ****   * @param Timeout Timeout duration.
 590:Drivers/STM32C0xx_HAL_Driver/Src/stm32c0xx_hal_dma.c ****   * @retval HAL status
 591:Drivers/STM32C0xx_HAL_Driver/Src/stm32c0xx_hal_dma.c ****   */
 592:Drivers/STM32C0xx_HAL_Driver/Src/stm32c0xx_hal_dma.c **** HAL_StatusTypeDef HAL_DMA_PollForTransfer(DMA_HandleTypeDef *hdma, HAL_DMA_LevelCompleteTypeDef Com
 593:Drivers/STM32C0xx_HAL_Driver/Src/stm32c0xx_hal_dma.c ****                                           uint32_t Timeout)
 594:Drivers/STM32C0xx_HAL_Driver/Src/stm32c0xx_hal_dma.c **** {
 595:Drivers/STM32C0xx_HAL_Driver/Src/stm32c0xx_hal_dma.c ****   uint32_t temp;
 596:Drivers/STM32C0xx_HAL_Driver/Src/stm32c0xx_hal_dma.c ****   uint32_t tickstart;
 597:Drivers/STM32C0xx_HAL_Driver/Src/stm32c0xx_hal_dma.c **** 
 598:Drivers/STM32C0xx_HAL_Driver/Src/stm32c0xx_hal_dma.c ****   /* Process unlocked */
 599:Drivers/STM32C0xx_HAL_Driver/Src/stm32c0xx_hal_dma.c ****   __HAL_UNLOCK(hdma);
 600:Drivers/STM32C0xx_HAL_Driver/Src/stm32c0xx_hal_dma.c **** 
 601:Drivers/STM32C0xx_HAL_Driver/Src/stm32c0xx_hal_dma.c ****   if (HAL_DMA_STATE_BUSY != hdma->State)
 602:Drivers/STM32C0xx_HAL_Driver/Src/stm32c0xx_hal_dma.c ****   {
ARM GAS  C:\Users\simay\AppData\Local\Temp\cc43TqXJ.s 			page 12


 603:Drivers/STM32C0xx_HAL_Driver/Src/stm32c0xx_hal_dma.c ****     /* no transfer ongoing */
 604:Drivers/STM32C0xx_HAL_Driver/Src/stm32c0xx_hal_dma.c ****     hdma->ErrorCode = HAL_DMA_ERROR_NO_XFER;
 605:Drivers/STM32C0xx_HAL_Driver/Src/stm32c0xx_hal_dma.c ****     __HAL_UNLOCK(hdma);
 606:Drivers/STM32C0xx_HAL_Driver/Src/stm32c0xx_hal_dma.c ****     return HAL_ERROR;
 607:Drivers/STM32C0xx_HAL_Driver/Src/stm32c0xx_hal_dma.c ****   }
 608:Drivers/STM32C0xx_HAL_Driver/Src/stm32c0xx_hal_dma.c **** 
 609:Drivers/STM32C0xx_HAL_Driver/Src/stm32c0xx_hal_dma.c ****   /* Polling mode not supported in circular mode */
 610:Drivers/STM32C0xx_HAL_Driver/Src/stm32c0xx_hal_dma.c ****   if ((hdma->Instance->CCR & DMA_CCR_CIRC) != 0U)
 611:Drivers/STM32C0xx_HAL_Driver/Src/stm32c0xx_hal_dma.c ****   {
 612:Drivers/STM32C0xx_HAL_Driver/Src/stm32c0xx_hal_dma.c ****     hdma->ErrorCode = HAL_DMA_ERROR_NOT_SUPPORTED;
 613:Drivers/STM32C0xx_HAL_Driver/Src/stm32c0xx_hal_dma.c ****     return HAL_ERROR;
 614:Drivers/STM32C0xx_HAL_Driver/Src/stm32c0xx_hal_dma.c ****   }
 615:Drivers/STM32C0xx_HAL_Driver/Src/stm32c0xx_hal_dma.c **** 
 616:Drivers/STM32C0xx_HAL_Driver/Src/stm32c0xx_hal_dma.c ****   /* Get the level transfer complete flag */
 617:Drivers/STM32C0xx_HAL_Driver/Src/stm32c0xx_hal_dma.c ****   if (HAL_DMA_FULL_TRANSFER == CompleteLevel)
 618:Drivers/STM32C0xx_HAL_Driver/Src/stm32c0xx_hal_dma.c ****   {
 619:Drivers/STM32C0xx_HAL_Driver/Src/stm32c0xx_hal_dma.c ****     /* Transfer Complete flag */
 620:Drivers/STM32C0xx_HAL_Driver/Src/stm32c0xx_hal_dma.c ****     temp = DMA_FLAG_TC1 << (hdma->ChannelIndex & 0x1cU);
 621:Drivers/STM32C0xx_HAL_Driver/Src/stm32c0xx_hal_dma.c ****   }
 622:Drivers/STM32C0xx_HAL_Driver/Src/stm32c0xx_hal_dma.c ****   else
 623:Drivers/STM32C0xx_HAL_Driver/Src/stm32c0xx_hal_dma.c ****   {
 624:Drivers/STM32C0xx_HAL_Driver/Src/stm32c0xx_hal_dma.c ****     /* Half Transfer Complete flag */
 625:Drivers/STM32C0xx_HAL_Driver/Src/stm32c0xx_hal_dma.c ****     temp = DMA_FLAG_HT1 << (hdma->ChannelIndex  & 0x1cU);
 626:Drivers/STM32C0xx_HAL_Driver/Src/stm32c0xx_hal_dma.c ****   }
 627:Drivers/STM32C0xx_HAL_Driver/Src/stm32c0xx_hal_dma.c **** 
 628:Drivers/STM32C0xx_HAL_Driver/Src/stm32c0xx_hal_dma.c ****   /* Get tick */
 629:Drivers/STM32C0xx_HAL_Driver/Src/stm32c0xx_hal_dma.c ****   tickstart = HAL_GetTick();
 630:Drivers/STM32C0xx_HAL_Driver/Src/stm32c0xx_hal_dma.c **** 
 631:Drivers/STM32C0xx_HAL_Driver/Src/stm32c0xx_hal_dma.c ****   while (0U == __HAL_DMA_GET_FLAG(hdma, temp))
 632:Drivers/STM32C0xx_HAL_Driver/Src/stm32c0xx_hal_dma.c ****   {
 633:Drivers/STM32C0xx_HAL_Driver/Src/stm32c0xx_hal_dma.c ****     if (0U != __HAL_DMA_GET_FLAG(hdma, (DMA_FLAG_TE1 << (hdma->ChannelIndex & 0x1cU))))
 634:Drivers/STM32C0xx_HAL_Driver/Src/stm32c0xx_hal_dma.c ****     {
 635:Drivers/STM32C0xx_HAL_Driver/Src/stm32c0xx_hal_dma.c ****       /* When a DMA transfer error occurs */
 636:Drivers/STM32C0xx_HAL_Driver/Src/stm32c0xx_hal_dma.c ****       /* A hardware clear of its EN bits is performed */
 637:Drivers/STM32C0xx_HAL_Driver/Src/stm32c0xx_hal_dma.c ****       /* Clear all flags */
 638:Drivers/STM32C0xx_HAL_Driver/Src/stm32c0xx_hal_dma.c ****       __HAL_DMA_CLEAR_FLAG(hdma, ((DMA_FLAG_GI1) << (hdma->ChannelIndex & 0x1cU)));
 639:Drivers/STM32C0xx_HAL_Driver/Src/stm32c0xx_hal_dma.c **** 
 640:Drivers/STM32C0xx_HAL_Driver/Src/stm32c0xx_hal_dma.c ****       /* Update error code */
 641:Drivers/STM32C0xx_HAL_Driver/Src/stm32c0xx_hal_dma.c ****       hdma->ErrorCode = HAL_DMA_ERROR_TE;
 642:Drivers/STM32C0xx_HAL_Driver/Src/stm32c0xx_hal_dma.c **** 
 643:Drivers/STM32C0xx_HAL_Driver/Src/stm32c0xx_hal_dma.c ****       /* Change the DMA state */
 644:Drivers/STM32C0xx_HAL_Driver/Src/stm32c0xx_hal_dma.c ****       hdma->State = HAL_DMA_STATE_READY;
 645:Drivers/STM32C0xx_HAL_Driver/Src/stm32c0xx_hal_dma.c **** 
 646:Drivers/STM32C0xx_HAL_Driver/Src/stm32c0xx_hal_dma.c ****       /* Process Unlocked */
 647:Drivers/STM32C0xx_HAL_Driver/Src/stm32c0xx_hal_dma.c ****       __HAL_UNLOCK(hdma);
 648:Drivers/STM32C0xx_HAL_Driver/Src/stm32c0xx_hal_dma.c **** 
 649:Drivers/STM32C0xx_HAL_Driver/Src/stm32c0xx_hal_dma.c ****       return HAL_ERROR;
 650:Drivers/STM32C0xx_HAL_Driver/Src/stm32c0xx_hal_dma.c ****     }
 651:Drivers/STM32C0xx_HAL_Driver/Src/stm32c0xx_hal_dma.c ****     /* Check for the Timeout */
 652:Drivers/STM32C0xx_HAL_Driver/Src/stm32c0xx_hal_dma.c ****     if (Timeout != HAL_MAX_DELAY)
 653:Drivers/STM32C0xx_HAL_Driver/Src/stm32c0xx_hal_dma.c ****     {
 654:Drivers/STM32C0xx_HAL_Driver/Src/stm32c0xx_hal_dma.c ****       if (((HAL_GetTick() - tickstart) > Timeout) || (Timeout == 0U))
 655:Drivers/STM32C0xx_HAL_Driver/Src/stm32c0xx_hal_dma.c ****       {
 656:Drivers/STM32C0xx_HAL_Driver/Src/stm32c0xx_hal_dma.c ****         /* Update error code */
 657:Drivers/STM32C0xx_HAL_Driver/Src/stm32c0xx_hal_dma.c ****         hdma->ErrorCode = HAL_DMA_ERROR_TIMEOUT;
 658:Drivers/STM32C0xx_HAL_Driver/Src/stm32c0xx_hal_dma.c **** 
 659:Drivers/STM32C0xx_HAL_Driver/Src/stm32c0xx_hal_dma.c ****         /* Change the DMA state */
ARM GAS  C:\Users\simay\AppData\Local\Temp\cc43TqXJ.s 			page 13


 660:Drivers/STM32C0xx_HAL_Driver/Src/stm32c0xx_hal_dma.c ****         hdma->State = HAL_DMA_STATE_READY;
 661:Drivers/STM32C0xx_HAL_Driver/Src/stm32c0xx_hal_dma.c **** 
 662:Drivers/STM32C0xx_HAL_Driver/Src/stm32c0xx_hal_dma.c ****         /* Process Unlocked */
 663:Drivers/STM32C0xx_HAL_Driver/Src/stm32c0xx_hal_dma.c ****         __HAL_UNLOCK(hdma);
 664:Drivers/STM32C0xx_HAL_Driver/Src/stm32c0xx_hal_dma.c **** 
 665:Drivers/STM32C0xx_HAL_Driver/Src/stm32c0xx_hal_dma.c ****         return HAL_ERROR;
 666:Drivers/STM32C0xx_HAL_Driver/Src/stm32c0xx_hal_dma.c ****       }
 667:Drivers/STM32C0xx_HAL_Driver/Src/stm32c0xx_hal_dma.c ****     }
 668:Drivers/STM32C0xx_HAL_Driver/Src/stm32c0xx_hal_dma.c ****   }
 669:Drivers/STM32C0xx_HAL_Driver/Src/stm32c0xx_hal_dma.c **** 
 670:Drivers/STM32C0xx_HAL_Driver/Src/stm32c0xx_hal_dma.c ****   /*Check for DMAMUX Request generator (if used) overrun status */
 671:Drivers/STM32C0xx_HAL_Driver/Src/stm32c0xx_hal_dma.c ****   if (hdma->DMAmuxRequestGen != 0U)
 672:Drivers/STM32C0xx_HAL_Driver/Src/stm32c0xx_hal_dma.c ****   {
 673:Drivers/STM32C0xx_HAL_Driver/Src/stm32c0xx_hal_dma.c ****     /* if using DMAMUX request generator Check for DMAMUX request generator overrun */
 674:Drivers/STM32C0xx_HAL_Driver/Src/stm32c0xx_hal_dma.c ****     if ((hdma->DMAmuxRequestGenStatus->RGSR & hdma->DMAmuxRequestGenStatusMask) != 0U)
 675:Drivers/STM32C0xx_HAL_Driver/Src/stm32c0xx_hal_dma.c ****     {
 676:Drivers/STM32C0xx_HAL_Driver/Src/stm32c0xx_hal_dma.c ****       /* Disable the request gen overrun interrupt */
 677:Drivers/STM32C0xx_HAL_Driver/Src/stm32c0xx_hal_dma.c ****       hdma->DMAmuxRequestGen->RGCR |= DMAMUX_RGxCR_OIE;
 678:Drivers/STM32C0xx_HAL_Driver/Src/stm32c0xx_hal_dma.c **** 
 679:Drivers/STM32C0xx_HAL_Driver/Src/stm32c0xx_hal_dma.c ****       /* Clear the DMAMUX request generator overrun flag */
 680:Drivers/STM32C0xx_HAL_Driver/Src/stm32c0xx_hal_dma.c ****       hdma->DMAmuxRequestGenStatus->RGCFR = hdma->DMAmuxRequestGenStatusMask;
 681:Drivers/STM32C0xx_HAL_Driver/Src/stm32c0xx_hal_dma.c **** 
 682:Drivers/STM32C0xx_HAL_Driver/Src/stm32c0xx_hal_dma.c ****       /* Update error code */
 683:Drivers/STM32C0xx_HAL_Driver/Src/stm32c0xx_hal_dma.c ****       hdma->ErrorCode |= HAL_DMA_ERROR_REQGEN;
 684:Drivers/STM32C0xx_HAL_Driver/Src/stm32c0xx_hal_dma.c ****     }
 685:Drivers/STM32C0xx_HAL_Driver/Src/stm32c0xx_hal_dma.c ****   }
 686:Drivers/STM32C0xx_HAL_Driver/Src/stm32c0xx_hal_dma.c **** 
 687:Drivers/STM32C0xx_HAL_Driver/Src/stm32c0xx_hal_dma.c ****   /* Check for DMAMUX Synchronization overrun */
 688:Drivers/STM32C0xx_HAL_Driver/Src/stm32c0xx_hal_dma.c ****   if ((hdma->DMAmuxChannelStatus->CSR & hdma->DMAmuxChannelStatusMask) != 0U)
 689:Drivers/STM32C0xx_HAL_Driver/Src/stm32c0xx_hal_dma.c ****   {
 690:Drivers/STM32C0xx_HAL_Driver/Src/stm32c0xx_hal_dma.c ****     /* Clear the DMAMUX synchro overrun flag */
 691:Drivers/STM32C0xx_HAL_Driver/Src/stm32c0xx_hal_dma.c ****     hdma->DMAmuxChannelStatus->CFR = hdma->DMAmuxChannelStatusMask;
 692:Drivers/STM32C0xx_HAL_Driver/Src/stm32c0xx_hal_dma.c **** 
 693:Drivers/STM32C0xx_HAL_Driver/Src/stm32c0xx_hal_dma.c ****     /* Update error code */
 694:Drivers/STM32C0xx_HAL_Driver/Src/stm32c0xx_hal_dma.c ****     hdma->ErrorCode |= HAL_DMA_ERROR_SYNC;
 695:Drivers/STM32C0xx_HAL_Driver/Src/stm32c0xx_hal_dma.c ****   }
 696:Drivers/STM32C0xx_HAL_Driver/Src/stm32c0xx_hal_dma.c **** 
 697:Drivers/STM32C0xx_HAL_Driver/Src/stm32c0xx_hal_dma.c ****   if (HAL_DMA_FULL_TRANSFER == CompleteLevel)
 698:Drivers/STM32C0xx_HAL_Driver/Src/stm32c0xx_hal_dma.c ****   {
 699:Drivers/STM32C0xx_HAL_Driver/Src/stm32c0xx_hal_dma.c ****     /* Clear the transfer complete flag */
 700:Drivers/STM32C0xx_HAL_Driver/Src/stm32c0xx_hal_dma.c ****     __HAL_DMA_CLEAR_FLAG(hdma, (DMA_FLAG_TC1 << (hdma->ChannelIndex & 0x1cU)));
 701:Drivers/STM32C0xx_HAL_Driver/Src/stm32c0xx_hal_dma.c **** 
 702:Drivers/STM32C0xx_HAL_Driver/Src/stm32c0xx_hal_dma.c ****     /* The selected Channelx EN bit is cleared (DMA is disabled and
 703:Drivers/STM32C0xx_HAL_Driver/Src/stm32c0xx_hal_dma.c ****     all transfers are complete) */
 704:Drivers/STM32C0xx_HAL_Driver/Src/stm32c0xx_hal_dma.c ****     hdma->State = HAL_DMA_STATE_READY;
 705:Drivers/STM32C0xx_HAL_Driver/Src/stm32c0xx_hal_dma.c ****   }
 706:Drivers/STM32C0xx_HAL_Driver/Src/stm32c0xx_hal_dma.c ****   else
 707:Drivers/STM32C0xx_HAL_Driver/Src/stm32c0xx_hal_dma.c ****   {
 708:Drivers/STM32C0xx_HAL_Driver/Src/stm32c0xx_hal_dma.c ****     /* Clear the half transfer complete flag */
 709:Drivers/STM32C0xx_HAL_Driver/Src/stm32c0xx_hal_dma.c ****     __HAL_DMA_CLEAR_FLAG(hdma, (DMA_FLAG_HT1 << (hdma->ChannelIndex & 0x1cU)));
 710:Drivers/STM32C0xx_HAL_Driver/Src/stm32c0xx_hal_dma.c ****   }
 711:Drivers/STM32C0xx_HAL_Driver/Src/stm32c0xx_hal_dma.c **** 
 712:Drivers/STM32C0xx_HAL_Driver/Src/stm32c0xx_hal_dma.c ****   /* Process unlocked */
 713:Drivers/STM32C0xx_HAL_Driver/Src/stm32c0xx_hal_dma.c ****   __HAL_UNLOCK(hdma);
 714:Drivers/STM32C0xx_HAL_Driver/Src/stm32c0xx_hal_dma.c **** 
 715:Drivers/STM32C0xx_HAL_Driver/Src/stm32c0xx_hal_dma.c ****   return HAL_OK;
 716:Drivers/STM32C0xx_HAL_Driver/Src/stm32c0xx_hal_dma.c **** }
ARM GAS  C:\Users\simay\AppData\Local\Temp\cc43TqXJ.s 			page 14


 717:Drivers/STM32C0xx_HAL_Driver/Src/stm32c0xx_hal_dma.c **** 
 718:Drivers/STM32C0xx_HAL_Driver/Src/stm32c0xx_hal_dma.c **** /**
 719:Drivers/STM32C0xx_HAL_Driver/Src/stm32c0xx_hal_dma.c ****   * @brief  Handle DMA interrupt request.
 720:Drivers/STM32C0xx_HAL_Driver/Src/stm32c0xx_hal_dma.c ****   * @param  hdma: pointer to a DMA_HandleTypeDef structure that contains
 721:Drivers/STM32C0xx_HAL_Driver/Src/stm32c0xx_hal_dma.c ****   *               the configuration information for the specified DMA Channel.
 722:Drivers/STM32C0xx_HAL_Driver/Src/stm32c0xx_hal_dma.c ****   * @retval None
 723:Drivers/STM32C0xx_HAL_Driver/Src/stm32c0xx_hal_dma.c ****   */
 724:Drivers/STM32C0xx_HAL_Driver/Src/stm32c0xx_hal_dma.c **** void HAL_DMA_IRQHandler(DMA_HandleTypeDef *hdma)
 725:Drivers/STM32C0xx_HAL_Driver/Src/stm32c0xx_hal_dma.c **** {
 726:Drivers/STM32C0xx_HAL_Driver/Src/stm32c0xx_hal_dma.c ****   uint32_t flag_it = DMA1->ISR;
 727:Drivers/STM32C0xx_HAL_Driver/Src/stm32c0xx_hal_dma.c ****   uint32_t source_it = hdma->Instance->CCR;
 728:Drivers/STM32C0xx_HAL_Driver/Src/stm32c0xx_hal_dma.c **** 
 729:Drivers/STM32C0xx_HAL_Driver/Src/stm32c0xx_hal_dma.c ****   /* Half Transfer Complete Interrupt management ******************************/
 730:Drivers/STM32C0xx_HAL_Driver/Src/stm32c0xx_hal_dma.c ****   if (((flag_it & (DMA_FLAG_HT1 << (hdma->ChannelIndex & 0x1cU))) != 0U) && ((source_it & DMA_IT_HT
 731:Drivers/STM32C0xx_HAL_Driver/Src/stm32c0xx_hal_dma.c ****   {
 732:Drivers/STM32C0xx_HAL_Driver/Src/stm32c0xx_hal_dma.c ****     /* Disable the half transfer interrupt if the DMA mode is not CIRCULAR */
 733:Drivers/STM32C0xx_HAL_Driver/Src/stm32c0xx_hal_dma.c ****     if ((hdma->Instance->CCR & DMA_CCR_CIRC) == 0U)
 734:Drivers/STM32C0xx_HAL_Driver/Src/stm32c0xx_hal_dma.c ****     {
 735:Drivers/STM32C0xx_HAL_Driver/Src/stm32c0xx_hal_dma.c ****       /* Disable the half transfer interrupt */
 736:Drivers/STM32C0xx_HAL_Driver/Src/stm32c0xx_hal_dma.c ****       __HAL_DMA_DISABLE_IT(hdma, DMA_IT_HT);
 737:Drivers/STM32C0xx_HAL_Driver/Src/stm32c0xx_hal_dma.c ****     }
 738:Drivers/STM32C0xx_HAL_Driver/Src/stm32c0xx_hal_dma.c ****     /* Clear the half transfer complete flag */
 739:Drivers/STM32C0xx_HAL_Driver/Src/stm32c0xx_hal_dma.c ****     __HAL_DMA_CLEAR_FLAG(hdma, (DMA_FLAG_HT1 << (hdma->ChannelIndex & 0x1cU)));
 740:Drivers/STM32C0xx_HAL_Driver/Src/stm32c0xx_hal_dma.c **** 
 741:Drivers/STM32C0xx_HAL_Driver/Src/stm32c0xx_hal_dma.c ****     /* DMA peripheral state is not updated in Half Transfer */
 742:Drivers/STM32C0xx_HAL_Driver/Src/stm32c0xx_hal_dma.c ****     /* but in Transfer Complete case */
 743:Drivers/STM32C0xx_HAL_Driver/Src/stm32c0xx_hal_dma.c **** 
 744:Drivers/STM32C0xx_HAL_Driver/Src/stm32c0xx_hal_dma.c ****     if (hdma->XferHalfCpltCallback != NULL)
 745:Drivers/STM32C0xx_HAL_Driver/Src/stm32c0xx_hal_dma.c ****     {
 746:Drivers/STM32C0xx_HAL_Driver/Src/stm32c0xx_hal_dma.c ****       /* Half transfer callback */
 747:Drivers/STM32C0xx_HAL_Driver/Src/stm32c0xx_hal_dma.c ****       hdma->XferHalfCpltCallback(hdma);
 748:Drivers/STM32C0xx_HAL_Driver/Src/stm32c0xx_hal_dma.c ****     }
 749:Drivers/STM32C0xx_HAL_Driver/Src/stm32c0xx_hal_dma.c ****   }
 750:Drivers/STM32C0xx_HAL_Driver/Src/stm32c0xx_hal_dma.c **** 
 751:Drivers/STM32C0xx_HAL_Driver/Src/stm32c0xx_hal_dma.c ****   /* Transfer Complete Interrupt management ***********************************/
 752:Drivers/STM32C0xx_HAL_Driver/Src/stm32c0xx_hal_dma.c ****   else if ((0U != (flag_it & (DMA_FLAG_TC1 << (hdma->ChannelIndex & 0x1cU)))) && (0U != (source_it 
 753:Drivers/STM32C0xx_HAL_Driver/Src/stm32c0xx_hal_dma.c ****   {
 754:Drivers/STM32C0xx_HAL_Driver/Src/stm32c0xx_hal_dma.c ****     if ((hdma->Instance->CCR & DMA_CCR_CIRC) == 0U)
 755:Drivers/STM32C0xx_HAL_Driver/Src/stm32c0xx_hal_dma.c ****     {
 756:Drivers/STM32C0xx_HAL_Driver/Src/stm32c0xx_hal_dma.c ****       /* Disable the transfer complete and error interrupt */
 757:Drivers/STM32C0xx_HAL_Driver/Src/stm32c0xx_hal_dma.c ****       __HAL_DMA_DISABLE_IT(hdma, DMA_IT_TE | DMA_IT_TC);
 758:Drivers/STM32C0xx_HAL_Driver/Src/stm32c0xx_hal_dma.c **** 
 759:Drivers/STM32C0xx_HAL_Driver/Src/stm32c0xx_hal_dma.c ****       /* Change the DMA state */
 760:Drivers/STM32C0xx_HAL_Driver/Src/stm32c0xx_hal_dma.c ****       hdma->State = HAL_DMA_STATE_READY;
 761:Drivers/STM32C0xx_HAL_Driver/Src/stm32c0xx_hal_dma.c ****     }
 762:Drivers/STM32C0xx_HAL_Driver/Src/stm32c0xx_hal_dma.c ****     /* Clear the transfer complete flag */
 763:Drivers/STM32C0xx_HAL_Driver/Src/stm32c0xx_hal_dma.c ****     __HAL_DMA_CLEAR_FLAG(hdma, (DMA_FLAG_TC1 << (hdma->ChannelIndex & 0x1cU)));
 764:Drivers/STM32C0xx_HAL_Driver/Src/stm32c0xx_hal_dma.c **** 
 765:Drivers/STM32C0xx_HAL_Driver/Src/stm32c0xx_hal_dma.c ****     /* Process Unlocked */
 766:Drivers/STM32C0xx_HAL_Driver/Src/stm32c0xx_hal_dma.c ****     __HAL_UNLOCK(hdma);
 767:Drivers/STM32C0xx_HAL_Driver/Src/stm32c0xx_hal_dma.c **** 
 768:Drivers/STM32C0xx_HAL_Driver/Src/stm32c0xx_hal_dma.c ****     if (hdma->XferCpltCallback != NULL)
 769:Drivers/STM32C0xx_HAL_Driver/Src/stm32c0xx_hal_dma.c ****     {
 770:Drivers/STM32C0xx_HAL_Driver/Src/stm32c0xx_hal_dma.c ****       /* Transfer complete callback */
 771:Drivers/STM32C0xx_HAL_Driver/Src/stm32c0xx_hal_dma.c ****       hdma->XferCpltCallback(hdma);
 772:Drivers/STM32C0xx_HAL_Driver/Src/stm32c0xx_hal_dma.c ****     }
 773:Drivers/STM32C0xx_HAL_Driver/Src/stm32c0xx_hal_dma.c ****   }
ARM GAS  C:\Users\simay\AppData\Local\Temp\cc43TqXJ.s 			page 15


 774:Drivers/STM32C0xx_HAL_Driver/Src/stm32c0xx_hal_dma.c **** 
 775:Drivers/STM32C0xx_HAL_Driver/Src/stm32c0xx_hal_dma.c ****   /* Transfer Error Interrupt management **************************************/
 776:Drivers/STM32C0xx_HAL_Driver/Src/stm32c0xx_hal_dma.c ****   else if (((flag_it & (DMA_FLAG_TE1 << (hdma->ChannelIndex & 0x1cU))) != 0U) && ((source_it & DMA_
 777:Drivers/STM32C0xx_HAL_Driver/Src/stm32c0xx_hal_dma.c ****   {
 778:Drivers/STM32C0xx_HAL_Driver/Src/stm32c0xx_hal_dma.c ****     /* When a DMA transfer error occurs */
 779:Drivers/STM32C0xx_HAL_Driver/Src/stm32c0xx_hal_dma.c ****     /* A hardware clear of its EN bits is performed */
 780:Drivers/STM32C0xx_HAL_Driver/Src/stm32c0xx_hal_dma.c ****     /* Disable ALL DMA IT */
 781:Drivers/STM32C0xx_HAL_Driver/Src/stm32c0xx_hal_dma.c ****     __HAL_DMA_DISABLE_IT(hdma, (DMA_IT_TC | DMA_IT_HT | DMA_IT_TE));
 782:Drivers/STM32C0xx_HAL_Driver/Src/stm32c0xx_hal_dma.c **** 
 783:Drivers/STM32C0xx_HAL_Driver/Src/stm32c0xx_hal_dma.c ****     /* Clear all flags */
 784:Drivers/STM32C0xx_HAL_Driver/Src/stm32c0xx_hal_dma.c ****     __HAL_DMA_CLEAR_FLAG(hdma, (DMA_FLAG_GI1 << (hdma->ChannelIndex & 0x1cU)));
 785:Drivers/STM32C0xx_HAL_Driver/Src/stm32c0xx_hal_dma.c **** 
 786:Drivers/STM32C0xx_HAL_Driver/Src/stm32c0xx_hal_dma.c ****     /* Update error code */
 787:Drivers/STM32C0xx_HAL_Driver/Src/stm32c0xx_hal_dma.c ****     hdma->ErrorCode = HAL_DMA_ERROR_TE;
 788:Drivers/STM32C0xx_HAL_Driver/Src/stm32c0xx_hal_dma.c **** 
 789:Drivers/STM32C0xx_HAL_Driver/Src/stm32c0xx_hal_dma.c ****     /* Change the DMA state */
 790:Drivers/STM32C0xx_HAL_Driver/Src/stm32c0xx_hal_dma.c ****     hdma->State = HAL_DMA_STATE_READY;
 791:Drivers/STM32C0xx_HAL_Driver/Src/stm32c0xx_hal_dma.c **** 
 792:Drivers/STM32C0xx_HAL_Driver/Src/stm32c0xx_hal_dma.c ****     /* Process Unlocked */
 793:Drivers/STM32C0xx_HAL_Driver/Src/stm32c0xx_hal_dma.c ****     __HAL_UNLOCK(hdma);
 794:Drivers/STM32C0xx_HAL_Driver/Src/stm32c0xx_hal_dma.c **** 
 795:Drivers/STM32C0xx_HAL_Driver/Src/stm32c0xx_hal_dma.c ****     if (hdma->XferErrorCallback != NULL)
 796:Drivers/STM32C0xx_HAL_Driver/Src/stm32c0xx_hal_dma.c ****     {
 797:Drivers/STM32C0xx_HAL_Driver/Src/stm32c0xx_hal_dma.c ****       /* Transfer error callback */
 798:Drivers/STM32C0xx_HAL_Driver/Src/stm32c0xx_hal_dma.c ****       hdma->XferErrorCallback(hdma);
 799:Drivers/STM32C0xx_HAL_Driver/Src/stm32c0xx_hal_dma.c ****     }
 800:Drivers/STM32C0xx_HAL_Driver/Src/stm32c0xx_hal_dma.c ****   }
 801:Drivers/STM32C0xx_HAL_Driver/Src/stm32c0xx_hal_dma.c ****   else
 802:Drivers/STM32C0xx_HAL_Driver/Src/stm32c0xx_hal_dma.c ****   {
 803:Drivers/STM32C0xx_HAL_Driver/Src/stm32c0xx_hal_dma.c ****     /* Nothing To Do */
 804:Drivers/STM32C0xx_HAL_Driver/Src/stm32c0xx_hal_dma.c ****   }
 805:Drivers/STM32C0xx_HAL_Driver/Src/stm32c0xx_hal_dma.c ****   return;
 806:Drivers/STM32C0xx_HAL_Driver/Src/stm32c0xx_hal_dma.c **** }
 807:Drivers/STM32C0xx_HAL_Driver/Src/stm32c0xx_hal_dma.c **** 
 808:Drivers/STM32C0xx_HAL_Driver/Src/stm32c0xx_hal_dma.c **** /**
 809:Drivers/STM32C0xx_HAL_Driver/Src/stm32c0xx_hal_dma.c ****   * @brief  Register callbacks
 810:Drivers/STM32C0xx_HAL_Driver/Src/stm32c0xx_hal_dma.c ****   * @param  hdma                  pointer to a DMA_HandleTypeDef structure that contains
 811:Drivers/STM32C0xx_HAL_Driver/Src/stm32c0xx_hal_dma.c ****   *                               the configuration information for the specified DMA Stream.
 812:Drivers/STM32C0xx_HAL_Driver/Src/stm32c0xx_hal_dma.c ****   * @param  CallbackID            User Callback identifier
 813:Drivers/STM32C0xx_HAL_Driver/Src/stm32c0xx_hal_dma.c ****   *                               a HAL_DMA_CallbackIDTypeDef ENUM as parameter.
 814:Drivers/STM32C0xx_HAL_Driver/Src/stm32c0xx_hal_dma.c ****   * @param  pCallback             pointer to private callback function which has pointer to
 815:Drivers/STM32C0xx_HAL_Driver/Src/stm32c0xx_hal_dma.c ****   *                               a DMA_HandleTypeDef structure as parameter.
 816:Drivers/STM32C0xx_HAL_Driver/Src/stm32c0xx_hal_dma.c ****   * @retval HAL status
 817:Drivers/STM32C0xx_HAL_Driver/Src/stm32c0xx_hal_dma.c ****   */
 818:Drivers/STM32C0xx_HAL_Driver/Src/stm32c0xx_hal_dma.c **** HAL_StatusTypeDef HAL_DMA_RegisterCallback(DMA_HandleTypeDef *hdma, HAL_DMA_CallbackIDTypeDef Callb
 819:Drivers/STM32C0xx_HAL_Driver/Src/stm32c0xx_hal_dma.c ****                                            void (* pCallback)(DMA_HandleTypeDef *_hdma))
 820:Drivers/STM32C0xx_HAL_Driver/Src/stm32c0xx_hal_dma.c **** {
 821:Drivers/STM32C0xx_HAL_Driver/Src/stm32c0xx_hal_dma.c ****   HAL_StatusTypeDef status = HAL_OK;
 822:Drivers/STM32C0xx_HAL_Driver/Src/stm32c0xx_hal_dma.c **** 
 823:Drivers/STM32C0xx_HAL_Driver/Src/stm32c0xx_hal_dma.c ****   /* Process locked */
 824:Drivers/STM32C0xx_HAL_Driver/Src/stm32c0xx_hal_dma.c ****   __HAL_LOCK(hdma);
 825:Drivers/STM32C0xx_HAL_Driver/Src/stm32c0xx_hal_dma.c **** 
 826:Drivers/STM32C0xx_HAL_Driver/Src/stm32c0xx_hal_dma.c ****   if (HAL_DMA_STATE_READY == hdma->State)
 827:Drivers/STM32C0xx_HAL_Driver/Src/stm32c0xx_hal_dma.c ****   {
 828:Drivers/STM32C0xx_HAL_Driver/Src/stm32c0xx_hal_dma.c ****     switch (CallbackID)
 829:Drivers/STM32C0xx_HAL_Driver/Src/stm32c0xx_hal_dma.c ****     {
 830:Drivers/STM32C0xx_HAL_Driver/Src/stm32c0xx_hal_dma.c ****       case  HAL_DMA_XFER_CPLT_CB_ID:
ARM GAS  C:\Users\simay\AppData\Local\Temp\cc43TqXJ.s 			page 16


 831:Drivers/STM32C0xx_HAL_Driver/Src/stm32c0xx_hal_dma.c ****         hdma->XferCpltCallback = pCallback;
 832:Drivers/STM32C0xx_HAL_Driver/Src/stm32c0xx_hal_dma.c ****         break;
 833:Drivers/STM32C0xx_HAL_Driver/Src/stm32c0xx_hal_dma.c **** 
 834:Drivers/STM32C0xx_HAL_Driver/Src/stm32c0xx_hal_dma.c ****       case  HAL_DMA_XFER_HALFCPLT_CB_ID:
 835:Drivers/STM32C0xx_HAL_Driver/Src/stm32c0xx_hal_dma.c ****         hdma->XferHalfCpltCallback = pCallback;
 836:Drivers/STM32C0xx_HAL_Driver/Src/stm32c0xx_hal_dma.c ****         break;
 837:Drivers/STM32C0xx_HAL_Driver/Src/stm32c0xx_hal_dma.c **** 
 838:Drivers/STM32C0xx_HAL_Driver/Src/stm32c0xx_hal_dma.c ****       case  HAL_DMA_XFER_ERROR_CB_ID:
 839:Drivers/STM32C0xx_HAL_Driver/Src/stm32c0xx_hal_dma.c ****         hdma->XferErrorCallback = pCallback;
 840:Drivers/STM32C0xx_HAL_Driver/Src/stm32c0xx_hal_dma.c ****         break;
 841:Drivers/STM32C0xx_HAL_Driver/Src/stm32c0xx_hal_dma.c **** 
 842:Drivers/STM32C0xx_HAL_Driver/Src/stm32c0xx_hal_dma.c ****       case  HAL_DMA_XFER_ABORT_CB_ID:
 843:Drivers/STM32C0xx_HAL_Driver/Src/stm32c0xx_hal_dma.c ****         hdma->XferAbortCallback = pCallback;
 844:Drivers/STM32C0xx_HAL_Driver/Src/stm32c0xx_hal_dma.c ****         break;
 845:Drivers/STM32C0xx_HAL_Driver/Src/stm32c0xx_hal_dma.c **** 
 846:Drivers/STM32C0xx_HAL_Driver/Src/stm32c0xx_hal_dma.c ****       default:
 847:Drivers/STM32C0xx_HAL_Driver/Src/stm32c0xx_hal_dma.c ****         status = HAL_ERROR;
 848:Drivers/STM32C0xx_HAL_Driver/Src/stm32c0xx_hal_dma.c ****         break;
 849:Drivers/STM32C0xx_HAL_Driver/Src/stm32c0xx_hal_dma.c ****     }
 850:Drivers/STM32C0xx_HAL_Driver/Src/stm32c0xx_hal_dma.c ****   }
 851:Drivers/STM32C0xx_HAL_Driver/Src/stm32c0xx_hal_dma.c ****   else
 852:Drivers/STM32C0xx_HAL_Driver/Src/stm32c0xx_hal_dma.c ****   {
 853:Drivers/STM32C0xx_HAL_Driver/Src/stm32c0xx_hal_dma.c ****     status = HAL_ERROR;
 854:Drivers/STM32C0xx_HAL_Driver/Src/stm32c0xx_hal_dma.c ****   }
 855:Drivers/STM32C0xx_HAL_Driver/Src/stm32c0xx_hal_dma.c **** 
 856:Drivers/STM32C0xx_HAL_Driver/Src/stm32c0xx_hal_dma.c ****   /* Release Lock */
 857:Drivers/STM32C0xx_HAL_Driver/Src/stm32c0xx_hal_dma.c ****   __HAL_UNLOCK(hdma);
 858:Drivers/STM32C0xx_HAL_Driver/Src/stm32c0xx_hal_dma.c **** 
 859:Drivers/STM32C0xx_HAL_Driver/Src/stm32c0xx_hal_dma.c ****   return status;
 860:Drivers/STM32C0xx_HAL_Driver/Src/stm32c0xx_hal_dma.c **** }
 861:Drivers/STM32C0xx_HAL_Driver/Src/stm32c0xx_hal_dma.c **** 
 862:Drivers/STM32C0xx_HAL_Driver/Src/stm32c0xx_hal_dma.c **** /**
 863:Drivers/STM32C0xx_HAL_Driver/Src/stm32c0xx_hal_dma.c ****   * @brief  UnRegister callbacks
 864:Drivers/STM32C0xx_HAL_Driver/Src/stm32c0xx_hal_dma.c ****   * @param  hdma                  pointer to a DMA_HandleTypeDef structure that contains
 865:Drivers/STM32C0xx_HAL_Driver/Src/stm32c0xx_hal_dma.c ****   *                               the configuration information for the specified DMA Stream.
 866:Drivers/STM32C0xx_HAL_Driver/Src/stm32c0xx_hal_dma.c ****   * @param  CallbackID            User Callback identifier
 867:Drivers/STM32C0xx_HAL_Driver/Src/stm32c0xx_hal_dma.c ****   *                               a HAL_DMA_CallbackIDTypeDef ENUM as parameter.
 868:Drivers/STM32C0xx_HAL_Driver/Src/stm32c0xx_hal_dma.c ****   * @retval HAL status
 869:Drivers/STM32C0xx_HAL_Driver/Src/stm32c0xx_hal_dma.c ****   */
 870:Drivers/STM32C0xx_HAL_Driver/Src/stm32c0xx_hal_dma.c **** HAL_StatusTypeDef HAL_DMA_UnRegisterCallback(DMA_HandleTypeDef *hdma, HAL_DMA_CallbackIDTypeDef Cal
 871:Drivers/STM32C0xx_HAL_Driver/Src/stm32c0xx_hal_dma.c **** {
 872:Drivers/STM32C0xx_HAL_Driver/Src/stm32c0xx_hal_dma.c ****   HAL_StatusTypeDef status = HAL_OK;
 873:Drivers/STM32C0xx_HAL_Driver/Src/stm32c0xx_hal_dma.c **** 
 874:Drivers/STM32C0xx_HAL_Driver/Src/stm32c0xx_hal_dma.c ****   /* Process locked */
 875:Drivers/STM32C0xx_HAL_Driver/Src/stm32c0xx_hal_dma.c ****   __HAL_LOCK(hdma);
 876:Drivers/STM32C0xx_HAL_Driver/Src/stm32c0xx_hal_dma.c **** 
 877:Drivers/STM32C0xx_HAL_Driver/Src/stm32c0xx_hal_dma.c ****   if (HAL_DMA_STATE_READY == hdma->State)
 878:Drivers/STM32C0xx_HAL_Driver/Src/stm32c0xx_hal_dma.c ****   {
 879:Drivers/STM32C0xx_HAL_Driver/Src/stm32c0xx_hal_dma.c ****     switch (CallbackID)
 880:Drivers/STM32C0xx_HAL_Driver/Src/stm32c0xx_hal_dma.c ****     {
 881:Drivers/STM32C0xx_HAL_Driver/Src/stm32c0xx_hal_dma.c ****       case  HAL_DMA_XFER_CPLT_CB_ID:
 882:Drivers/STM32C0xx_HAL_Driver/Src/stm32c0xx_hal_dma.c ****         hdma->XferCpltCallback = NULL;
 883:Drivers/STM32C0xx_HAL_Driver/Src/stm32c0xx_hal_dma.c ****         break;
 884:Drivers/STM32C0xx_HAL_Driver/Src/stm32c0xx_hal_dma.c **** 
 885:Drivers/STM32C0xx_HAL_Driver/Src/stm32c0xx_hal_dma.c ****       case  HAL_DMA_XFER_HALFCPLT_CB_ID:
 886:Drivers/STM32C0xx_HAL_Driver/Src/stm32c0xx_hal_dma.c ****         hdma->XferHalfCpltCallback = NULL;
 887:Drivers/STM32C0xx_HAL_Driver/Src/stm32c0xx_hal_dma.c ****         break;
ARM GAS  C:\Users\simay\AppData\Local\Temp\cc43TqXJ.s 			page 17


 888:Drivers/STM32C0xx_HAL_Driver/Src/stm32c0xx_hal_dma.c **** 
 889:Drivers/STM32C0xx_HAL_Driver/Src/stm32c0xx_hal_dma.c ****       case  HAL_DMA_XFER_ERROR_CB_ID:
 890:Drivers/STM32C0xx_HAL_Driver/Src/stm32c0xx_hal_dma.c ****         hdma->XferErrorCallback = NULL;
 891:Drivers/STM32C0xx_HAL_Driver/Src/stm32c0xx_hal_dma.c ****         break;
 892:Drivers/STM32C0xx_HAL_Driver/Src/stm32c0xx_hal_dma.c **** 
 893:Drivers/STM32C0xx_HAL_Driver/Src/stm32c0xx_hal_dma.c ****       case  HAL_DMA_XFER_ABORT_CB_ID:
 894:Drivers/STM32C0xx_HAL_Driver/Src/stm32c0xx_hal_dma.c ****         hdma->XferAbortCallback = NULL;
 895:Drivers/STM32C0xx_HAL_Driver/Src/stm32c0xx_hal_dma.c ****         break;
 896:Drivers/STM32C0xx_HAL_Driver/Src/stm32c0xx_hal_dma.c **** 
 897:Drivers/STM32C0xx_HAL_Driver/Src/stm32c0xx_hal_dma.c ****       case   HAL_DMA_XFER_ALL_CB_ID:
 898:Drivers/STM32C0xx_HAL_Driver/Src/stm32c0xx_hal_dma.c ****         hdma->XferCpltCallback = NULL;
 899:Drivers/STM32C0xx_HAL_Driver/Src/stm32c0xx_hal_dma.c ****         hdma->XferHalfCpltCallback = NULL;
 900:Drivers/STM32C0xx_HAL_Driver/Src/stm32c0xx_hal_dma.c ****         hdma->XferErrorCallback = NULL;
 901:Drivers/STM32C0xx_HAL_Driver/Src/stm32c0xx_hal_dma.c ****         hdma->XferAbortCallback = NULL;
 902:Drivers/STM32C0xx_HAL_Driver/Src/stm32c0xx_hal_dma.c ****         break;
 903:Drivers/STM32C0xx_HAL_Driver/Src/stm32c0xx_hal_dma.c **** 
 904:Drivers/STM32C0xx_HAL_Driver/Src/stm32c0xx_hal_dma.c ****       default:
 905:Drivers/STM32C0xx_HAL_Driver/Src/stm32c0xx_hal_dma.c ****         status = HAL_ERROR;
 906:Drivers/STM32C0xx_HAL_Driver/Src/stm32c0xx_hal_dma.c ****         break;
 907:Drivers/STM32C0xx_HAL_Driver/Src/stm32c0xx_hal_dma.c ****     }
 908:Drivers/STM32C0xx_HAL_Driver/Src/stm32c0xx_hal_dma.c ****   }
 909:Drivers/STM32C0xx_HAL_Driver/Src/stm32c0xx_hal_dma.c ****   else
 910:Drivers/STM32C0xx_HAL_Driver/Src/stm32c0xx_hal_dma.c ****   {
 911:Drivers/STM32C0xx_HAL_Driver/Src/stm32c0xx_hal_dma.c ****     status = HAL_ERROR;
 912:Drivers/STM32C0xx_HAL_Driver/Src/stm32c0xx_hal_dma.c ****   }
 913:Drivers/STM32C0xx_HAL_Driver/Src/stm32c0xx_hal_dma.c **** 
 914:Drivers/STM32C0xx_HAL_Driver/Src/stm32c0xx_hal_dma.c ****   /* Release Lock */
 915:Drivers/STM32C0xx_HAL_Driver/Src/stm32c0xx_hal_dma.c ****   __HAL_UNLOCK(hdma);
 916:Drivers/STM32C0xx_HAL_Driver/Src/stm32c0xx_hal_dma.c **** 
 917:Drivers/STM32C0xx_HAL_Driver/Src/stm32c0xx_hal_dma.c ****   return status;
 918:Drivers/STM32C0xx_HAL_Driver/Src/stm32c0xx_hal_dma.c **** }
 919:Drivers/STM32C0xx_HAL_Driver/Src/stm32c0xx_hal_dma.c **** 
 920:Drivers/STM32C0xx_HAL_Driver/Src/stm32c0xx_hal_dma.c **** /**
 921:Drivers/STM32C0xx_HAL_Driver/Src/stm32c0xx_hal_dma.c ****   * @}
 922:Drivers/STM32C0xx_HAL_Driver/Src/stm32c0xx_hal_dma.c ****   */
 923:Drivers/STM32C0xx_HAL_Driver/Src/stm32c0xx_hal_dma.c **** 
 924:Drivers/STM32C0xx_HAL_Driver/Src/stm32c0xx_hal_dma.c **** /** @defgroup DMA_Exported_Functions_Group3 Peripheral State and Errors functions
 925:Drivers/STM32C0xx_HAL_Driver/Src/stm32c0xx_hal_dma.c ****   *  @brief    Peripheral State and Errors functions
 926:Drivers/STM32C0xx_HAL_Driver/Src/stm32c0xx_hal_dma.c ****   *
 927:Drivers/STM32C0xx_HAL_Driver/Src/stm32c0xx_hal_dma.c **** @verbatim
 928:Drivers/STM32C0xx_HAL_Driver/Src/stm32c0xx_hal_dma.c ****  ===============================================================================
 929:Drivers/STM32C0xx_HAL_Driver/Src/stm32c0xx_hal_dma.c ****             ##### Peripheral State and Errors functions #####
 930:Drivers/STM32C0xx_HAL_Driver/Src/stm32c0xx_hal_dma.c ****  ===============================================================================
 931:Drivers/STM32C0xx_HAL_Driver/Src/stm32c0xx_hal_dma.c ****     [..]
 932:Drivers/STM32C0xx_HAL_Driver/Src/stm32c0xx_hal_dma.c ****     This subsection provides functions allowing to
 933:Drivers/STM32C0xx_HAL_Driver/Src/stm32c0xx_hal_dma.c ****       (+) Check the DMA state
 934:Drivers/STM32C0xx_HAL_Driver/Src/stm32c0xx_hal_dma.c ****       (+) Get error code
 935:Drivers/STM32C0xx_HAL_Driver/Src/stm32c0xx_hal_dma.c **** 
 936:Drivers/STM32C0xx_HAL_Driver/Src/stm32c0xx_hal_dma.c **** @endverbatim
 937:Drivers/STM32C0xx_HAL_Driver/Src/stm32c0xx_hal_dma.c ****   * @{
 938:Drivers/STM32C0xx_HAL_Driver/Src/stm32c0xx_hal_dma.c ****   */
 939:Drivers/STM32C0xx_HAL_Driver/Src/stm32c0xx_hal_dma.c **** 
 940:Drivers/STM32C0xx_HAL_Driver/Src/stm32c0xx_hal_dma.c **** /**
 941:Drivers/STM32C0xx_HAL_Driver/Src/stm32c0xx_hal_dma.c ****   * @brief  Return the DMA handle state.
 942:Drivers/STM32C0xx_HAL_Driver/Src/stm32c0xx_hal_dma.c ****   * @param hdma Pointer to a DMA_HandleTypeDef structure that contains
 943:Drivers/STM32C0xx_HAL_Driver/Src/stm32c0xx_hal_dma.c ****   *               the configuration information for the specified DMA Channel.
 944:Drivers/STM32C0xx_HAL_Driver/Src/stm32c0xx_hal_dma.c ****   * @retval HAL state
ARM GAS  C:\Users\simay\AppData\Local\Temp\cc43TqXJ.s 			page 18


 945:Drivers/STM32C0xx_HAL_Driver/Src/stm32c0xx_hal_dma.c ****   */
 946:Drivers/STM32C0xx_HAL_Driver/Src/stm32c0xx_hal_dma.c **** HAL_DMA_StateTypeDef HAL_DMA_GetState(const DMA_HandleTypeDef *hdma)
 947:Drivers/STM32C0xx_HAL_Driver/Src/stm32c0xx_hal_dma.c **** {
 948:Drivers/STM32C0xx_HAL_Driver/Src/stm32c0xx_hal_dma.c ****   /* Return DMA handle state */
 949:Drivers/STM32C0xx_HAL_Driver/Src/stm32c0xx_hal_dma.c ****   return hdma->State;
 950:Drivers/STM32C0xx_HAL_Driver/Src/stm32c0xx_hal_dma.c **** }
 951:Drivers/STM32C0xx_HAL_Driver/Src/stm32c0xx_hal_dma.c **** 
 952:Drivers/STM32C0xx_HAL_Driver/Src/stm32c0xx_hal_dma.c **** /**
 953:Drivers/STM32C0xx_HAL_Driver/Src/stm32c0xx_hal_dma.c ****   * @brief  Return the DMA error code.
 954:Drivers/STM32C0xx_HAL_Driver/Src/stm32c0xx_hal_dma.c ****   * @param  hdma Pointer to a DMA_HandleTypeDef structure that contains
 955:Drivers/STM32C0xx_HAL_Driver/Src/stm32c0xx_hal_dma.c ****   *              the configuration information for the specified DMA Channel.
 956:Drivers/STM32C0xx_HAL_Driver/Src/stm32c0xx_hal_dma.c ****   * @retval DMA Error Code
 957:Drivers/STM32C0xx_HAL_Driver/Src/stm32c0xx_hal_dma.c ****   */
 958:Drivers/STM32C0xx_HAL_Driver/Src/stm32c0xx_hal_dma.c **** uint32_t HAL_DMA_GetError(const DMA_HandleTypeDef *hdma)
 959:Drivers/STM32C0xx_HAL_Driver/Src/stm32c0xx_hal_dma.c **** {
 960:Drivers/STM32C0xx_HAL_Driver/Src/stm32c0xx_hal_dma.c ****   return hdma->ErrorCode;
 961:Drivers/STM32C0xx_HAL_Driver/Src/stm32c0xx_hal_dma.c **** }
 962:Drivers/STM32C0xx_HAL_Driver/Src/stm32c0xx_hal_dma.c **** 
 963:Drivers/STM32C0xx_HAL_Driver/Src/stm32c0xx_hal_dma.c **** /**
 964:Drivers/STM32C0xx_HAL_Driver/Src/stm32c0xx_hal_dma.c ****   * @}
 965:Drivers/STM32C0xx_HAL_Driver/Src/stm32c0xx_hal_dma.c ****   */
 966:Drivers/STM32C0xx_HAL_Driver/Src/stm32c0xx_hal_dma.c **** 
 967:Drivers/STM32C0xx_HAL_Driver/Src/stm32c0xx_hal_dma.c **** /**
 968:Drivers/STM32C0xx_HAL_Driver/Src/stm32c0xx_hal_dma.c ****   * @}
 969:Drivers/STM32C0xx_HAL_Driver/Src/stm32c0xx_hal_dma.c ****   */
 970:Drivers/STM32C0xx_HAL_Driver/Src/stm32c0xx_hal_dma.c **** 
 971:Drivers/STM32C0xx_HAL_Driver/Src/stm32c0xx_hal_dma.c **** /** @addtogroup DMA_Private_Functions
 972:Drivers/STM32C0xx_HAL_Driver/Src/stm32c0xx_hal_dma.c ****   * @{
 973:Drivers/STM32C0xx_HAL_Driver/Src/stm32c0xx_hal_dma.c ****   */
 974:Drivers/STM32C0xx_HAL_Driver/Src/stm32c0xx_hal_dma.c **** 
 975:Drivers/STM32C0xx_HAL_Driver/Src/stm32c0xx_hal_dma.c **** /**
 976:Drivers/STM32C0xx_HAL_Driver/Src/stm32c0xx_hal_dma.c ****   * @brief  Sets the DMA Transfer parameter.
 977:Drivers/STM32C0xx_HAL_Driver/Src/stm32c0xx_hal_dma.c ****   * @param hdma Pointer to a DMA_HandleTypeDef structure that contains
 978:Drivers/STM32C0xx_HAL_Driver/Src/stm32c0xx_hal_dma.c ****   *                     the configuration information for the specified DMA Channel.
 979:Drivers/STM32C0xx_HAL_Driver/Src/stm32c0xx_hal_dma.c ****   * @param SrcAddress The source memory Buffer address
 980:Drivers/STM32C0xx_HAL_Driver/Src/stm32c0xx_hal_dma.c ****   * @param DstAddress The destination memory Buffer address
 981:Drivers/STM32C0xx_HAL_Driver/Src/stm32c0xx_hal_dma.c ****   * @param DataLength The length of data to be transferred from source to destination
 982:Drivers/STM32C0xx_HAL_Driver/Src/stm32c0xx_hal_dma.c ****   * @retval HAL status
 983:Drivers/STM32C0xx_HAL_Driver/Src/stm32c0xx_hal_dma.c ****   */
 984:Drivers/STM32C0xx_HAL_Driver/Src/stm32c0xx_hal_dma.c **** static void DMA_SetConfig(DMA_HandleTypeDef *hdma, uint32_t SrcAddress, uint32_t DstAddress, uint32
 985:Drivers/STM32C0xx_HAL_Driver/Src/stm32c0xx_hal_dma.c **** {
  27              		.loc 1 985 1 view -0
  28              		.cfi_startproc
  29              		@ args = 0, pretend = 0, frame = 0
  30              		@ frame_needed = 0, uses_anonymous_args = 0
  31              		.loc 1 985 1 is_stmt 0 view .LVU1
  32 0000 F0B5     		push	{r4, r5, r6, r7, lr}
  33              	.LCFI0:
  34              		.cfi_def_cfa_offset 20
  35              		.cfi_offset 4, -20
  36              		.cfi_offset 5, -16
  37              		.cfi_offset 6, -12
  38              		.cfi_offset 7, -8
  39              		.cfi_offset 14, -4
 986:Drivers/STM32C0xx_HAL_Driver/Src/stm32c0xx_hal_dma.c ****   /* Clear the DMAMUX synchro overrun flag */
 987:Drivers/STM32C0xx_HAL_Driver/Src/stm32c0xx_hal_dma.c ****   hdma->DMAmuxChannelStatus->CFR = hdma->DMAmuxChannelStatusMask;
  40              		.loc 1 987 3 is_stmt 1 view .LVU2
ARM GAS  C:\Users\simay\AppData\Local\Temp\cc43TqXJ.s 			page 19


  41              		.loc 1 987 7 is_stmt 0 view .LVU3
  42 0002 846C     		ldr	r4, [r0, #72]
  43              		.loc 1 987 40 view .LVU4
  44 0004 C56C     		ldr	r5, [r0, #76]
  45              		.loc 1 987 34 view .LVU5
  46 0006 6560     		str	r5, [r4, #4]
 988:Drivers/STM32C0xx_HAL_Driver/Src/stm32c0xx_hal_dma.c **** 
 989:Drivers/STM32C0xx_HAL_Driver/Src/stm32c0xx_hal_dma.c ****   if (hdma->DMAmuxRequestGen != 0U)
  47              		.loc 1 989 3 is_stmt 1 view .LVU6
  48              		.loc 1 989 11 is_stmt 0 view .LVU7
  49 0008 046D     		ldr	r4, [r0, #80]
  50              		.loc 1 989 6 view .LVU8
  51 000a 002C     		cmp	r4, #0
  52 000c 02D0     		beq	.L2
 990:Drivers/STM32C0xx_HAL_Driver/Src/stm32c0xx_hal_dma.c ****   {
 991:Drivers/STM32C0xx_HAL_Driver/Src/stm32c0xx_hal_dma.c ****     /* Clear the DMAMUX request generator overrun flag */
 992:Drivers/STM32C0xx_HAL_Driver/Src/stm32c0xx_hal_dma.c ****     hdma->DMAmuxRequestGenStatus->RGCFR = hdma->DMAmuxRequestGenStatusMask;
  53              		.loc 1 992 5 is_stmt 1 view .LVU9
  54              		.loc 1 992 9 is_stmt 0 view .LVU10
  55 000e 446D     		ldr	r4, [r0, #84]
  56              		.loc 1 992 47 view .LVU11
  57 0010 856D     		ldr	r5, [r0, #88]
  58              		.loc 1 992 41 view .LVU12
  59 0012 6560     		str	r5, [r4, #4]
  60              	.L2:
 993:Drivers/STM32C0xx_HAL_Driver/Src/stm32c0xx_hal_dma.c ****   }
 994:Drivers/STM32C0xx_HAL_Driver/Src/stm32c0xx_hal_dma.c **** 
 995:Drivers/STM32C0xx_HAL_Driver/Src/stm32c0xx_hal_dma.c ****   /* Clear all flags */
 996:Drivers/STM32C0xx_HAL_Driver/Src/stm32c0xx_hal_dma.c ****   __HAL_DMA_CLEAR_FLAG(hdma, (DMA_FLAG_GI1 << (hdma->ChannelIndex & 0x1cU)));
  61              		.loc 1 996 3 is_stmt 1 view .LVU13
  62 0014 0B4F     		ldr	r7, .L6
  63 0016 7C68     		ldr	r4, [r7, #4]
  64 0018 056C     		ldr	r5, [r0, #64]
  65 001a 1C26     		movs	r6, #28
  66 001c 2E40     		ands	r6, r5
  67 001e 0125     		movs	r5, #1
  68 0020 B540     		lsls	r5, r5, r6
  69 0022 2C43     		orrs	r4, r5
  70 0024 7C60     		str	r4, [r7, #4]
 997:Drivers/STM32C0xx_HAL_Driver/Src/stm32c0xx_hal_dma.c **** 
 998:Drivers/STM32C0xx_HAL_Driver/Src/stm32c0xx_hal_dma.c ****   /* Configure DMA Channel data length */
 999:Drivers/STM32C0xx_HAL_Driver/Src/stm32c0xx_hal_dma.c ****   hdma->Instance->CNDTR = DataLength;
  71              		.loc 1 999 3 view .LVU14
  72              		.loc 1 999 7 is_stmt 0 view .LVU15
  73 0026 0468     		ldr	r4, [r0]
  74              		.loc 1 999 25 view .LVU16
  75 0028 6360     		str	r3, [r4, #4]
1000:Drivers/STM32C0xx_HAL_Driver/Src/stm32c0xx_hal_dma.c **** 
1001:Drivers/STM32C0xx_HAL_Driver/Src/stm32c0xx_hal_dma.c ****   /* Peripheral to Memory */
1002:Drivers/STM32C0xx_HAL_Driver/Src/stm32c0xx_hal_dma.c ****   if ((hdma->Init.Direction) == DMA_MEMORY_TO_PERIPH)
  76              		.loc 1 1002 3 is_stmt 1 view .LVU17
  77              		.loc 1 1002 18 is_stmt 0 view .LVU18
  78 002a 8368     		ldr	r3, [r0, #8]
  79              	.LVL1:
  80              		.loc 1 1002 6 view .LVU19
  81 002c 102B     		cmp	r3, #16
  82 002e 04D0     		beq	.L5
ARM GAS  C:\Users\simay\AppData\Local\Temp\cc43TqXJ.s 			page 20


1003:Drivers/STM32C0xx_HAL_Driver/Src/stm32c0xx_hal_dma.c ****   {
1004:Drivers/STM32C0xx_HAL_Driver/Src/stm32c0xx_hal_dma.c ****     /* Configure DMA Channel destination address */
1005:Drivers/STM32C0xx_HAL_Driver/Src/stm32c0xx_hal_dma.c ****     hdma->Instance->CPAR = DstAddress;
1006:Drivers/STM32C0xx_HAL_Driver/Src/stm32c0xx_hal_dma.c **** 
1007:Drivers/STM32C0xx_HAL_Driver/Src/stm32c0xx_hal_dma.c ****     /* Configure DMA Channel source address */
1008:Drivers/STM32C0xx_HAL_Driver/Src/stm32c0xx_hal_dma.c ****     hdma->Instance->CMAR = SrcAddress;
1009:Drivers/STM32C0xx_HAL_Driver/Src/stm32c0xx_hal_dma.c ****   }
1010:Drivers/STM32C0xx_HAL_Driver/Src/stm32c0xx_hal_dma.c ****   /* Memory to Peripheral */
1011:Drivers/STM32C0xx_HAL_Driver/Src/stm32c0xx_hal_dma.c ****   else
1012:Drivers/STM32C0xx_HAL_Driver/Src/stm32c0xx_hal_dma.c ****   {
1013:Drivers/STM32C0xx_HAL_Driver/Src/stm32c0xx_hal_dma.c ****     /* Configure DMA Channel source address */
1014:Drivers/STM32C0xx_HAL_Driver/Src/stm32c0xx_hal_dma.c ****     hdma->Instance->CPAR = SrcAddress;
  83              		.loc 1 1014 5 is_stmt 1 view .LVU20
  84              		.loc 1 1014 9 is_stmt 0 view .LVU21
  85 0030 0368     		ldr	r3, [r0]
  86              		.loc 1 1014 26 view .LVU22
  87 0032 9960     		str	r1, [r3, #8]
  88              	.LVL2:
1015:Drivers/STM32C0xx_HAL_Driver/Src/stm32c0xx_hal_dma.c **** 
1016:Drivers/STM32C0xx_HAL_Driver/Src/stm32c0xx_hal_dma.c ****     /* Configure DMA Channel destination address */
1017:Drivers/STM32C0xx_HAL_Driver/Src/stm32c0xx_hal_dma.c ****     hdma->Instance->CMAR = DstAddress;
  89              		.loc 1 1017 5 is_stmt 1 view .LVU23
  90              		.loc 1 1017 9 is_stmt 0 view .LVU24
  91 0034 0368     		ldr	r3, [r0]
  92              		.loc 1 1017 26 view .LVU25
  93 0036 DA60     		str	r2, [r3, #12]
  94              	.L1:
1018:Drivers/STM32C0xx_HAL_Driver/Src/stm32c0xx_hal_dma.c ****   }
1019:Drivers/STM32C0xx_HAL_Driver/Src/stm32c0xx_hal_dma.c **** }
  95              		.loc 1 1019 1 view .LVU26
  96              		@ sp needed
  97 0038 F0BD     		pop	{r4, r5, r6, r7, pc}
  98              	.LVL3:
  99              	.L5:
1005:Drivers/STM32C0xx_HAL_Driver/Src/stm32c0xx_hal_dma.c **** 
 100              		.loc 1 1005 5 is_stmt 1 view .LVU27
1005:Drivers/STM32C0xx_HAL_Driver/Src/stm32c0xx_hal_dma.c **** 
 101              		.loc 1 1005 9 is_stmt 0 view .LVU28
 102 003a 0368     		ldr	r3, [r0]
1005:Drivers/STM32C0xx_HAL_Driver/Src/stm32c0xx_hal_dma.c **** 
 103              		.loc 1 1005 26 view .LVU29
 104 003c 9A60     		str	r2, [r3, #8]
 105              	.LVL4:
1008:Drivers/STM32C0xx_HAL_Driver/Src/stm32c0xx_hal_dma.c ****   }
 106              		.loc 1 1008 5 is_stmt 1 view .LVU30
1008:Drivers/STM32C0xx_HAL_Driver/Src/stm32c0xx_hal_dma.c ****   }
 107              		.loc 1 1008 9 is_stmt 0 view .LVU31
 108 003e 0368     		ldr	r3, [r0]
1008:Drivers/STM32C0xx_HAL_Driver/Src/stm32c0xx_hal_dma.c ****   }
 109              		.loc 1 1008 26 view .LVU32
 110 0040 D960     		str	r1, [r3, #12]
 111 0042 F9E7     		b	.L1
 112              	.L7:
 113              		.align	2
 114              	.L6:
 115 0044 00000240 		.word	1073872896
 116              		.cfi_endproc
ARM GAS  C:\Users\simay\AppData\Local\Temp\cc43TqXJ.s 			page 21


 117              	.LFE242:
 119              		.section	.text.DMA_CalcDMAMUXChannelBaseAndMask,"ax",%progbits
 120              		.align	1
 121              		.syntax unified
 122              		.code	16
 123              		.thumb_func
 125              	DMA_CalcDMAMUXChannelBaseAndMask:
 126              	.LVL5:
 127              	.LFB243:
1020:Drivers/STM32C0xx_HAL_Driver/Src/stm32c0xx_hal_dma.c **** 
1021:Drivers/STM32C0xx_HAL_Driver/Src/stm32c0xx_hal_dma.c **** /**
1022:Drivers/STM32C0xx_HAL_Driver/Src/stm32c0xx_hal_dma.c ****   * @brief  Updates the DMA handle with the DMAMUX  channel and status mask depending on stream num
1023:Drivers/STM32C0xx_HAL_Driver/Src/stm32c0xx_hal_dma.c ****   * @param  hdma Pointer to a DMA_HandleTypeDef structure that contains
1024:Drivers/STM32C0xx_HAL_Driver/Src/stm32c0xx_hal_dma.c ****   *                     the configuration information for the specified DMA Stream.
1025:Drivers/STM32C0xx_HAL_Driver/Src/stm32c0xx_hal_dma.c ****   * @retval None
1026:Drivers/STM32C0xx_HAL_Driver/Src/stm32c0xx_hal_dma.c ****   */
1027:Drivers/STM32C0xx_HAL_Driver/Src/stm32c0xx_hal_dma.c **** static void DMA_CalcDMAMUXChannelBaseAndMask(DMA_HandleTypeDef *hdma)
1028:Drivers/STM32C0xx_HAL_Driver/Src/stm32c0xx_hal_dma.c **** {
 128              		.loc 1 1028 1 is_stmt 1 view -0
 129              		.cfi_startproc
 130              		@ args = 0, pretend = 0, frame = 0
 131              		@ frame_needed = 0, uses_anonymous_args = 0
 132              		.loc 1 1028 1 is_stmt 0 view .LVU34
 133 0000 10B5     		push	{r4, lr}
 134              	.LCFI1:
 135              		.cfi_def_cfa_offset 8
 136              		.cfi_offset 4, -8
 137              		.cfi_offset 14, -4
 138 0002 0400     		movs	r4, r0
1029:Drivers/STM32C0xx_HAL_Driver/Src/stm32c0xx_hal_dma.c ****   uint32_t channel_number;
 139              		.loc 1 1029 3 is_stmt 1 view .LVU35
1030:Drivers/STM32C0xx_HAL_Driver/Src/stm32c0xx_hal_dma.c **** 
1031:Drivers/STM32C0xx_HAL_Driver/Src/stm32c0xx_hal_dma.c ****   channel_number = (((uint32_t)hdma->Instance & 0xFFU) - 8U) / 20U;
 140              		.loc 1 1031 3 view .LVU36
 141              		.loc 1 1031 36 is_stmt 0 view .LVU37
 142 0004 0368     		ldr	r3, [r0]
 143              		.loc 1 1031 47 view .LVU38
 144 0006 FF20     		movs	r0, #255
 145              	.LVL6:
 146              		.loc 1 1031 47 view .LVU39
 147 0008 1840     		ands	r0, r3
 148              		.loc 1 1031 56 view .LVU40
 149 000a 0838     		subs	r0, r0, #8
 150              		.loc 1 1031 18 view .LVU41
 151 000c 1421     		movs	r1, #20
 152 000e FFF7FEFF 		bl	__aeabi_uidiv
 153              	.LVL7:
1032:Drivers/STM32C0xx_HAL_Driver/Src/stm32c0xx_hal_dma.c ****   hdma->DMAmuxChannel = (DMAMUX_Channel_TypeDef *)(uint32_t)((uint32_t)DMAMUX1_Channel0 + \
 154              		.loc 1 1032 3 is_stmt 1 view .LVU42
1033:Drivers/STM32C0xx_HAL_Driver/Src/stm32c0xx_hal_dma.c ****                                                              ((hdma->ChannelIndex >> 2U) * \
 155              		.loc 1 1033 68 is_stmt 0 view .LVU43
 156 0012 236C     		ldr	r3, [r4, #64]
 157              		.loc 1 1033 83 view .LVU44
 158 0014 9B08     		lsrs	r3, r3, #2
1032:Drivers/STM32C0xx_HAL_Driver/Src/stm32c0xx_hal_dma.c ****   hdma->DMAmuxChannel = (DMAMUX_Channel_TypeDef *)(uint32_t)((uint32_t)DMAMUX1_Channel0 + \
 159              		.loc 1 1032 51 view .LVU45
 160 0016 064A     		ldr	r2, .L9
ARM GAS  C:\Users\simay\AppData\Local\Temp\cc43TqXJ.s 			page 22


 161 0018 9446     		mov	ip, r2
 162 001a 6344     		add	r3, r3, ip
 163 001c 9B00     		lsls	r3, r3, #2
1032:Drivers/STM32C0xx_HAL_Driver/Src/stm32c0xx_hal_dma.c ****   hdma->DMAmuxChannel = (DMAMUX_Channel_TypeDef *)(uint32_t)((uint32_t)DMAMUX1_Channel0 + \
 164              		.loc 1 1032 23 view .LVU46
 165 001e 6364     		str	r3, [r4, #68]
1034:Drivers/STM32C0xx_HAL_Driver/Src/stm32c0xx_hal_dma.c ****                                                               ((uint32_t)DMAMUX1_Channel1 - \
1035:Drivers/STM32C0xx_HAL_Driver/Src/stm32c0xx_hal_dma.c ****                                                                (uint32_t)DMAMUX1_Channel0)));
1036:Drivers/STM32C0xx_HAL_Driver/Src/stm32c0xx_hal_dma.c ****   hdma->DMAmuxChannelStatus = DMAMUX1_ChannelStatus;
 166              		.loc 1 1036 3 is_stmt 1 view .LVU47
 167              		.loc 1 1036 29 is_stmt 0 view .LVU48
 168 0020 044B     		ldr	r3, .L9+4
 169 0022 A364     		str	r3, [r4, #72]
1037:Drivers/STM32C0xx_HAL_Driver/Src/stm32c0xx_hal_dma.c ****   hdma->DMAmuxChannelStatusMask = 1UL << (channel_number & 0x1cU);
 170              		.loc 1 1037 3 is_stmt 1 view .LVU49
 171              		.loc 1 1037 58 is_stmt 0 view .LVU50
 172 0024 1C23     		movs	r3, #28
 173 0026 1840     		ands	r0, r3
 174              	.LVL8:
 175              		.loc 1 1037 39 view .LVU51
 176 0028 1B3B     		subs	r3, r3, #27
 177 002a 8340     		lsls	r3, r3, r0
 178              		.loc 1 1037 33 view .LVU52
 179 002c E364     		str	r3, [r4, #76]
1038:Drivers/STM32C0xx_HAL_Driver/Src/stm32c0xx_hal_dma.c **** }
 180              		.loc 1 1038 1 view .LVU53
 181              		@ sp needed
 182              	.LVL9:
 183              		.loc 1 1038 1 view .LVU54
 184 002e 10BD     		pop	{r4, pc}
 185              	.L10:
 186              		.align	2
 187              	.L9:
 188 0030 00820010 		.word	268468736
 189 0034 80080240 		.word	1073875072
 190              		.cfi_endproc
 191              	.LFE243:
 193              		.section	.text.DMA_CalcDMAMUXRequestGenBaseAndMask,"ax",%progbits
 194              		.align	1
 195              		.syntax unified
 196              		.code	16
 197              		.thumb_func
 199              	DMA_CalcDMAMUXRequestGenBaseAndMask:
 200              	.LVL10:
 201              	.LFB244:
1039:Drivers/STM32C0xx_HAL_Driver/Src/stm32c0xx_hal_dma.c **** 
1040:Drivers/STM32C0xx_HAL_Driver/Src/stm32c0xx_hal_dma.c **** /**
1041:Drivers/STM32C0xx_HAL_Driver/Src/stm32c0xx_hal_dma.c ****   * @brief  Updates the DMA handle with the DMAMUX  request generator params
1042:Drivers/STM32C0xx_HAL_Driver/Src/stm32c0xx_hal_dma.c ****   * @param  hdma Pointer to a DMA_HandleTypeDef structure that contains
1043:Drivers/STM32C0xx_HAL_Driver/Src/stm32c0xx_hal_dma.c ****   *                     the configuration information for the specified DMA Stream.
1044:Drivers/STM32C0xx_HAL_Driver/Src/stm32c0xx_hal_dma.c ****   * @retval None
1045:Drivers/STM32C0xx_HAL_Driver/Src/stm32c0xx_hal_dma.c ****   */
1046:Drivers/STM32C0xx_HAL_Driver/Src/stm32c0xx_hal_dma.c **** 
1047:Drivers/STM32C0xx_HAL_Driver/Src/stm32c0xx_hal_dma.c **** static void DMA_CalcDMAMUXRequestGenBaseAndMask(DMA_HandleTypeDef *hdma)
1048:Drivers/STM32C0xx_HAL_Driver/Src/stm32c0xx_hal_dma.c **** {
 202              		.loc 1 1048 1 is_stmt 1 view -0
 203              		.cfi_startproc
ARM GAS  C:\Users\simay\AppData\Local\Temp\cc43TqXJ.s 			page 23


 204              		@ args = 0, pretend = 0, frame = 0
 205              		@ frame_needed = 0, uses_anonymous_args = 0
 206              		@ link register save eliminated.
1049:Drivers/STM32C0xx_HAL_Driver/Src/stm32c0xx_hal_dma.c ****   uint32_t request =  hdma->Init.Request & DMAMUX_CxCR_DMAREQ_ID;
 207              		.loc 1 1049 3 view .LVU56
 208              		.loc 1 1049 33 is_stmt 0 view .LVU57
 209 0000 4268     		ldr	r2, [r0, #4]
 210              		.loc 1 1049 12 view .LVU58
 211 0002 FF23     		movs	r3, #255
 212 0004 1340     		ands	r3, r2
 213              	.LVL11:
1050:Drivers/STM32C0xx_HAL_Driver/Src/stm32c0xx_hal_dma.c **** 
1051:Drivers/STM32C0xx_HAL_Driver/Src/stm32c0xx_hal_dma.c ****   /* DMA Channels are connected to DMAMUX1 request generator blocks*/
1052:Drivers/STM32C0xx_HAL_Driver/Src/stm32c0xx_hal_dma.c ****   hdma->DMAmuxRequestGen = (DMAMUX_RequestGen_TypeDef *)((uint32_t)(((uint32_t)DMAMUX1_RequestGener
 214              		.loc 1 1052 3 is_stmt 1 view .LVU59
 215              		.loc 1 1052 58 is_stmt 0 view .LVU60
 216 0006 064A     		ldr	r2, .L12
 217 0008 9A18     		adds	r2, r3, r2
 218 000a 9200     		lsls	r2, r2, #2
 219              		.loc 1 1052 26 view .LVU61
 220 000c 0265     		str	r2, [r0, #80]
1053:Drivers/STM32C0xx_HAL_Driver/Src/stm32c0xx_hal_dma.c ****                                                                     ((request - 1U) * 4U)));
1054:Drivers/STM32C0xx_HAL_Driver/Src/stm32c0xx_hal_dma.c **** 
1055:Drivers/STM32C0xx_HAL_Driver/Src/stm32c0xx_hal_dma.c ****   hdma->DMAmuxRequestGenStatus = DMAMUX1_RequestGenStatus;
 221              		.loc 1 1055 3 is_stmt 1 view .LVU62
 222              		.loc 1 1055 32 is_stmt 0 view .LVU63
 223 000e 054A     		ldr	r2, .L12+4
 224 0010 4265     		str	r2, [r0, #84]
1056:Drivers/STM32C0xx_HAL_Driver/Src/stm32c0xx_hal_dma.c **** 
1057:Drivers/STM32C0xx_HAL_Driver/Src/stm32c0xx_hal_dma.c ****   /* here "Request" is either DMA_REQUEST_GENERATOR0 to 4, i.e. <= 4*/
1058:Drivers/STM32C0xx_HAL_Driver/Src/stm32c0xx_hal_dma.c ****   hdma->DMAmuxRequestGenStatusMask = 1UL << ((request - 1U) & 0x3U);
 225              		.loc 1 1058 3 is_stmt 1 view .LVU64
 226              		.loc 1 1058 55 is_stmt 0 view .LVU65
 227 0012 013B     		subs	r3, r3, #1
 228              	.LVL12:
 229              		.loc 1 1058 61 view .LVU66
 230 0014 0322     		movs	r2, #3
 231 0016 1A40     		ands	r2, r3
 232              		.loc 1 1058 42 view .LVU67
 233 0018 0123     		movs	r3, #1
 234              	.LVL13:
 235              		.loc 1 1058 42 view .LVU68
 236 001a 9340     		lsls	r3, r3, r2
 237              		.loc 1 1058 36 view .LVU69
 238 001c 8365     		str	r3, [r0, #88]
1059:Drivers/STM32C0xx_HAL_Driver/Src/stm32c0xx_hal_dma.c **** }
 239              		.loc 1 1059 1 view .LVU70
 240              		@ sp needed
 241 001e 7047     		bx	lr
 242              	.L13:
 243              		.align	2
 244              	.L12:
 245 0020 3F820010 		.word	268468799
 246 0024 40090240 		.word	1073875264
 247              		.cfi_endproc
 248              	.LFE244:
 250              		.section	.text.HAL_DMA_Init,"ax",%progbits
ARM GAS  C:\Users\simay\AppData\Local\Temp\cc43TqXJ.s 			page 24


 251              		.align	1
 252              		.global	HAL_DMA_Init
 253              		.syntax unified
 254              		.code	16
 255              		.thumb_func
 257              	HAL_DMA_Init:
 258              	.LVL14:
 259              	.LFB230:
 152:Drivers/STM32C0xx_HAL_Driver/Src/stm32c0xx_hal_dma.c ****   /* Check the DMA handle allocation */
 260              		.loc 1 152 1 is_stmt 1 view -0
 261              		.cfi_startproc
 262              		@ args = 0, pretend = 0, frame = 0
 263              		@ frame_needed = 0, uses_anonymous_args = 0
 152:Drivers/STM32C0xx_HAL_Driver/Src/stm32c0xx_hal_dma.c ****   /* Check the DMA handle allocation */
 264              		.loc 1 152 1 is_stmt 0 view .LVU72
 265 0000 70B5     		push	{r4, r5, r6, lr}
 266              	.LCFI2:
 267              		.cfi_def_cfa_offset 16
 268              		.cfi_offset 4, -16
 269              		.cfi_offset 5, -12
 270              		.cfi_offset 6, -8
 271              		.cfi_offset 14, -4
 272 0002 041E     		subs	r4, r0, #0
 154:Drivers/STM32C0xx_HAL_Driver/Src/stm32c0xx_hal_dma.c ****   {
 273              		.loc 1 154 3 is_stmt 1 view .LVU73
 154:Drivers/STM32C0xx_HAL_Driver/Src/stm32c0xx_hal_dma.c ****   {
 274              		.loc 1 154 6 is_stmt 0 view .LVU74
 275 0004 4DD0     		beq	.L19
 160:Drivers/STM32C0xx_HAL_Driver/Src/stm32c0xx_hal_dma.c ****   assert_param(IS_DMA_DIRECTION(hdma->Init.Direction));
 276              		.loc 1 160 3 is_stmt 1 view .LVU75
 161:Drivers/STM32C0xx_HAL_Driver/Src/stm32c0xx_hal_dma.c ****   assert_param(IS_DMA_PERIPHERAL_INC_STATE(hdma->Init.PeriphInc));
 277              		.loc 1 161 3 view .LVU76
 162:Drivers/STM32C0xx_HAL_Driver/Src/stm32c0xx_hal_dma.c ****   assert_param(IS_DMA_MEMORY_INC_STATE(hdma->Init.MemInc));
 278              		.loc 1 162 3 view .LVU77
 163:Drivers/STM32C0xx_HAL_Driver/Src/stm32c0xx_hal_dma.c ****   assert_param(IS_DMA_PERIPHERAL_DATA_SIZE(hdma->Init.PeriphDataAlignment));
 279              		.loc 1 163 3 view .LVU78
 164:Drivers/STM32C0xx_HAL_Driver/Src/stm32c0xx_hal_dma.c ****   assert_param(IS_DMA_MEMORY_DATA_SIZE(hdma->Init.MemDataAlignment));
 280              		.loc 1 164 3 view .LVU79
 165:Drivers/STM32C0xx_HAL_Driver/Src/stm32c0xx_hal_dma.c ****   assert_param(IS_DMA_MODE(hdma->Init.Mode));
 281              		.loc 1 165 3 view .LVU80
 166:Drivers/STM32C0xx_HAL_Driver/Src/stm32c0xx_hal_dma.c ****   assert_param(IS_DMA_PRIORITY(hdma->Init.Priority));
 282              		.loc 1 166 3 view .LVU81
 167:Drivers/STM32C0xx_HAL_Driver/Src/stm32c0xx_hal_dma.c **** 
 283              		.loc 1 167 3 view .LVU82
 170:Drivers/STM32C0xx_HAL_Driver/Src/stm32c0xx_hal_dma.c ****                                                                                 (uint32_t)DMA1_Chan
 284              		.loc 1 170 3 view .LVU83
 170:Drivers/STM32C0xx_HAL_Driver/Src/stm32c0xx_hal_dma.c ****                                                                                 (uint32_t)DMA1_Chan
 285              		.loc 1 170 40 is_stmt 0 view .LVU84
 286 0006 0568     		ldr	r5, [r0]
 170:Drivers/STM32C0xx_HAL_Driver/Src/stm32c0xx_hal_dma.c ****                                                                                 (uint32_t)DMA1_Chan
 287              		.loc 1 170 51 view .LVU85
 288 0008 274B     		ldr	r3, .L22
 289 000a E818     		adds	r0, r5, r3
 290              	.LVL15:
 170:Drivers/STM32C0xx_HAL_Driver/Src/stm32c0xx_hal_dma.c ****                                                                                 (uint32_t)DMA1_Chan
 291              		.loc 1 170 78 view .LVU86
 292 000c 1421     		movs	r1, #20
ARM GAS  C:\Users\simay\AppData\Local\Temp\cc43TqXJ.s 			page 25


 293 000e FFF7FEFF 		bl	__aeabi_uidiv
 294              	.LVL16:
 171:Drivers/STM32C0xx_HAL_Driver/Src/stm32c0xx_hal_dma.c ****   /* Change DMA peripheral state */
 295              		.loc 1 171 107 view .LVU87
 296 0012 8000     		lsls	r0, r0, #2
 170:Drivers/STM32C0xx_HAL_Driver/Src/stm32c0xx_hal_dma.c ****                                                                                 (uint32_t)DMA1_Chan
 297              		.loc 1 170 22 view .LVU88
 298 0014 2064     		str	r0, [r4, #64]
 173:Drivers/STM32C0xx_HAL_Driver/Src/stm32c0xx_hal_dma.c **** 
 299              		.loc 1 173 3 is_stmt 1 view .LVU89
 173:Drivers/STM32C0xx_HAL_Driver/Src/stm32c0xx_hal_dma.c **** 
 300              		.loc 1 173 15 is_stmt 0 view .LVU90
 301 0016 2523     		movs	r3, #37
 302 0018 0222     		movs	r2, #2
 303 001a E254     		strb	r2, [r4, r3]
 176:Drivers/STM32C0xx_HAL_Driver/Src/stm32c0xx_hal_dma.c ****                                   DMA_CCR_MINC  | DMA_CCR_PINC   | DMA_CCR_CIRC   | \
 304              		.loc 1 176 3 is_stmt 1 view .LVU91
 305 001c 2B68     		ldr	r3, [r5]
 306 001e 234A     		ldr	r2, .L22+4
 307 0020 1340     		ands	r3, r2
 308 0022 2B60     		str	r3, [r5]
 181:Drivers/STM32C0xx_HAL_Driver/Src/stm32c0xx_hal_dma.c ****                                 hdma->Init.PeriphInc           | hdma->Init.MemInc           | \
 309              		.loc 1 181 3 view .LVU92
 310 0024 2168     		ldr	r1, [r4]
 311 0026 0A68     		ldr	r2, [r1]
 312 0028 A368     		ldr	r3, [r4, #8]
 313 002a E068     		ldr	r0, [r4, #12]
 314 002c 0343     		orrs	r3, r0
 315 002e 2069     		ldr	r0, [r4, #16]
 316 0030 0343     		orrs	r3, r0
 317 0032 6069     		ldr	r0, [r4, #20]
 318 0034 0343     		orrs	r3, r0
 319 0036 A069     		ldr	r0, [r4, #24]
 320 0038 0343     		orrs	r3, r0
 321 003a E069     		ldr	r0, [r4, #28]
 322 003c 0343     		orrs	r3, r0
 323 003e 206A     		ldr	r0, [r4, #32]
 324 0040 0343     		orrs	r3, r0
 325 0042 1343     		orrs	r3, r2
 326 0044 0B60     		str	r3, [r1]
 189:Drivers/STM32C0xx_HAL_Driver/Src/stm32c0xx_hal_dma.c **** 
 327              		.loc 1 189 3 view .LVU93
 328 0046 2000     		movs	r0, r4
 329 0048 FFF7FEFF 		bl	DMA_CalcDMAMUXChannelBaseAndMask
 330              	.LVL17:
 191:Drivers/STM32C0xx_HAL_Driver/Src/stm32c0xx_hal_dma.c ****   {
 331              		.loc 1 191 3 view .LVU94
 191:Drivers/STM32C0xx_HAL_Driver/Src/stm32c0xx_hal_dma.c ****   {
 332              		.loc 1 191 17 is_stmt 0 view .LVU95
 333 004c A268     		ldr	r2, [r4, #8]
 191:Drivers/STM32C0xx_HAL_Driver/Src/stm32c0xx_hal_dma.c ****   {
 334              		.loc 1 191 6 view .LVU96
 335 004e 8023     		movs	r3, #128
 336 0050 DB01     		lsls	r3, r3, #7
 337 0052 9A42     		cmp	r2, r3
 338 0054 18D0     		beq	.L20
 339              	.L16:
ARM GAS  C:\Users\simay\AppData\Local\Temp\cc43TqXJ.s 			page 26


 198:Drivers/STM32C0xx_HAL_Driver/Src/stm32c0xx_hal_dma.c **** 
 340              		.loc 1 198 3 is_stmt 1 view .LVU97
 198:Drivers/STM32C0xx_HAL_Driver/Src/stm32c0xx_hal_dma.c **** 
 341              		.loc 1 198 41 is_stmt 0 view .LVU98
 342 0056 6168     		ldr	r1, [r4, #4]
 198:Drivers/STM32C0xx_HAL_Driver/Src/stm32c0xx_hal_dma.c **** 
 343              		.loc 1 198 7 view .LVU99
 344 0058 626C     		ldr	r2, [r4, #68]
 198:Drivers/STM32C0xx_HAL_Driver/Src/stm32c0xx_hal_dma.c **** 
 345              		.loc 1 198 50 view .LVU100
 346 005a FF23     		movs	r3, #255
 347 005c 0B40     		ands	r3, r1
 198:Drivers/STM32C0xx_HAL_Driver/Src/stm32c0xx_hal_dma.c **** 
 348              		.loc 1 198 28 view .LVU101
 349 005e 1360     		str	r3, [r2]
 201:Drivers/STM32C0xx_HAL_Driver/Src/stm32c0xx_hal_dma.c **** 
 350              		.loc 1 201 3 is_stmt 1 view .LVU102
 201:Drivers/STM32C0xx_HAL_Driver/Src/stm32c0xx_hal_dma.c **** 
 351              		.loc 1 201 7 is_stmt 0 view .LVU103
 352 0060 A36C     		ldr	r3, [r4, #72]
 201:Drivers/STM32C0xx_HAL_Driver/Src/stm32c0xx_hal_dma.c **** 
 353              		.loc 1 201 40 view .LVU104
 354 0062 E26C     		ldr	r2, [r4, #76]
 201:Drivers/STM32C0xx_HAL_Driver/Src/stm32c0xx_hal_dma.c **** 
 355              		.loc 1 201 34 view .LVU105
 356 0064 5A60     		str	r2, [r3, #4]
 203:Drivers/STM32C0xx_HAL_Driver/Src/stm32c0xx_hal_dma.c ****   {
 357              		.loc 1 203 3 is_stmt 1 view .LVU106
 203:Drivers/STM32C0xx_HAL_Driver/Src/stm32c0xx_hal_dma.c ****   {
 358              		.loc 1 203 19 is_stmt 0 view .LVU107
 359 0066 6368     		ldr	r3, [r4, #4]
 203:Drivers/STM32C0xx_HAL_Driver/Src/stm32c0xx_hal_dma.c ****   {
 360              		.loc 1 203 35 view .LVU108
 361 0068 013B     		subs	r3, r3, #1
 203:Drivers/STM32C0xx_HAL_Driver/Src/stm32c0xx_hal_dma.c ****   {
 362              		.loc 1 203 6 view .LVU109
 363 006a 032B     		cmp	r3, #3
 364 006c 0FD9     		bls	.L21
 218:Drivers/STM32C0xx_HAL_Driver/Src/stm32c0xx_hal_dma.c ****     hdma->DMAmuxRequestGenStatus = 0U;
 365              		.loc 1 218 5 is_stmt 1 view .LVU110
 218:Drivers/STM32C0xx_HAL_Driver/Src/stm32c0xx_hal_dma.c ****     hdma->DMAmuxRequestGenStatus = 0U;
 366              		.loc 1 218 28 is_stmt 0 view .LVU111
 367 006e 0023     		movs	r3, #0
 368 0070 2365     		str	r3, [r4, #80]
 219:Drivers/STM32C0xx_HAL_Driver/Src/stm32c0xx_hal_dma.c ****     hdma->DMAmuxRequestGenStatusMask = 0U;
 369              		.loc 1 219 5 is_stmt 1 view .LVU112
 219:Drivers/STM32C0xx_HAL_Driver/Src/stm32c0xx_hal_dma.c ****     hdma->DMAmuxRequestGenStatusMask = 0U;
 370              		.loc 1 219 34 is_stmt 0 view .LVU113
 371 0072 6365     		str	r3, [r4, #84]
 220:Drivers/STM32C0xx_HAL_Driver/Src/stm32c0xx_hal_dma.c ****   }
 372              		.loc 1 220 5 is_stmt 1 view .LVU114
 220:Drivers/STM32C0xx_HAL_Driver/Src/stm32c0xx_hal_dma.c ****   }
 373              		.loc 1 220 38 is_stmt 0 view .LVU115
 374 0074 A365     		str	r3, [r4, #88]
 375              	.L18:
 224:Drivers/STM32C0xx_HAL_Driver/Src/stm32c0xx_hal_dma.c **** 
 376              		.loc 1 224 3 is_stmt 1 view .LVU116
ARM GAS  C:\Users\simay\AppData\Local\Temp\cc43TqXJ.s 			page 27


 224:Drivers/STM32C0xx_HAL_Driver/Src/stm32c0xx_hal_dma.c **** 
 377              		.loc 1 224 19 is_stmt 0 view .LVU117
 378 0076 0023     		movs	r3, #0
 379 0078 E363     		str	r3, [r4, #60]
 227:Drivers/STM32C0xx_HAL_Driver/Src/stm32c0xx_hal_dma.c **** 
 380              		.loc 1 227 3 is_stmt 1 view .LVU118
 227:Drivers/STM32C0xx_HAL_Driver/Src/stm32c0xx_hal_dma.c **** 
 381              		.loc 1 227 16 is_stmt 0 view .LVU119
 382 007a 2522     		movs	r2, #37
 383 007c 0121     		movs	r1, #1
 384 007e A154     		strb	r1, [r4, r2]
 230:Drivers/STM32C0xx_HAL_Driver/Src/stm32c0xx_hal_dma.c **** 
 385              		.loc 1 230 3 is_stmt 1 view .LVU120
 230:Drivers/STM32C0xx_HAL_Driver/Src/stm32c0xx_hal_dma.c **** 
 386              		.loc 1 230 3 view .LVU121
 387 0080 013A     		subs	r2, r2, #1
 388 0082 A354     		strb	r3, [r4, r2]
 230:Drivers/STM32C0xx_HAL_Driver/Src/stm32c0xx_hal_dma.c **** 
 389              		.loc 1 230 3 view .LVU122
 232:Drivers/STM32C0xx_HAL_Driver/Src/stm32c0xx_hal_dma.c **** }
 390              		.loc 1 232 3 view .LVU123
 232:Drivers/STM32C0xx_HAL_Driver/Src/stm32c0xx_hal_dma.c **** }
 391              		.loc 1 232 10 is_stmt 0 view .LVU124
 392 0084 0020     		movs	r0, #0
 393              	.L15:
 233:Drivers/STM32C0xx_HAL_Driver/Src/stm32c0xx_hal_dma.c **** 
 394              		.loc 1 233 1 view .LVU125
 395              		@ sp needed
 396              	.LVL18:
 233:Drivers/STM32C0xx_HAL_Driver/Src/stm32c0xx_hal_dma.c **** 
 397              		.loc 1 233 1 view .LVU126
 398 0086 70BD     		pop	{r4, r5, r6, pc}
 399              	.LVL19:
 400              	.L20:
 194:Drivers/STM32C0xx_HAL_Driver/Src/stm32c0xx_hal_dma.c ****   }
 401              		.loc 1 194 5 is_stmt 1 view .LVU127
 194:Drivers/STM32C0xx_HAL_Driver/Src/stm32c0xx_hal_dma.c ****   }
 402              		.loc 1 194 24 is_stmt 0 view .LVU128
 403 0088 0023     		movs	r3, #0
 404 008a 6360     		str	r3, [r4, #4]
 405 008c E3E7     		b	.L16
 406              	.L21:
 208:Drivers/STM32C0xx_HAL_Driver/Src/stm32c0xx_hal_dma.c **** 
 407              		.loc 1 208 5 is_stmt 1 view .LVU129
 408 008e 2000     		movs	r0, r4
 409 0090 FFF7FEFF 		bl	DMA_CalcDMAMUXRequestGenBaseAndMask
 410              	.LVL20:
 211:Drivers/STM32C0xx_HAL_Driver/Src/stm32c0xx_hal_dma.c **** 
 411              		.loc 1 211 5 view .LVU130
 211:Drivers/STM32C0xx_HAL_Driver/Src/stm32c0xx_hal_dma.c **** 
 412              		.loc 1 211 9 is_stmt 0 view .LVU131
 413 0094 236D     		ldr	r3, [r4, #80]
 211:Drivers/STM32C0xx_HAL_Driver/Src/stm32c0xx_hal_dma.c **** 
 414              		.loc 1 211 34 view .LVU132
 415 0096 0022     		movs	r2, #0
 416 0098 1A60     		str	r2, [r3]
 214:Drivers/STM32C0xx_HAL_Driver/Src/stm32c0xx_hal_dma.c ****   }
ARM GAS  C:\Users\simay\AppData\Local\Temp\cc43TqXJ.s 			page 28


 417              		.loc 1 214 5 is_stmt 1 view .LVU133
 214:Drivers/STM32C0xx_HAL_Driver/Src/stm32c0xx_hal_dma.c ****   }
 418              		.loc 1 214 9 is_stmt 0 view .LVU134
 419 009a 636D     		ldr	r3, [r4, #84]
 214:Drivers/STM32C0xx_HAL_Driver/Src/stm32c0xx_hal_dma.c ****   }
 420              		.loc 1 214 47 view .LVU135
 421 009c A26D     		ldr	r2, [r4, #88]
 214:Drivers/STM32C0xx_HAL_Driver/Src/stm32c0xx_hal_dma.c ****   }
 422              		.loc 1 214 41 view .LVU136
 423 009e 5A60     		str	r2, [r3, #4]
 424 00a0 E9E7     		b	.L18
 425              	.LVL21:
 426              	.L19:
 156:Drivers/STM32C0xx_HAL_Driver/Src/stm32c0xx_hal_dma.c ****   }
 427              		.loc 1 156 12 view .LVU137
 428 00a2 0120     		movs	r0, #1
 429              	.LVL22:
 156:Drivers/STM32C0xx_HAL_Driver/Src/stm32c0xx_hal_dma.c ****   }
 430              		.loc 1 156 12 view .LVU138
 431 00a4 EFE7     		b	.L15
 432              	.L23:
 433 00a6 C046     		.align	2
 434              	.L22:
 435 00a8 F8FFFDBF 		.word	-1073872904
 436 00ac 0F80FFFF 		.word	-32753
 437              		.cfi_endproc
 438              	.LFE230:
 440              		.section	.text.HAL_DMA_DeInit,"ax",%progbits
 441              		.align	1
 442              		.global	HAL_DMA_DeInit
 443              		.syntax unified
 444              		.code	16
 445              		.thumb_func
 447              	HAL_DMA_DeInit:
 448              	.LVL23:
 449              	.LFB231:
 242:Drivers/STM32C0xx_HAL_Driver/Src/stm32c0xx_hal_dma.c ****   /* Check the DMA handle allocation */
 450              		.loc 1 242 1 is_stmt 1 view -0
 451              		.cfi_startproc
 452              		@ args = 0, pretend = 0, frame = 0
 453              		@ frame_needed = 0, uses_anonymous_args = 0
 242:Drivers/STM32C0xx_HAL_Driver/Src/stm32c0xx_hal_dma.c ****   /* Check the DMA handle allocation */
 454              		.loc 1 242 1 is_stmt 0 view .LVU140
 455 0000 F8B5     		push	{r3, r4, r5, r6, r7, lr}
 456              	.LCFI3:
 457              		.cfi_def_cfa_offset 24
 458              		.cfi_offset 3, -24
 459              		.cfi_offset 4, -20
 460              		.cfi_offset 5, -16
 461              		.cfi_offset 6, -12
 462              		.cfi_offset 7, -8
 463              		.cfi_offset 14, -4
 464 0002 041E     		subs	r4, r0, #0
 244:Drivers/STM32C0xx_HAL_Driver/Src/stm32c0xx_hal_dma.c ****   {
 465              		.loc 1 244 3 is_stmt 1 view .LVU141
 244:Drivers/STM32C0xx_HAL_Driver/Src/stm32c0xx_hal_dma.c ****   {
 466              		.loc 1 244 6 is_stmt 0 view .LVU142
ARM GAS  C:\Users\simay\AppData\Local\Temp\cc43TqXJ.s 			page 29


 467 0004 3BD0     		beq	.L27
 250:Drivers/STM32C0xx_HAL_Driver/Src/stm32c0xx_hal_dma.c **** 
 468              		.loc 1 250 3 is_stmt 1 view .LVU143
 253:Drivers/STM32C0xx_HAL_Driver/Src/stm32c0xx_hal_dma.c **** 
 469              		.loc 1 253 3 view .LVU144
 470 0006 0268     		ldr	r2, [r0]
 471 0008 1368     		ldr	r3, [r2]
 472 000a 0125     		movs	r5, #1
 473 000c AB43     		bics	r3, r5
 474 000e 1360     		str	r3, [r2]
 256:Drivers/STM32C0xx_HAL_Driver/Src/stm32c0xx_hal_dma.c ****                                                                                 (uint32_t)DMA1_Chan
 475              		.loc 1 256 3 view .LVU145
 256:Drivers/STM32C0xx_HAL_Driver/Src/stm32c0xx_hal_dma.c ****                                                                                 (uint32_t)DMA1_Chan
 476              		.loc 1 256 40 is_stmt 0 view .LVU146
 477 0010 0768     		ldr	r7, [r0]
 256:Drivers/STM32C0xx_HAL_Driver/Src/stm32c0xx_hal_dma.c ****                                                                                 (uint32_t)DMA1_Chan
 478              		.loc 1 256 51 view .LVU147
 479 0012 1C4B     		ldr	r3, .L29
 480 0014 F818     		adds	r0, r7, r3
 481              	.LVL24:
 256:Drivers/STM32C0xx_HAL_Driver/Src/stm32c0xx_hal_dma.c ****                                                                                 (uint32_t)DMA1_Chan
 482              		.loc 1 256 78 view .LVU148
 483 0016 1421     		movs	r1, #20
 484 0018 FFF7FEFF 		bl	__aeabi_uidiv
 485              	.LVL25:
 257:Drivers/STM32C0xx_HAL_Driver/Src/stm32c0xx_hal_dma.c **** 
 486              		.loc 1 257 107 view .LVU149
 487 001c 8000     		lsls	r0, r0, #2
 256:Drivers/STM32C0xx_HAL_Driver/Src/stm32c0xx_hal_dma.c ****                                                                                 (uint32_t)DMA1_Chan
 488              		.loc 1 256 22 view .LVU150
 489 001e 2064     		str	r0, [r4, #64]
 260:Drivers/STM32C0xx_HAL_Driver/Src/stm32c0xx_hal_dma.c **** 
 490              		.loc 1 260 3 is_stmt 1 view .LVU151
 260:Drivers/STM32C0xx_HAL_Driver/Src/stm32c0xx_hal_dma.c **** 
 491              		.loc 1 260 24 is_stmt 0 view .LVU152
 492 0020 0026     		movs	r6, #0
 493 0022 3E60     		str	r6, [r7]
 263:Drivers/STM32C0xx_HAL_Driver/Src/stm32c0xx_hal_dma.c **** 
 494              		.loc 1 263 3 is_stmt 1 view .LVU153
 495 0024 1849     		ldr	r1, .L29+4
 496 0026 4B68     		ldr	r3, [r1, #4]
 497 0028 206C     		ldr	r0, [r4, #64]
 498 002a 1C22     		movs	r2, #28
 499 002c 0240     		ands	r2, r0
 500 002e 9540     		lsls	r5, r5, r2
 501 0030 2B43     		orrs	r3, r5
 502 0032 4B60     		str	r3, [r1, #4]
 268:Drivers/STM32C0xx_HAL_Driver/Src/stm32c0xx_hal_dma.c **** 
 503              		.loc 1 268 3 view .LVU154
 504 0034 2000     		movs	r0, r4
 505 0036 FFF7FEFF 		bl	DMA_CalcDMAMUXChannelBaseAndMask
 506              	.LVL26:
 271:Drivers/STM32C0xx_HAL_Driver/Src/stm32c0xx_hal_dma.c **** 
 507              		.loc 1 271 3 view .LVU155
 271:Drivers/STM32C0xx_HAL_Driver/Src/stm32c0xx_hal_dma.c **** 
 508              		.loc 1 271 7 is_stmt 0 view .LVU156
 509 003a 636C     		ldr	r3, [r4, #68]
ARM GAS  C:\Users\simay\AppData\Local\Temp\cc43TqXJ.s 			page 30


 271:Drivers/STM32C0xx_HAL_Driver/Src/stm32c0xx_hal_dma.c **** 
 510              		.loc 1 271 28 view .LVU157
 511 003c 1E60     		str	r6, [r3]
 274:Drivers/STM32C0xx_HAL_Driver/Src/stm32c0xx_hal_dma.c **** 
 512              		.loc 1 274 3 is_stmt 1 view .LVU158
 274:Drivers/STM32C0xx_HAL_Driver/Src/stm32c0xx_hal_dma.c **** 
 513              		.loc 1 274 7 is_stmt 0 view .LVU159
 514 003e A36C     		ldr	r3, [r4, #72]
 274:Drivers/STM32C0xx_HAL_Driver/Src/stm32c0xx_hal_dma.c **** 
 515              		.loc 1 274 40 view .LVU160
 516 0040 E26C     		ldr	r2, [r4, #76]
 274:Drivers/STM32C0xx_HAL_Driver/Src/stm32c0xx_hal_dma.c **** 
 517              		.loc 1 274 34 view .LVU161
 518 0042 5A60     		str	r2, [r3, #4]
 277:Drivers/STM32C0xx_HAL_Driver/Src/stm32c0xx_hal_dma.c ****   {
 519              		.loc 1 277 3 is_stmt 1 view .LVU162
 277:Drivers/STM32C0xx_HAL_Driver/Src/stm32c0xx_hal_dma.c ****   {
 520              		.loc 1 277 19 is_stmt 0 view .LVU163
 521 0044 6368     		ldr	r3, [r4, #4]
 277:Drivers/STM32C0xx_HAL_Driver/Src/stm32c0xx_hal_dma.c ****   {
 522              		.loc 1 277 36 view .LVU164
 523 0046 013B     		subs	r3, r3, #1
 277:Drivers/STM32C0xx_HAL_Driver/Src/stm32c0xx_hal_dma.c ****   {
 524              		.loc 1 277 6 view .LVU165
 525 0048 032B     		cmp	r3, #3
 526 004a 0ED9     		bls	.L28
 527              	.L26:
 292:Drivers/STM32C0xx_HAL_Driver/Src/stm32c0xx_hal_dma.c ****   hdma->XferHalfCpltCallback = NULL;
 528              		.loc 1 292 3 is_stmt 1 view .LVU166
 292:Drivers/STM32C0xx_HAL_Driver/Src/stm32c0xx_hal_dma.c ****   hdma->XferHalfCpltCallback = NULL;
 529              		.loc 1 292 26 is_stmt 0 view .LVU167
 530 004c 0023     		movs	r3, #0
 531 004e E362     		str	r3, [r4, #44]
 293:Drivers/STM32C0xx_HAL_Driver/Src/stm32c0xx_hal_dma.c ****   hdma->XferErrorCallback = NULL;
 532              		.loc 1 293 3 is_stmt 1 view .LVU168
 293:Drivers/STM32C0xx_HAL_Driver/Src/stm32c0xx_hal_dma.c ****   hdma->XferErrorCallback = NULL;
 533              		.loc 1 293 30 is_stmt 0 view .LVU169
 534 0050 2363     		str	r3, [r4, #48]
 294:Drivers/STM32C0xx_HAL_Driver/Src/stm32c0xx_hal_dma.c ****   hdma->XferAbortCallback = NULL;
 535              		.loc 1 294 3 is_stmt 1 view .LVU170
 294:Drivers/STM32C0xx_HAL_Driver/Src/stm32c0xx_hal_dma.c ****   hdma->XferAbortCallback = NULL;
 536              		.loc 1 294 27 is_stmt 0 view .LVU171
 537 0052 6363     		str	r3, [r4, #52]
 295:Drivers/STM32C0xx_HAL_Driver/Src/stm32c0xx_hal_dma.c **** 
 538              		.loc 1 295 3 is_stmt 1 view .LVU172
 295:Drivers/STM32C0xx_HAL_Driver/Src/stm32c0xx_hal_dma.c **** 
 539              		.loc 1 295 27 is_stmt 0 view .LVU173
 540 0054 A363     		str	r3, [r4, #56]
 297:Drivers/STM32C0xx_HAL_Driver/Src/stm32c0xx_hal_dma.c ****   hdma->DMAmuxRequestGenStatus = 0U;
 541              		.loc 1 297 3 is_stmt 1 view .LVU174
 297:Drivers/STM32C0xx_HAL_Driver/Src/stm32c0xx_hal_dma.c ****   hdma->DMAmuxRequestGenStatus = 0U;
 542              		.loc 1 297 26 is_stmt 0 view .LVU175
 543 0056 2365     		str	r3, [r4, #80]
 298:Drivers/STM32C0xx_HAL_Driver/Src/stm32c0xx_hal_dma.c ****   hdma->DMAmuxRequestGenStatusMask = 0U;
 544              		.loc 1 298 3 is_stmt 1 view .LVU176
 298:Drivers/STM32C0xx_HAL_Driver/Src/stm32c0xx_hal_dma.c ****   hdma->DMAmuxRequestGenStatusMask = 0U;
 545              		.loc 1 298 32 is_stmt 0 view .LVU177
ARM GAS  C:\Users\simay\AppData\Local\Temp\cc43TqXJ.s 			page 31


 546 0058 6365     		str	r3, [r4, #84]
 299:Drivers/STM32C0xx_HAL_Driver/Src/stm32c0xx_hal_dma.c **** 
 547              		.loc 1 299 3 is_stmt 1 view .LVU178
 299:Drivers/STM32C0xx_HAL_Driver/Src/stm32c0xx_hal_dma.c **** 
 548              		.loc 1 299 36 is_stmt 0 view .LVU179
 549 005a A365     		str	r3, [r4, #88]
 302:Drivers/STM32C0xx_HAL_Driver/Src/stm32c0xx_hal_dma.c **** 
 550              		.loc 1 302 3 is_stmt 1 view .LVU180
 302:Drivers/STM32C0xx_HAL_Driver/Src/stm32c0xx_hal_dma.c **** 
 551              		.loc 1 302 19 is_stmt 0 view .LVU181
 552 005c E363     		str	r3, [r4, #60]
 305:Drivers/STM32C0xx_HAL_Driver/Src/stm32c0xx_hal_dma.c **** 
 553              		.loc 1 305 3 is_stmt 1 view .LVU182
 305:Drivers/STM32C0xx_HAL_Driver/Src/stm32c0xx_hal_dma.c **** 
 554              		.loc 1 305 15 is_stmt 0 view .LVU183
 555 005e 2522     		movs	r2, #37
 556 0060 A354     		strb	r3, [r4, r2]
 308:Drivers/STM32C0xx_HAL_Driver/Src/stm32c0xx_hal_dma.c **** 
 557              		.loc 1 308 3 is_stmt 1 view .LVU184
 308:Drivers/STM32C0xx_HAL_Driver/Src/stm32c0xx_hal_dma.c **** 
 558              		.loc 1 308 3 view .LVU185
 559 0062 013A     		subs	r2, r2, #1
 560 0064 A354     		strb	r3, [r4, r2]
 308:Drivers/STM32C0xx_HAL_Driver/Src/stm32c0xx_hal_dma.c **** 
 561              		.loc 1 308 3 view .LVU186
 310:Drivers/STM32C0xx_HAL_Driver/Src/stm32c0xx_hal_dma.c **** }
 562              		.loc 1 310 3 view .LVU187
 310:Drivers/STM32C0xx_HAL_Driver/Src/stm32c0xx_hal_dma.c **** }
 563              		.loc 1 310 10 is_stmt 0 view .LVU188
 564 0066 0020     		movs	r0, #0
 565              	.L25:
 311:Drivers/STM32C0xx_HAL_Driver/Src/stm32c0xx_hal_dma.c **** 
 566              		.loc 1 311 1 view .LVU189
 567              		@ sp needed
 568              	.LVL27:
 311:Drivers/STM32C0xx_HAL_Driver/Src/stm32c0xx_hal_dma.c **** 
 569              		.loc 1 311 1 view .LVU190
 570 0068 F8BD     		pop	{r3, r4, r5, r6, r7, pc}
 571              	.LVL28:
 572              	.L28:
 282:Drivers/STM32C0xx_HAL_Driver/Src/stm32c0xx_hal_dma.c **** 
 573              		.loc 1 282 5 is_stmt 1 view .LVU191
 574 006a 2000     		movs	r0, r4
 575 006c FFF7FEFF 		bl	DMA_CalcDMAMUXRequestGenBaseAndMask
 576              	.LVL29:
 285:Drivers/STM32C0xx_HAL_Driver/Src/stm32c0xx_hal_dma.c **** 
 577              		.loc 1 285 5 view .LVU192
 285:Drivers/STM32C0xx_HAL_Driver/Src/stm32c0xx_hal_dma.c **** 
 578              		.loc 1 285 9 is_stmt 0 view .LVU193
 579 0070 236D     		ldr	r3, [r4, #80]
 285:Drivers/STM32C0xx_HAL_Driver/Src/stm32c0xx_hal_dma.c **** 
 580              		.loc 1 285 34 view .LVU194
 581 0072 0022     		movs	r2, #0
 582 0074 1A60     		str	r2, [r3]
 288:Drivers/STM32C0xx_HAL_Driver/Src/stm32c0xx_hal_dma.c ****   }
 583              		.loc 1 288 5 is_stmt 1 view .LVU195
 288:Drivers/STM32C0xx_HAL_Driver/Src/stm32c0xx_hal_dma.c ****   }
ARM GAS  C:\Users\simay\AppData\Local\Temp\cc43TqXJ.s 			page 32


 584              		.loc 1 288 9 is_stmt 0 view .LVU196
 585 0076 636D     		ldr	r3, [r4, #84]
 288:Drivers/STM32C0xx_HAL_Driver/Src/stm32c0xx_hal_dma.c ****   }
 586              		.loc 1 288 47 view .LVU197
 587 0078 A26D     		ldr	r2, [r4, #88]
 288:Drivers/STM32C0xx_HAL_Driver/Src/stm32c0xx_hal_dma.c ****   }
 588              		.loc 1 288 41 view .LVU198
 589 007a 5A60     		str	r2, [r3, #4]
 590 007c E6E7     		b	.L26
 591              	.LVL30:
 592              	.L27:
 246:Drivers/STM32C0xx_HAL_Driver/Src/stm32c0xx_hal_dma.c ****   }
 593              		.loc 1 246 12 view .LVU199
 594 007e 0120     		movs	r0, #1
 595              	.LVL31:
 246:Drivers/STM32C0xx_HAL_Driver/Src/stm32c0xx_hal_dma.c ****   }
 596              		.loc 1 246 12 view .LVU200
 597 0080 F2E7     		b	.L25
 598              	.L30:
 599 0082 C046     		.align	2
 600              	.L29:
 601 0084 F8FFFDBF 		.word	-1073872904
 602 0088 00000240 		.word	1073872896
 603              		.cfi_endproc
 604              	.LFE231:
 606              		.section	.text.HAL_DMA_Start,"ax",%progbits
 607              		.align	1
 608              		.global	HAL_DMA_Start
 609              		.syntax unified
 610              		.code	16
 611              		.thumb_func
 613              	HAL_DMA_Start:
 614              	.LVL32:
 615              	.LFB232:
 346:Drivers/STM32C0xx_HAL_Driver/Src/stm32c0xx_hal_dma.c ****   HAL_StatusTypeDef status = HAL_OK;
 616              		.loc 1 346 1 is_stmt 1 view -0
 617              		.cfi_startproc
 618              		@ args = 0, pretend = 0, frame = 0
 619              		@ frame_needed = 0, uses_anonymous_args = 0
 346:Drivers/STM32C0xx_HAL_Driver/Src/stm32c0xx_hal_dma.c ****   HAL_StatusTypeDef status = HAL_OK;
 620              		.loc 1 346 1 is_stmt 0 view .LVU202
 621 0000 70B5     		push	{r4, r5, r6, lr}
 622              	.LCFI4:
 623              		.cfi_def_cfa_offset 16
 624              		.cfi_offset 4, -16
 625              		.cfi_offset 5, -12
 626              		.cfi_offset 6, -8
 627              		.cfi_offset 14, -4
 628 0002 0400     		movs	r4, r0
 347:Drivers/STM32C0xx_HAL_Driver/Src/stm32c0xx_hal_dma.c **** 
 629              		.loc 1 347 3 is_stmt 1 view .LVU203
 630              	.LVL33:
 350:Drivers/STM32C0xx_HAL_Driver/Src/stm32c0xx_hal_dma.c **** 
 631              		.loc 1 350 3 view .LVU204
 353:Drivers/STM32C0xx_HAL_Driver/Src/stm32c0xx_hal_dma.c **** 
 632              		.loc 1 353 3 view .LVU205
 353:Drivers/STM32C0xx_HAL_Driver/Src/stm32c0xx_hal_dma.c **** 
ARM GAS  C:\Users\simay\AppData\Local\Temp\cc43TqXJ.s 			page 33


 633              		.loc 1 353 3 view .LVU206
 634 0004 2420     		movs	r0, #36
 635              	.LVL34:
 353:Drivers/STM32C0xx_HAL_Driver/Src/stm32c0xx_hal_dma.c **** 
 636              		.loc 1 353 3 is_stmt 0 view .LVU207
 637 0006 205C     		ldrb	r0, [r4, r0]
 638 0008 0128     		cmp	r0, #1
 639 000a 21D0     		beq	.L35
 353:Drivers/STM32C0xx_HAL_Driver/Src/stm32c0xx_hal_dma.c **** 
 640              		.loc 1 353 3 is_stmt 1 discriminator 2 view .LVU208
 641 000c 2420     		movs	r0, #36
 642 000e 0125     		movs	r5, #1
 643 0010 2554     		strb	r5, [r4, r0]
 353:Drivers/STM32C0xx_HAL_Driver/Src/stm32c0xx_hal_dma.c **** 
 644              		.loc 1 353 3 view .LVU209
 355:Drivers/STM32C0xx_HAL_Driver/Src/stm32c0xx_hal_dma.c ****   {
 645              		.loc 1 355 3 view .LVU210
 355:Drivers/STM32C0xx_HAL_Driver/Src/stm32c0xx_hal_dma.c ****   {
 646              		.loc 1 355 34 is_stmt 0 view .LVU211
 647 0012 0130     		adds	r0, r0, #1
 648 0014 205C     		ldrb	r0, [r4, r0]
 355:Drivers/STM32C0xx_HAL_Driver/Src/stm32c0xx_hal_dma.c ****   {
 649              		.loc 1 355 6 view .LVU212
 650 0016 0128     		cmp	r0, #1
 651 0018 07D0     		beq	.L36
 373:Drivers/STM32C0xx_HAL_Driver/Src/stm32c0xx_hal_dma.c ****     status = HAL_BUSY;
 652              		.loc 1 373 5 is_stmt 1 view .LVU213
 373:Drivers/STM32C0xx_HAL_Driver/Src/stm32c0xx_hal_dma.c ****     status = HAL_BUSY;
 653              		.loc 1 373 5 view .LVU214
 654 001a 2423     		movs	r3, #36
 655              	.LVL35:
 373:Drivers/STM32C0xx_HAL_Driver/Src/stm32c0xx_hal_dma.c ****     status = HAL_BUSY;
 656              		.loc 1 373 5 is_stmt 0 view .LVU215
 657 001c 0022     		movs	r2, #0
 658              	.LVL36:
 373:Drivers/STM32C0xx_HAL_Driver/Src/stm32c0xx_hal_dma.c ****     status = HAL_BUSY;
 659              		.loc 1 373 5 view .LVU216
 660 001e E254     		strb	r2, [r4, r3]
 373:Drivers/STM32C0xx_HAL_Driver/Src/stm32c0xx_hal_dma.c ****     status = HAL_BUSY;
 661              		.loc 1 373 5 is_stmt 1 view .LVU217
 374:Drivers/STM32C0xx_HAL_Driver/Src/stm32c0xx_hal_dma.c ****   }
 662              		.loc 1 374 5 view .LVU218
 663              	.LVL37:
 374:Drivers/STM32C0xx_HAL_Driver/Src/stm32c0xx_hal_dma.c ****   }
 664              		.loc 1 374 12 is_stmt 0 view .LVU219
 665 0020 0220     		movs	r0, #2
 666              	.LVL38:
 667              	.L34:
 378:Drivers/STM32C0xx_HAL_Driver/Src/stm32c0xx_hal_dma.c **** 
 668              		.loc 1 378 3 is_stmt 1 view .LVU220
 378:Drivers/STM32C0xx_HAL_Driver/Src/stm32c0xx_hal_dma.c **** 
 669              		.loc 1 378 3 view .LVU221
 670 0022 2423     		movs	r3, #36
 671 0024 0022     		movs	r2, #0
 672 0026 E254     		strb	r2, [r4, r3]
 378:Drivers/STM32C0xx_HAL_Driver/Src/stm32c0xx_hal_dma.c **** 
 673              		.loc 1 378 3 view .LVU222
ARM GAS  C:\Users\simay\AppData\Local\Temp\cc43TqXJ.s 			page 34


 380:Drivers/STM32C0xx_HAL_Driver/Src/stm32c0xx_hal_dma.c **** }
 674              		.loc 1 380 3 view .LVU223
 675              	.LVL39:
 676              	.L32:
 381:Drivers/STM32C0xx_HAL_Driver/Src/stm32c0xx_hal_dma.c **** 
 677              		.loc 1 381 1 is_stmt 0 view .LVU224
 678              		@ sp needed
 679              	.LVL40:
 381:Drivers/STM32C0xx_HAL_Driver/Src/stm32c0xx_hal_dma.c **** 
 680              		.loc 1 381 1 view .LVU225
 681 0028 70BD     		pop	{r4, r5, r6, pc}
 682              	.LVL41:
 683              	.L36:
 358:Drivers/STM32C0xx_HAL_Driver/Src/stm32c0xx_hal_dma.c ****     hdma->ErrorCode = HAL_DMA_ERROR_NONE;
 684              		.loc 1 358 5 is_stmt 1 view .LVU226
 358:Drivers/STM32C0xx_HAL_Driver/Src/stm32c0xx_hal_dma.c ****     hdma->ErrorCode = HAL_DMA_ERROR_NONE;
 685              		.loc 1 358 17 is_stmt 0 view .LVU227
 686 002a 2430     		adds	r0, r0, #36
 687 002c 0135     		adds	r5, r5, #1
 688 002e 2554     		strb	r5, [r4, r0]
 359:Drivers/STM32C0xx_HAL_Driver/Src/stm32c0xx_hal_dma.c **** 
 689              		.loc 1 359 5 is_stmt 1 view .LVU228
 359:Drivers/STM32C0xx_HAL_Driver/Src/stm32c0xx_hal_dma.c **** 
 690              		.loc 1 359 21 is_stmt 0 view .LVU229
 691 0030 0020     		movs	r0, #0
 692 0032 E063     		str	r0, [r4, #60]
 362:Drivers/STM32C0xx_HAL_Driver/Src/stm32c0xx_hal_dma.c **** 
 693              		.loc 1 362 5 is_stmt 1 view .LVU230
 694 0034 2668     		ldr	r6, [r4]
 695 0036 3068     		ldr	r0, [r6]
 696 0038 013D     		subs	r5, r5, #1
 697 003a A843     		bics	r0, r5
 698 003c 3060     		str	r0, [r6]
 365:Drivers/STM32C0xx_HAL_Driver/Src/stm32c0xx_hal_dma.c **** 
 699              		.loc 1 365 5 view .LVU231
 700 003e 2000     		movs	r0, r4
 701 0040 FFF7FEFF 		bl	DMA_SetConfig
 702              	.LVL42:
 368:Drivers/STM32C0xx_HAL_Driver/Src/stm32c0xx_hal_dma.c ****   }
 703              		.loc 1 368 5 view .LVU232
 704 0044 2268     		ldr	r2, [r4]
 705 0046 1368     		ldr	r3, [r2]
 706 0048 2B43     		orrs	r3, r5
 707 004a 1360     		str	r3, [r2]
 347:Drivers/STM32C0xx_HAL_Driver/Src/stm32c0xx_hal_dma.c **** 
 708              		.loc 1 347 21 is_stmt 0 view .LVU233
 709 004c 0020     		movs	r0, #0
 710 004e E8E7     		b	.L34
 711              	.LVL43:
 712              	.L35:
 353:Drivers/STM32C0xx_HAL_Driver/Src/stm32c0xx_hal_dma.c **** 
 713              		.loc 1 353 3 discriminator 1 view .LVU234
 714 0050 0220     		movs	r0, #2
 715 0052 E9E7     		b	.L32
 716              		.cfi_endproc
 717              	.LFE232:
 719              		.section	.text.HAL_DMA_Start_IT,"ax",%progbits
ARM GAS  C:\Users\simay\AppData\Local\Temp\cc43TqXJ.s 			page 35


 720              		.align	1
 721              		.global	HAL_DMA_Start_IT
 722              		.syntax unified
 723              		.code	16
 724              		.thumb_func
 726              	HAL_DMA_Start_IT:
 727              	.LVL44:
 728              	.LFB233:
 394:Drivers/STM32C0xx_HAL_Driver/Src/stm32c0xx_hal_dma.c ****   HAL_StatusTypeDef status = HAL_OK;
 729              		.loc 1 394 1 is_stmt 1 view -0
 730              		.cfi_startproc
 731              		@ args = 0, pretend = 0, frame = 0
 732              		@ frame_needed = 0, uses_anonymous_args = 0
 394:Drivers/STM32C0xx_HAL_Driver/Src/stm32c0xx_hal_dma.c ****   HAL_StatusTypeDef status = HAL_OK;
 733              		.loc 1 394 1 is_stmt 0 view .LVU236
 734 0000 70B5     		push	{r4, r5, r6, lr}
 735              	.LCFI5:
 736              		.cfi_def_cfa_offset 16
 737              		.cfi_offset 4, -16
 738              		.cfi_offset 5, -12
 739              		.cfi_offset 6, -8
 740              		.cfi_offset 14, -4
 741 0002 0400     		movs	r4, r0
 395:Drivers/STM32C0xx_HAL_Driver/Src/stm32c0xx_hal_dma.c **** 
 742              		.loc 1 395 3 is_stmt 1 view .LVU237
 743              	.LVL45:
 398:Drivers/STM32C0xx_HAL_Driver/Src/stm32c0xx_hal_dma.c **** 
 744              		.loc 1 398 3 view .LVU238
 401:Drivers/STM32C0xx_HAL_Driver/Src/stm32c0xx_hal_dma.c **** 
 745              		.loc 1 401 3 view .LVU239
 401:Drivers/STM32C0xx_HAL_Driver/Src/stm32c0xx_hal_dma.c **** 
 746              		.loc 1 401 3 view .LVU240
 747 0004 2420     		movs	r0, #36
 748              	.LVL46:
 401:Drivers/STM32C0xx_HAL_Driver/Src/stm32c0xx_hal_dma.c **** 
 749              		.loc 1 401 3 is_stmt 0 view .LVU241
 750 0006 205C     		ldrb	r0, [r4, r0]
 751 0008 0128     		cmp	r0, #1
 752 000a 46D0     		beq	.L45
 401:Drivers/STM32C0xx_HAL_Driver/Src/stm32c0xx_hal_dma.c **** 
 753              		.loc 1 401 3 is_stmt 1 discriminator 2 view .LVU242
 754 000c 2420     		movs	r0, #36
 755 000e 0125     		movs	r5, #1
 756 0010 2554     		strb	r5, [r4, r0]
 401:Drivers/STM32C0xx_HAL_Driver/Src/stm32c0xx_hal_dma.c **** 
 757              		.loc 1 401 3 view .LVU243
 403:Drivers/STM32C0xx_HAL_Driver/Src/stm32c0xx_hal_dma.c ****   {
 758              		.loc 1 403 3 view .LVU244
 403:Drivers/STM32C0xx_HAL_Driver/Src/stm32c0xx_hal_dma.c ****   {
 759              		.loc 1 403 34 is_stmt 0 view .LVU245
 760 0012 0130     		adds	r0, r0, #1
 761 0014 205C     		ldrb	r0, [r4, r0]
 403:Drivers/STM32C0xx_HAL_Driver/Src/stm32c0xx_hal_dma.c ****   {
 762              		.loc 1 403 6 view .LVU246
 763 0016 0128     		cmp	r0, #1
 764 0018 07D0     		beq	.L47
 448:Drivers/STM32C0xx_HAL_Driver/Src/stm32c0xx_hal_dma.c **** 
ARM GAS  C:\Users\simay\AppData\Local\Temp\cc43TqXJ.s 			page 36


 765              		.loc 1 448 5 is_stmt 1 view .LVU247
 448:Drivers/STM32C0xx_HAL_Driver/Src/stm32c0xx_hal_dma.c **** 
 766              		.loc 1 448 5 view .LVU248
 767 001a 2423     		movs	r3, #36
 768              	.LVL47:
 448:Drivers/STM32C0xx_HAL_Driver/Src/stm32c0xx_hal_dma.c **** 
 769              		.loc 1 448 5 is_stmt 0 view .LVU249
 770 001c 0022     		movs	r2, #0
 771              	.LVL48:
 448:Drivers/STM32C0xx_HAL_Driver/Src/stm32c0xx_hal_dma.c **** 
 772              		.loc 1 448 5 view .LVU250
 773 001e E254     		strb	r2, [r4, r3]
 448:Drivers/STM32C0xx_HAL_Driver/Src/stm32c0xx_hal_dma.c **** 
 774              		.loc 1 448 5 is_stmt 1 view .LVU251
 451:Drivers/STM32C0xx_HAL_Driver/Src/stm32c0xx_hal_dma.c ****   }
 775              		.loc 1 451 5 view .LVU252
 776              	.LVL49:
 451:Drivers/STM32C0xx_HAL_Driver/Src/stm32c0xx_hal_dma.c ****   }
 777              		.loc 1 451 12 is_stmt 0 view .LVU253
 778 0020 0220     		movs	r0, #2
 779              	.LVL50:
 780              	.L44:
 455:Drivers/STM32C0xx_HAL_Driver/Src/stm32c0xx_hal_dma.c **** 
 781              		.loc 1 455 3 is_stmt 1 view .LVU254
 455:Drivers/STM32C0xx_HAL_Driver/Src/stm32c0xx_hal_dma.c **** 
 782              		.loc 1 455 3 view .LVU255
 783 0022 2423     		movs	r3, #36
 784 0024 0022     		movs	r2, #0
 785 0026 E254     		strb	r2, [r4, r3]
 455:Drivers/STM32C0xx_HAL_Driver/Src/stm32c0xx_hal_dma.c **** 
 786              		.loc 1 455 3 view .LVU256
 457:Drivers/STM32C0xx_HAL_Driver/Src/stm32c0xx_hal_dma.c **** }
 787              		.loc 1 457 3 view .LVU257
 788              	.LVL51:
 789              	.L38:
 458:Drivers/STM32C0xx_HAL_Driver/Src/stm32c0xx_hal_dma.c **** 
 790              		.loc 1 458 1 is_stmt 0 view .LVU258
 791              		@ sp needed
 792              	.LVL52:
 458:Drivers/STM32C0xx_HAL_Driver/Src/stm32c0xx_hal_dma.c **** 
 793              		.loc 1 458 1 view .LVU259
 794 0028 70BD     		pop	{r4, r5, r6, pc}
 795              	.LVL53:
 796              	.L47:
 406:Drivers/STM32C0xx_HAL_Driver/Src/stm32c0xx_hal_dma.c ****     hdma->ErrorCode = HAL_DMA_ERROR_NONE;
 797              		.loc 1 406 5 is_stmt 1 view .LVU260
 406:Drivers/STM32C0xx_HAL_Driver/Src/stm32c0xx_hal_dma.c ****     hdma->ErrorCode = HAL_DMA_ERROR_NONE;
 798              		.loc 1 406 17 is_stmt 0 view .LVU261
 799 002a 2430     		adds	r0, r0, #36
 800 002c 0135     		adds	r5, r5, #1
 801 002e 2554     		strb	r5, [r4, r0]
 407:Drivers/STM32C0xx_HAL_Driver/Src/stm32c0xx_hal_dma.c **** 
 802              		.loc 1 407 5 is_stmt 1 view .LVU262
 407:Drivers/STM32C0xx_HAL_Driver/Src/stm32c0xx_hal_dma.c **** 
 803              		.loc 1 407 21 is_stmt 0 view .LVU263
 804 0030 0020     		movs	r0, #0
 805 0032 E063     		str	r0, [r4, #60]
ARM GAS  C:\Users\simay\AppData\Local\Temp\cc43TqXJ.s 			page 37


 410:Drivers/STM32C0xx_HAL_Driver/Src/stm32c0xx_hal_dma.c **** 
 806              		.loc 1 410 5 is_stmt 1 view .LVU264
 807 0034 2568     		ldr	r5, [r4]
 808 0036 2868     		ldr	r0, [r5]
 809 0038 0126     		movs	r6, #1
 810 003a B043     		bics	r0, r6
 811 003c 2860     		str	r0, [r5]
 413:Drivers/STM32C0xx_HAL_Driver/Src/stm32c0xx_hal_dma.c **** 
 812              		.loc 1 413 5 view .LVU265
 813 003e 2000     		movs	r0, r4
 814 0040 FFF7FEFF 		bl	DMA_SetConfig
 815              	.LVL54:
 417:Drivers/STM32C0xx_HAL_Driver/Src/stm32c0xx_hal_dma.c ****     {
 816              		.loc 1 417 5 view .LVU266
 417:Drivers/STM32C0xx_HAL_Driver/Src/stm32c0xx_hal_dma.c ****     {
 817              		.loc 1 417 21 is_stmt 0 view .LVU267
 818 0044 236B     		ldr	r3, [r4, #48]
 417:Drivers/STM32C0xx_HAL_Driver/Src/stm32c0xx_hal_dma.c ****     {
 819              		.loc 1 417 8 view .LVU268
 820 0046 002B     		cmp	r3, #0
 821 0048 1CD0     		beq	.L40
 420:Drivers/STM32C0xx_HAL_Driver/Src/stm32c0xx_hal_dma.c ****     }
 822              		.loc 1 420 7 is_stmt 1 view .LVU269
 823 004a 2268     		ldr	r2, [r4]
 824 004c 1368     		ldr	r3, [r2]
 825 004e 0E21     		movs	r1, #14
 826 0050 0B43     		orrs	r3, r1
 827 0052 1360     		str	r3, [r2]
 828              	.L41:
 429:Drivers/STM32C0xx_HAL_Driver/Src/stm32c0xx_hal_dma.c ****     {
 829              		.loc 1 429 5 view .LVU270
 429:Drivers/STM32C0xx_HAL_Driver/Src/stm32c0xx_hal_dma.c ****     {
 830              		.loc 1 429 14 is_stmt 0 view .LVU271
 831 0054 626C     		ldr	r2, [r4, #68]
 429:Drivers/STM32C0xx_HAL_Driver/Src/stm32c0xx_hal_dma.c ****     {
 832              		.loc 1 429 29 view .LVU272
 833 0056 1368     		ldr	r3, [r2]
 429:Drivers/STM32C0xx_HAL_Driver/Src/stm32c0xx_hal_dma.c ****     {
 834              		.loc 1 429 8 view .LVU273
 835 0058 DB03     		lsls	r3, r3, #15
 836 005a 04D5     		bpl	.L42
 432:Drivers/STM32C0xx_HAL_Driver/Src/stm32c0xx_hal_dma.c ****     }
 837              		.loc 1 432 7 is_stmt 1 view .LVU274
 432:Drivers/STM32C0xx_HAL_Driver/Src/stm32c0xx_hal_dma.c ****     }
 838              		.loc 1 432 26 is_stmt 0 view .LVU275
 839 005c 1168     		ldr	r1, [r2]
 432:Drivers/STM32C0xx_HAL_Driver/Src/stm32c0xx_hal_dma.c ****     }
 840              		.loc 1 432 32 view .LVU276
 841 005e 8023     		movs	r3, #128
 842 0060 5B00     		lsls	r3, r3, #1
 843 0062 0B43     		orrs	r3, r1
 844 0064 1360     		str	r3, [r2]
 845              	.L42:
 435:Drivers/STM32C0xx_HAL_Driver/Src/stm32c0xx_hal_dma.c ****     {
 846              		.loc 1 435 5 is_stmt 1 view .LVU277
 435:Drivers/STM32C0xx_HAL_Driver/Src/stm32c0xx_hal_dma.c ****     {
 847              		.loc 1 435 13 is_stmt 0 view .LVU278
ARM GAS  C:\Users\simay\AppData\Local\Temp\cc43TqXJ.s 			page 38


 848 0066 236D     		ldr	r3, [r4, #80]
 435:Drivers/STM32C0xx_HAL_Driver/Src/stm32c0xx_hal_dma.c ****     {
 849              		.loc 1 435 8 view .LVU279
 850 0068 002B     		cmp	r3, #0
 851 006a 04D0     		beq	.L43
 439:Drivers/STM32C0xx_HAL_Driver/Src/stm32c0xx_hal_dma.c ****     }
 852              		.loc 1 439 7 is_stmt 1 view .LVU280
 439:Drivers/STM32C0xx_HAL_Driver/Src/stm32c0xx_hal_dma.c ****     }
 853              		.loc 1 439 29 is_stmt 0 view .LVU281
 854 006c 1968     		ldr	r1, [r3]
 439:Drivers/STM32C0xx_HAL_Driver/Src/stm32c0xx_hal_dma.c ****     }
 855              		.loc 1 439 36 view .LVU282
 856 006e 8022     		movs	r2, #128
 857 0070 5200     		lsls	r2, r2, #1
 858 0072 0A43     		orrs	r2, r1
 859 0074 1A60     		str	r2, [r3]
 860              	.L43:
 443:Drivers/STM32C0xx_HAL_Driver/Src/stm32c0xx_hal_dma.c ****   }
 861              		.loc 1 443 5 is_stmt 1 view .LVU283
 862 0076 2268     		ldr	r2, [r4]
 863 0078 1368     		ldr	r3, [r2]
 864 007a 0121     		movs	r1, #1
 865 007c 0B43     		orrs	r3, r1
 866 007e 1360     		str	r3, [r2]
 395:Drivers/STM32C0xx_HAL_Driver/Src/stm32c0xx_hal_dma.c **** 
 867              		.loc 1 395 21 is_stmt 0 view .LVU284
 868 0080 0020     		movs	r0, #0
 869 0082 CEE7     		b	.L44
 870              	.L40:
 424:Drivers/STM32C0xx_HAL_Driver/Src/stm32c0xx_hal_dma.c ****       __HAL_DMA_ENABLE_IT(hdma, (DMA_IT_TC | DMA_IT_TE));
 871              		.loc 1 424 7 is_stmt 1 view .LVU285
 872 0084 2268     		ldr	r2, [r4]
 873 0086 1368     		ldr	r3, [r2]
 874 0088 0421     		movs	r1, #4
 875 008a 8B43     		bics	r3, r1
 876 008c 1360     		str	r3, [r2]
 425:Drivers/STM32C0xx_HAL_Driver/Src/stm32c0xx_hal_dma.c ****     }
 877              		.loc 1 425 7 view .LVU286
 878 008e 2268     		ldr	r2, [r4]
 879 0090 1368     		ldr	r3, [r2]
 880 0092 0631     		adds	r1, r1, #6
 881 0094 0B43     		orrs	r3, r1
 882 0096 1360     		str	r3, [r2]
 883 0098 DCE7     		b	.L41
 884              	.LVL55:
 885              	.L45:
 401:Drivers/STM32C0xx_HAL_Driver/Src/stm32c0xx_hal_dma.c **** 
 886              		.loc 1 401 3 is_stmt 0 discriminator 1 view .LVU287
 887 009a 0220     		movs	r0, #2
 888 009c C4E7     		b	.L38
 889              		.cfi_endproc
 890              	.LFE233:
 892              		.section	.text.HAL_DMA_Abort,"ax",%progbits
 893              		.align	1
 894              		.global	HAL_DMA_Abort
 895              		.syntax unified
 896              		.code	16
ARM GAS  C:\Users\simay\AppData\Local\Temp\cc43TqXJ.s 			page 39


 897              		.thumb_func
 899              	HAL_DMA_Abort:
 900              	.LVL56:
 901              	.LFB234:
 467:Drivers/STM32C0xx_HAL_Driver/Src/stm32c0xx_hal_dma.c ****   /* Check the DMA peripheral handle */
 902              		.loc 1 467 1 is_stmt 1 view -0
 903              		.cfi_startproc
 904              		@ args = 0, pretend = 0, frame = 0
 905              		@ frame_needed = 0, uses_anonymous_args = 0
 467:Drivers/STM32C0xx_HAL_Driver/Src/stm32c0xx_hal_dma.c ****   /* Check the DMA peripheral handle */
 906              		.loc 1 467 1 is_stmt 0 view .LVU289
 907 0000 30B5     		push	{r4, r5, lr}
 908              	.LCFI6:
 909              		.cfi_def_cfa_offset 12
 910              		.cfi_offset 4, -12
 911              		.cfi_offset 5, -8
 912              		.cfi_offset 14, -4
 469:Drivers/STM32C0xx_HAL_Driver/Src/stm32c0xx_hal_dma.c ****   {
 913              		.loc 1 469 3 is_stmt 1 view .LVU290
 469:Drivers/STM32C0xx_HAL_Driver/Src/stm32c0xx_hal_dma.c ****   {
 914              		.loc 1 469 6 is_stmt 0 view .LVU291
 915 0002 0028     		cmp	r0, #0
 916 0004 36D0     		beq	.L52
 475:Drivers/STM32C0xx_HAL_Driver/Src/stm32c0xx_hal_dma.c ****   {
 917              		.loc 1 475 3 is_stmt 1 view .LVU292
 475:Drivers/STM32C0xx_HAL_Driver/Src/stm32c0xx_hal_dma.c ****   {
 918              		.loc 1 475 11 is_stmt 0 view .LVU293
 919 0006 2523     		movs	r3, #37
 920 0008 C35C     		ldrb	r3, [r0, r3]
 475:Drivers/STM32C0xx_HAL_Driver/Src/stm32c0xx_hal_dma.c ****   {
 921              		.loc 1 475 6 view .LVU294
 922 000a 022B     		cmp	r3, #2
 923 000c 06D0     		beq	.L50
 477:Drivers/STM32C0xx_HAL_Driver/Src/stm32c0xx_hal_dma.c **** 
 924              		.loc 1 477 5 is_stmt 1 view .LVU295
 477:Drivers/STM32C0xx_HAL_Driver/Src/stm32c0xx_hal_dma.c **** 
 925              		.loc 1 477 21 is_stmt 0 view .LVU296
 926 000e 0423     		movs	r3, #4
 927 0010 C363     		str	r3, [r0, #60]
 480:Drivers/STM32C0xx_HAL_Driver/Src/stm32c0xx_hal_dma.c **** 
 928              		.loc 1 480 5 is_stmt 1 view .LVU297
 480:Drivers/STM32C0xx_HAL_Driver/Src/stm32c0xx_hal_dma.c **** 
 929              		.loc 1 480 5 view .LVU298
 930 0012 2033     		adds	r3, r3, #32
 931 0014 0022     		movs	r2, #0
 932 0016 C254     		strb	r2, [r0, r3]
 480:Drivers/STM32C0xx_HAL_Driver/Src/stm32c0xx_hal_dma.c **** 
 933              		.loc 1 480 5 view .LVU299
 482:Drivers/STM32C0xx_HAL_Driver/Src/stm32c0xx_hal_dma.c ****   }
 934              		.loc 1 482 5 view .LVU300
 482:Drivers/STM32C0xx_HAL_Driver/Src/stm32c0xx_hal_dma.c ****   }
 935              		.loc 1 482 12 is_stmt 0 view .LVU301
 936 0018 0120     		movs	r0, #1
 937              	.LVL57:
 938              	.L49:
 519:Drivers/STM32C0xx_HAL_Driver/Src/stm32c0xx_hal_dma.c **** 
 939              		.loc 1 519 1 view .LVU302
ARM GAS  C:\Users\simay\AppData\Local\Temp\cc43TqXJ.s 			page 40


 940              		@ sp needed
 941 001a 30BD     		pop	{r4, r5, pc}
 942              	.LVL58:
 943              	.L50:
 487:Drivers/STM32C0xx_HAL_Driver/Src/stm32c0xx_hal_dma.c **** 
 944              		.loc 1 487 5 is_stmt 1 view .LVU303
 945 001c 0268     		ldr	r2, [r0]
 946 001e 1368     		ldr	r3, [r2]
 947 0020 0E21     		movs	r1, #14
 948 0022 8B43     		bics	r3, r1
 949 0024 1360     		str	r3, [r2]
 490:Drivers/STM32C0xx_HAL_Driver/Src/stm32c0xx_hal_dma.c **** 
 950              		.loc 1 490 5 view .LVU304
 490:Drivers/STM32C0xx_HAL_Driver/Src/stm32c0xx_hal_dma.c **** 
 951              		.loc 1 490 9 is_stmt 0 view .LVU305
 952 0026 426C     		ldr	r2, [r0, #68]
 490:Drivers/STM32C0xx_HAL_Driver/Src/stm32c0xx_hal_dma.c **** 
 953              		.loc 1 490 24 view .LVU306
 954 0028 1368     		ldr	r3, [r2]
 490:Drivers/STM32C0xx_HAL_Driver/Src/stm32c0xx_hal_dma.c **** 
 955              		.loc 1 490 30 view .LVU307
 956 002a 1349     		ldr	r1, .L53
 957 002c 0B40     		ands	r3, r1
 958 002e 1360     		str	r3, [r2]
 493:Drivers/STM32C0xx_HAL_Driver/Src/stm32c0xx_hal_dma.c **** 
 959              		.loc 1 493 5 is_stmt 1 view .LVU308
 960 0030 0168     		ldr	r1, [r0]
 961 0032 0A68     		ldr	r2, [r1]
 962 0034 0123     		movs	r3, #1
 963 0036 9A43     		bics	r2, r3
 964 0038 0A60     		str	r2, [r1]
 496:Drivers/STM32C0xx_HAL_Driver/Src/stm32c0xx_hal_dma.c **** 
 965              		.loc 1 496 5 view .LVU309
 966 003a 104C     		ldr	r4, .L53+4
 967 003c 6268     		ldr	r2, [r4, #4]
 968 003e 056C     		ldr	r5, [r0, #64]
 969 0040 1C21     		movs	r1, #28
 970 0042 2940     		ands	r1, r5
 971 0044 8B40     		lsls	r3, r3, r1
 972 0046 1343     		orrs	r3, r2
 973 0048 6360     		str	r3, [r4, #4]
 499:Drivers/STM32C0xx_HAL_Driver/Src/stm32c0xx_hal_dma.c **** 
 974              		.loc 1 499 5 view .LVU310
 499:Drivers/STM32C0xx_HAL_Driver/Src/stm32c0xx_hal_dma.c **** 
 975              		.loc 1 499 9 is_stmt 0 view .LVU311
 976 004a 836C     		ldr	r3, [r0, #72]
 499:Drivers/STM32C0xx_HAL_Driver/Src/stm32c0xx_hal_dma.c **** 
 977              		.loc 1 499 42 view .LVU312
 978 004c C26C     		ldr	r2, [r0, #76]
 499:Drivers/STM32C0xx_HAL_Driver/Src/stm32c0xx_hal_dma.c **** 
 979              		.loc 1 499 36 view .LVU313
 980 004e 5A60     		str	r2, [r3, #4]
 501:Drivers/STM32C0xx_HAL_Driver/Src/stm32c0xx_hal_dma.c ****     {
 981              		.loc 1 501 5 is_stmt 1 view .LVU314
 501:Drivers/STM32C0xx_HAL_Driver/Src/stm32c0xx_hal_dma.c ****     {
 982              		.loc 1 501 13 is_stmt 0 view .LVU315
 983 0050 036D     		ldr	r3, [r0, #80]
ARM GAS  C:\Users\simay\AppData\Local\Temp\cc43TqXJ.s 			page 41


 501:Drivers/STM32C0xx_HAL_Driver/Src/stm32c0xx_hal_dma.c ****     {
 984              		.loc 1 501 8 view .LVU316
 985 0052 002B     		cmp	r3, #0
 986 0054 06D0     		beq	.L51
 505:Drivers/STM32C0xx_HAL_Driver/Src/stm32c0xx_hal_dma.c **** 
 987              		.loc 1 505 7 is_stmt 1 view .LVU317
 505:Drivers/STM32C0xx_HAL_Driver/Src/stm32c0xx_hal_dma.c **** 
 988              		.loc 1 505 29 is_stmt 0 view .LVU318
 989 0056 1A68     		ldr	r2, [r3]
 505:Drivers/STM32C0xx_HAL_Driver/Src/stm32c0xx_hal_dma.c **** 
 990              		.loc 1 505 36 view .LVU319
 991 0058 0749     		ldr	r1, .L53
 992 005a 0A40     		ands	r2, r1
 993 005c 1A60     		str	r2, [r3]
 508:Drivers/STM32C0xx_HAL_Driver/Src/stm32c0xx_hal_dma.c ****     }
 994              		.loc 1 508 7 is_stmt 1 view .LVU320
 508:Drivers/STM32C0xx_HAL_Driver/Src/stm32c0xx_hal_dma.c ****     }
 995              		.loc 1 508 11 is_stmt 0 view .LVU321
 996 005e 436D     		ldr	r3, [r0, #84]
 508:Drivers/STM32C0xx_HAL_Driver/Src/stm32c0xx_hal_dma.c ****     }
 997              		.loc 1 508 49 view .LVU322
 998 0060 826D     		ldr	r2, [r0, #88]
 508:Drivers/STM32C0xx_HAL_Driver/Src/stm32c0xx_hal_dma.c ****     }
 999              		.loc 1 508 43 view .LVU323
 1000 0062 5A60     		str	r2, [r3, #4]
 1001              	.L51:
 512:Drivers/STM32C0xx_HAL_Driver/Src/stm32c0xx_hal_dma.c **** 
 1002              		.loc 1 512 5 is_stmt 1 view .LVU324
 512:Drivers/STM32C0xx_HAL_Driver/Src/stm32c0xx_hal_dma.c **** 
 1003              		.loc 1 512 17 is_stmt 0 view .LVU325
 1004 0064 2523     		movs	r3, #37
 1005 0066 0122     		movs	r2, #1
 1006 0068 C254     		strb	r2, [r0, r3]
 515:Drivers/STM32C0xx_HAL_Driver/Src/stm32c0xx_hal_dma.c ****   }
 1007              		.loc 1 515 5 is_stmt 1 view .LVU326
 515:Drivers/STM32C0xx_HAL_Driver/Src/stm32c0xx_hal_dma.c ****   }
 1008              		.loc 1 515 5 view .LVU327
 1009 006a 013B     		subs	r3, r3, #1
 1010 006c 0022     		movs	r2, #0
 1011 006e C254     		strb	r2, [r0, r3]
 515:Drivers/STM32C0xx_HAL_Driver/Src/stm32c0xx_hal_dma.c ****   }
 1012              		.loc 1 515 5 view .LVU328
 518:Drivers/STM32C0xx_HAL_Driver/Src/stm32c0xx_hal_dma.c **** }
 1013              		.loc 1 518 3 view .LVU329
 518:Drivers/STM32C0xx_HAL_Driver/Src/stm32c0xx_hal_dma.c **** }
 1014              		.loc 1 518 10 is_stmt 0 view .LVU330
 1015 0070 0020     		movs	r0, #0
 1016              	.LVL59:
 518:Drivers/STM32C0xx_HAL_Driver/Src/stm32c0xx_hal_dma.c **** }
 1017              		.loc 1 518 10 view .LVU331
 1018 0072 D2E7     		b	.L49
 1019              	.LVL60:
 1020              	.L52:
 471:Drivers/STM32C0xx_HAL_Driver/Src/stm32c0xx_hal_dma.c ****   }
 1021              		.loc 1 471 12 view .LVU332
 1022 0074 0120     		movs	r0, #1
 1023              	.LVL61:
ARM GAS  C:\Users\simay\AppData\Local\Temp\cc43TqXJ.s 			page 42


 471:Drivers/STM32C0xx_HAL_Driver/Src/stm32c0xx_hal_dma.c ****   }
 1024              		.loc 1 471 12 view .LVU333
 1025 0076 D0E7     		b	.L49
 1026              	.L54:
 1027              		.align	2
 1028              	.L53:
 1029 0078 FFFEFFFF 		.word	-257
 1030 007c 00000240 		.word	1073872896
 1031              		.cfi_endproc
 1032              	.LFE234:
 1034              		.section	.text.HAL_DMA_Abort_IT,"ax",%progbits
 1035              		.align	1
 1036              		.global	HAL_DMA_Abort_IT
 1037              		.syntax unified
 1038              		.code	16
 1039              		.thumb_func
 1041              	HAL_DMA_Abort_IT:
 1042              	.LVL62:
 1043              	.LFB235:
 528:Drivers/STM32C0xx_HAL_Driver/Src/stm32c0xx_hal_dma.c ****   HAL_StatusTypeDef status = HAL_OK;
 1044              		.loc 1 528 1 is_stmt 1 view -0
 1045              		.cfi_startproc
 1046              		@ args = 0, pretend = 0, frame = 0
 1047              		@ frame_needed = 0, uses_anonymous_args = 0
 528:Drivers/STM32C0xx_HAL_Driver/Src/stm32c0xx_hal_dma.c ****   HAL_StatusTypeDef status = HAL_OK;
 1048              		.loc 1 528 1 is_stmt 0 view .LVU335
 1049 0000 70B5     		push	{r4, r5, r6, lr}
 1050              	.LCFI7:
 1051              		.cfi_def_cfa_offset 16
 1052              		.cfi_offset 4, -16
 1053              		.cfi_offset 5, -12
 1054              		.cfi_offset 6, -8
 1055              		.cfi_offset 14, -4
 529:Drivers/STM32C0xx_HAL_Driver/Src/stm32c0xx_hal_dma.c **** 
 1056              		.loc 1 529 3 is_stmt 1 view .LVU336
 1057              	.LVL63:
 532:Drivers/STM32C0xx_HAL_Driver/Src/stm32c0xx_hal_dma.c ****   __HAL_LOCK(hdma);
 1058              		.loc 1 532 3 view .LVU337
 532:Drivers/STM32C0xx_HAL_Driver/Src/stm32c0xx_hal_dma.c ****   __HAL_LOCK(hdma);
 1059              		.loc 1 532 3 view .LVU338
 1060 0002 2423     		movs	r3, #36
 1061 0004 0022     		movs	r2, #0
 1062 0006 C254     		strb	r2, [r0, r3]
 532:Drivers/STM32C0xx_HAL_Driver/Src/stm32c0xx_hal_dma.c ****   __HAL_LOCK(hdma);
 1063              		.loc 1 532 3 view .LVU339
 533:Drivers/STM32C0xx_HAL_Driver/Src/stm32c0xx_hal_dma.c **** 
 1064              		.loc 1 533 3 view .LVU340
 533:Drivers/STM32C0xx_HAL_Driver/Src/stm32c0xx_hal_dma.c **** 
 1065              		.loc 1 533 3 view .LVU341
 533:Drivers/STM32C0xx_HAL_Driver/Src/stm32c0xx_hal_dma.c **** 
 1066              		.loc 1 533 3 discriminator 2 view .LVU342
 1067 0008 0132     		adds	r2, r2, #1
 1068 000a C254     		strb	r2, [r0, r3]
 533:Drivers/STM32C0xx_HAL_Driver/Src/stm32c0xx_hal_dma.c **** 
 1069              		.loc 1 533 3 view .LVU343
 535:Drivers/STM32C0xx_HAL_Driver/Src/stm32c0xx_hal_dma.c ****   {
 1070              		.loc 1 535 3 view .LVU344
ARM GAS  C:\Users\simay\AppData\Local\Temp\cc43TqXJ.s 			page 43


 535:Drivers/STM32C0xx_HAL_Driver/Src/stm32c0xx_hal_dma.c ****   {
 1071              		.loc 1 535 33 is_stmt 0 view .LVU345
 1072 000c 0133     		adds	r3, r3, #1
 1073 000e C35C     		ldrb	r3, [r0, r3]
 535:Drivers/STM32C0xx_HAL_Driver/Src/stm32c0xx_hal_dma.c ****   {
 1074              		.loc 1 535 6 view .LVU346
 1075 0010 022B     		cmp	r3, #2
 1076 0012 03D0     		beq	.L56
 538:Drivers/STM32C0xx_HAL_Driver/Src/stm32c0xx_hal_dma.c **** 
 1077              		.loc 1 538 5 is_stmt 1 view .LVU347
 538:Drivers/STM32C0xx_HAL_Driver/Src/stm32c0xx_hal_dma.c **** 
 1078              		.loc 1 538 21 is_stmt 0 view .LVU348
 1079 0014 0423     		movs	r3, #4
 1080 0016 C363     		str	r3, [r0, #60]
 540:Drivers/STM32C0xx_HAL_Driver/Src/stm32c0xx_hal_dma.c ****   }
 1081              		.loc 1 540 5 is_stmt 1 view .LVU349
 1082              	.LVL64:
 540:Drivers/STM32C0xx_HAL_Driver/Src/stm32c0xx_hal_dma.c ****   }
 1083              		.loc 1 540 12 is_stmt 0 view .LVU350
 1084 0018 0120     		movs	r0, #1
 1085              	.LVL65:
 1086              	.L57:
 581:Drivers/STM32C0xx_HAL_Driver/Src/stm32c0xx_hal_dma.c **** }
 1087              		.loc 1 581 3 is_stmt 1 view .LVU351
 582:Drivers/STM32C0xx_HAL_Driver/Src/stm32c0xx_hal_dma.c **** 
 1088              		.loc 1 582 1 is_stmt 0 view .LVU352
 1089              		@ sp needed
 1090 001a 70BD     		pop	{r4, r5, r6, pc}
 1091              	.LVL66:
 1092              	.L56:
 545:Drivers/STM32C0xx_HAL_Driver/Src/stm32c0xx_hal_dma.c **** 
 1093              		.loc 1 545 5 is_stmt 1 view .LVU353
 1094 001c 0268     		ldr	r2, [r0]
 1095 001e 1368     		ldr	r3, [r2]
 1096 0020 0E21     		movs	r1, #14
 1097 0022 8B43     		bics	r3, r1
 1098 0024 1360     		str	r3, [r2]
 548:Drivers/STM32C0xx_HAL_Driver/Src/stm32c0xx_hal_dma.c **** 
 1099              		.loc 1 548 5 view .LVU354
 1100 0026 0168     		ldr	r1, [r0]
 1101 0028 0A68     		ldr	r2, [r1]
 1102 002a 0123     		movs	r3, #1
 1103 002c 9A43     		bics	r2, r3
 1104 002e 0A60     		str	r2, [r1]
 551:Drivers/STM32C0xx_HAL_Driver/Src/stm32c0xx_hal_dma.c **** 
 1105              		.loc 1 551 5 view .LVU355
 551:Drivers/STM32C0xx_HAL_Driver/Src/stm32c0xx_hal_dma.c **** 
 1106              		.loc 1 551 9 is_stmt 0 view .LVU356
 1107 0030 416C     		ldr	r1, [r0, #68]
 551:Drivers/STM32C0xx_HAL_Driver/Src/stm32c0xx_hal_dma.c **** 
 1108              		.loc 1 551 24 view .LVU357
 1109 0032 0A68     		ldr	r2, [r1]
 551:Drivers/STM32C0xx_HAL_Driver/Src/stm32c0xx_hal_dma.c **** 
 1110              		.loc 1 551 30 view .LVU358
 1111 0034 124C     		ldr	r4, .L60
 1112 0036 2240     		ands	r2, r4
 1113 0038 0A60     		str	r2, [r1]
ARM GAS  C:\Users\simay\AppData\Local\Temp\cc43TqXJ.s 			page 44


 554:Drivers/STM32C0xx_HAL_Driver/Src/stm32c0xx_hal_dma.c **** 
 1114              		.loc 1 554 5 is_stmt 1 view .LVU359
 1115 003a 124C     		ldr	r4, .L60+4
 1116 003c 6268     		ldr	r2, [r4, #4]
 1117 003e 056C     		ldr	r5, [r0, #64]
 1118 0040 1C21     		movs	r1, #28
 1119 0042 2940     		ands	r1, r5
 1120 0044 8B40     		lsls	r3, r3, r1
 1121 0046 1343     		orrs	r3, r2
 1122 0048 6360     		str	r3, [r4, #4]
 557:Drivers/STM32C0xx_HAL_Driver/Src/stm32c0xx_hal_dma.c **** 
 1123              		.loc 1 557 5 view .LVU360
 557:Drivers/STM32C0xx_HAL_Driver/Src/stm32c0xx_hal_dma.c **** 
 1124              		.loc 1 557 9 is_stmt 0 view .LVU361
 1125 004a 836C     		ldr	r3, [r0, #72]
 557:Drivers/STM32C0xx_HAL_Driver/Src/stm32c0xx_hal_dma.c **** 
 1126              		.loc 1 557 42 view .LVU362
 1127 004c C26C     		ldr	r2, [r0, #76]
 557:Drivers/STM32C0xx_HAL_Driver/Src/stm32c0xx_hal_dma.c **** 
 1128              		.loc 1 557 36 view .LVU363
 1129 004e 5A60     		str	r2, [r3, #4]
 559:Drivers/STM32C0xx_HAL_Driver/Src/stm32c0xx_hal_dma.c ****     {
 1130              		.loc 1 559 5 is_stmt 1 view .LVU364
 559:Drivers/STM32C0xx_HAL_Driver/Src/stm32c0xx_hal_dma.c ****     {
 1131              		.loc 1 559 13 is_stmt 0 view .LVU365
 1132 0050 036D     		ldr	r3, [r0, #80]
 559:Drivers/STM32C0xx_HAL_Driver/Src/stm32c0xx_hal_dma.c ****     {
 1133              		.loc 1 559 8 view .LVU366
 1134 0052 002B     		cmp	r3, #0
 1135 0054 06D0     		beq	.L58
 563:Drivers/STM32C0xx_HAL_Driver/Src/stm32c0xx_hal_dma.c **** 
 1136              		.loc 1 563 7 is_stmt 1 view .LVU367
 563:Drivers/STM32C0xx_HAL_Driver/Src/stm32c0xx_hal_dma.c **** 
 1137              		.loc 1 563 29 is_stmt 0 view .LVU368
 1138 0056 1A68     		ldr	r2, [r3]
 563:Drivers/STM32C0xx_HAL_Driver/Src/stm32c0xx_hal_dma.c **** 
 1139              		.loc 1 563 36 view .LVU369
 1140 0058 0949     		ldr	r1, .L60
 1141 005a 0A40     		ands	r2, r1
 1142 005c 1A60     		str	r2, [r3]
 566:Drivers/STM32C0xx_HAL_Driver/Src/stm32c0xx_hal_dma.c ****     }
 1143              		.loc 1 566 7 is_stmt 1 view .LVU370
 566:Drivers/STM32C0xx_HAL_Driver/Src/stm32c0xx_hal_dma.c ****     }
 1144              		.loc 1 566 11 is_stmt 0 view .LVU371
 1145 005e 436D     		ldr	r3, [r0, #84]
 566:Drivers/STM32C0xx_HAL_Driver/Src/stm32c0xx_hal_dma.c ****     }
 1146              		.loc 1 566 49 view .LVU372
 1147 0060 826D     		ldr	r2, [r0, #88]
 566:Drivers/STM32C0xx_HAL_Driver/Src/stm32c0xx_hal_dma.c ****     }
 1148              		.loc 1 566 43 view .LVU373
 1149 0062 5A60     		str	r2, [r3, #4]
 1150              	.L58:
 570:Drivers/STM32C0xx_HAL_Driver/Src/stm32c0xx_hal_dma.c **** 
 1151              		.loc 1 570 5 is_stmt 1 view .LVU374
 570:Drivers/STM32C0xx_HAL_Driver/Src/stm32c0xx_hal_dma.c **** 
 1152              		.loc 1 570 17 is_stmt 0 view .LVU375
 1153 0064 2523     		movs	r3, #37
ARM GAS  C:\Users\simay\AppData\Local\Temp\cc43TqXJ.s 			page 45


 1154 0066 0122     		movs	r2, #1
 1155 0068 C254     		strb	r2, [r0, r3]
 573:Drivers/STM32C0xx_HAL_Driver/Src/stm32c0xx_hal_dma.c **** 
 1156              		.loc 1 573 5 is_stmt 1 view .LVU376
 573:Drivers/STM32C0xx_HAL_Driver/Src/stm32c0xx_hal_dma.c **** 
 1157              		.loc 1 573 5 view .LVU377
 1158 006a 013B     		subs	r3, r3, #1
 1159 006c 0022     		movs	r2, #0
 1160 006e C254     		strb	r2, [r0, r3]
 573:Drivers/STM32C0xx_HAL_Driver/Src/stm32c0xx_hal_dma.c **** 
 1161              		.loc 1 573 5 view .LVU378
 576:Drivers/STM32C0xx_HAL_Driver/Src/stm32c0xx_hal_dma.c ****     {
 1162              		.loc 1 576 5 view .LVU379
 576:Drivers/STM32C0xx_HAL_Driver/Src/stm32c0xx_hal_dma.c ****     {
 1163              		.loc 1 576 13 is_stmt 0 view .LVU380
 1164 0070 836B     		ldr	r3, [r0, #56]
 576:Drivers/STM32C0xx_HAL_Driver/Src/stm32c0xx_hal_dma.c ****     {
 1165              		.loc 1 576 8 view .LVU381
 1166 0072 002B     		cmp	r3, #0
 1167 0074 02D0     		beq	.L59
 578:Drivers/STM32C0xx_HAL_Driver/Src/stm32c0xx_hal_dma.c ****     }
 1168              		.loc 1 578 7 is_stmt 1 view .LVU382
 1169 0076 9847     		blx	r3
 1170              	.LVL67:
 529:Drivers/STM32C0xx_HAL_Driver/Src/stm32c0xx_hal_dma.c **** 
 1171              		.loc 1 529 21 is_stmt 0 view .LVU383
 1172 0078 0020     		movs	r0, #0
 1173 007a CEE7     		b	.L57
 1174              	.LVL68:
 1175              	.L59:
 529:Drivers/STM32C0xx_HAL_Driver/Src/stm32c0xx_hal_dma.c **** 
 1176              		.loc 1 529 21 view .LVU384
 1177 007c 0020     		movs	r0, #0
 1178              	.LVL69:
 529:Drivers/STM32C0xx_HAL_Driver/Src/stm32c0xx_hal_dma.c **** 
 1179              		.loc 1 529 21 view .LVU385
 1180 007e CCE7     		b	.L57
 1181              	.L61:
 1182              		.align	2
 1183              	.L60:
 1184 0080 FFFEFFFF 		.word	-257
 1185 0084 00000240 		.word	1073872896
 1186              		.cfi_endproc
 1187              	.LFE235:
 1189              		.section	.text.HAL_DMA_PollForTransfer,"ax",%progbits
 1190              		.align	1
 1191              		.global	HAL_DMA_PollForTransfer
 1192              		.syntax unified
 1193              		.code	16
 1194              		.thumb_func
 1196              	HAL_DMA_PollForTransfer:
 1197              	.LVL70:
 1198              	.LFB236:
 594:Drivers/STM32C0xx_HAL_Driver/Src/stm32c0xx_hal_dma.c ****   uint32_t temp;
 1199              		.loc 1 594 1 is_stmt 1 view -0
 1200              		.cfi_startproc
 1201              		@ args = 0, pretend = 0, frame = 8
ARM GAS  C:\Users\simay\AppData\Local\Temp\cc43TqXJ.s 			page 46


 1202              		@ frame_needed = 0, uses_anonymous_args = 0
 594:Drivers/STM32C0xx_HAL_Driver/Src/stm32c0xx_hal_dma.c ****   uint32_t temp;
 1203              		.loc 1 594 1 is_stmt 0 view .LVU387
 1204 0000 F0B5     		push	{r4, r5, r6, r7, lr}
 1205              	.LCFI8:
 1206              		.cfi_def_cfa_offset 20
 1207              		.cfi_offset 4, -20
 1208              		.cfi_offset 5, -16
 1209              		.cfi_offset 6, -12
 1210              		.cfi_offset 7, -8
 1211              		.cfi_offset 14, -4
 1212 0002 83B0     		sub	sp, sp, #12
 1213              	.LCFI9:
 1214              		.cfi_def_cfa_offset 32
 1215 0004 0600     		movs	r6, r0
 1216 0006 0C00     		movs	r4, r1
 1217 0008 1700     		movs	r7, r2
 595:Drivers/STM32C0xx_HAL_Driver/Src/stm32c0xx_hal_dma.c ****   uint32_t tickstart;
 1218              		.loc 1 595 3 is_stmt 1 view .LVU388
 596:Drivers/STM32C0xx_HAL_Driver/Src/stm32c0xx_hal_dma.c **** 
 1219              		.loc 1 596 3 view .LVU389
 599:Drivers/STM32C0xx_HAL_Driver/Src/stm32c0xx_hal_dma.c **** 
 1220              		.loc 1 599 3 view .LVU390
 599:Drivers/STM32C0xx_HAL_Driver/Src/stm32c0xx_hal_dma.c **** 
 1221              		.loc 1 599 3 view .LVU391
 1222 000a 2423     		movs	r3, #36
 1223 000c 0022     		movs	r2, #0
 1224              	.LVL71:
 599:Drivers/STM32C0xx_HAL_Driver/Src/stm32c0xx_hal_dma.c **** 
 1225              		.loc 1 599 3 is_stmt 0 view .LVU392
 1226 000e C254     		strb	r2, [r0, r3]
 599:Drivers/STM32C0xx_HAL_Driver/Src/stm32c0xx_hal_dma.c **** 
 1227              		.loc 1 599 3 is_stmt 1 view .LVU393
 601:Drivers/STM32C0xx_HAL_Driver/Src/stm32c0xx_hal_dma.c ****   {
 1228              		.loc 1 601 3 view .LVU394
 601:Drivers/STM32C0xx_HAL_Driver/Src/stm32c0xx_hal_dma.c ****   {
 1229              		.loc 1 601 33 is_stmt 0 view .LVU395
 1230 0010 0133     		adds	r3, r3, #1
 1231 0012 C35C     		ldrb	r3, [r0, r3]
 601:Drivers/STM32C0xx_HAL_Driver/Src/stm32c0xx_hal_dma.c ****   {
 1232              		.loc 1 601 6 view .LVU396
 1233 0014 022B     		cmp	r3, #2
 1234 0016 04D0     		beq	.L63
 604:Drivers/STM32C0xx_HAL_Driver/Src/stm32c0xx_hal_dma.c ****     __HAL_UNLOCK(hdma);
 1235              		.loc 1 604 5 is_stmt 1 view .LVU397
 604:Drivers/STM32C0xx_HAL_Driver/Src/stm32c0xx_hal_dma.c ****     __HAL_UNLOCK(hdma);
 1236              		.loc 1 604 21 is_stmt 0 view .LVU398
 1237 0018 0423     		movs	r3, #4
 1238 001a C363     		str	r3, [r0, #60]
 605:Drivers/STM32C0xx_HAL_Driver/Src/stm32c0xx_hal_dma.c ****     return HAL_ERROR;
 1239              		.loc 1 605 5 is_stmt 1 view .LVU399
 605:Drivers/STM32C0xx_HAL_Driver/Src/stm32c0xx_hal_dma.c ****     return HAL_ERROR;
 1240              		.loc 1 605 5 view .LVU400
 605:Drivers/STM32C0xx_HAL_Driver/Src/stm32c0xx_hal_dma.c ****     return HAL_ERROR;
 1241              		.loc 1 605 5 view .LVU401
 606:Drivers/STM32C0xx_HAL_Driver/Src/stm32c0xx_hal_dma.c ****   }
 1242              		.loc 1 606 5 view .LVU402
ARM GAS  C:\Users\simay\AppData\Local\Temp\cc43TqXJ.s 			page 47


 606:Drivers/STM32C0xx_HAL_Driver/Src/stm32c0xx_hal_dma.c ****   }
 1243              		.loc 1 606 12 is_stmt 0 view .LVU403
 1244 001c 0120     		movs	r0, #1
 1245              	.LVL72:
 1246              	.L64:
 716:Drivers/STM32C0xx_HAL_Driver/Src/stm32c0xx_hal_dma.c **** 
 1247              		.loc 1 716 1 view .LVU404
 1248 001e 03B0     		add	sp, sp, #12
 1249              		@ sp needed
 1250              	.LVL73:
 1251              	.LVL74:
 716:Drivers/STM32C0xx_HAL_Driver/Src/stm32c0xx_hal_dma.c **** 
 1252              		.loc 1 716 1 view .LVU405
 1253 0020 F0BD     		pop	{r4, r5, r6, r7, pc}
 1254              	.LVL75:
 1255              	.L63:
 610:Drivers/STM32C0xx_HAL_Driver/Src/stm32c0xx_hal_dma.c ****   {
 1256              		.loc 1 610 3 is_stmt 1 view .LVU406
 610:Drivers/STM32C0xx_HAL_Driver/Src/stm32c0xx_hal_dma.c ****   {
 1257              		.loc 1 610 12 is_stmt 0 view .LVU407
 1258 0022 0368     		ldr	r3, [r0]
 610:Drivers/STM32C0xx_HAL_Driver/Src/stm32c0xx_hal_dma.c ****   {
 1259              		.loc 1 610 22 view .LVU408
 1260 0024 1B68     		ldr	r3, [r3]
 610:Drivers/STM32C0xx_HAL_Driver/Src/stm32c0xx_hal_dma.c ****   {
 1261              		.loc 1 610 6 view .LVU409
 1262 0026 9B06     		lsls	r3, r3, #26
 1263 0028 2AD4     		bmi	.L78
 617:Drivers/STM32C0xx_HAL_Driver/Src/stm32c0xx_hal_dma.c ****   {
 1264              		.loc 1 617 3 is_stmt 1 view .LVU410
 617:Drivers/STM32C0xx_HAL_Driver/Src/stm32c0xx_hal_dma.c ****   {
 1265              		.loc 1 617 6 is_stmt 0 view .LVU411
 1266 002a 0029     		cmp	r1, #0
 1267 002c 2DD1     		bne	.L66
 620:Drivers/STM32C0xx_HAL_Driver/Src/stm32c0xx_hal_dma.c ****   }
 1268              		.loc 1 620 5 is_stmt 1 view .LVU412
 620:Drivers/STM32C0xx_HAL_Driver/Src/stm32c0xx_hal_dma.c ****   }
 1269              		.loc 1 620 33 is_stmt 0 view .LVU413
 1270 002e 026C     		ldr	r2, [r0, #64]
 620:Drivers/STM32C0xx_HAL_Driver/Src/stm32c0xx_hal_dma.c ****   }
 1271              		.loc 1 620 48 view .LVU414
 1272 0030 1C23     		movs	r3, #28
 1273 0032 1340     		ands	r3, r2
 620:Drivers/STM32C0xx_HAL_Driver/Src/stm32c0xx_hal_dma.c ****   }
 1274              		.loc 1 620 10 view .LVU415
 1275 0034 0225     		movs	r5, #2
 1276 0036 9D40     		lsls	r5, r5, r3
 1277              	.LVL76:
 1278              	.L67:
 629:Drivers/STM32C0xx_HAL_Driver/Src/stm32c0xx_hal_dma.c **** 
 1279              		.loc 1 629 3 is_stmt 1 view .LVU416
 629:Drivers/STM32C0xx_HAL_Driver/Src/stm32c0xx_hal_dma.c **** 
 1280              		.loc 1 629 15 is_stmt 0 view .LVU417
 1281 0038 FFF7FEFF 		bl	HAL_GetTick
 1282              	.LVL77:
 629:Drivers/STM32C0xx_HAL_Driver/Src/stm32c0xx_hal_dma.c **** 
 1283              		.loc 1 629 15 view .LVU418
ARM GAS  C:\Users\simay\AppData\Local\Temp\cc43TqXJ.s 			page 48


 1284 003c 0190     		str	r0, [sp, #4]
 1285              	.LVL78:
 631:Drivers/STM32C0xx_HAL_Driver/Src/stm32c0xx_hal_dma.c ****   {
 1286              		.loc 1 631 3 is_stmt 1 view .LVU419
 1287              	.L70:
 631:Drivers/STM32C0xx_HAL_Driver/Src/stm32c0xx_hal_dma.c ****   {
 1288              		.loc 1 631 13 view .LVU420
 631:Drivers/STM32C0xx_HAL_Driver/Src/stm32c0xx_hal_dma.c ****   {
 1289              		.loc 1 631 16 is_stmt 0 view .LVU421
 1290 003e 3C4B     		ldr	r3, .L81
 1291 0040 1B68     		ldr	r3, [r3]
 631:Drivers/STM32C0xx_HAL_Driver/Src/stm32c0xx_hal_dma.c ****   {
 1292              		.loc 1 631 13 view .LVU422
 1293 0042 1D42     		tst	r5, r3
 1294 0044 37D1     		bne	.L79
 633:Drivers/STM32C0xx_HAL_Driver/Src/stm32c0xx_hal_dma.c ****     {
 1295              		.loc 1 633 5 is_stmt 1 view .LVU423
 633:Drivers/STM32C0xx_HAL_Driver/Src/stm32c0xx_hal_dma.c ****     {
 1296              		.loc 1 633 15 is_stmt 0 view .LVU424
 1297 0046 3A4B     		ldr	r3, .L81
 1298 0048 1A68     		ldr	r2, [r3]
 1299 004a 316C     		ldr	r1, [r6, #64]
 1300 004c 1C23     		movs	r3, #28
 1301 004e 0B40     		ands	r3, r1
 1302 0050 0821     		movs	r1, #8
 1303 0052 9940     		lsls	r1, r1, r3
 633:Drivers/STM32C0xx_HAL_Driver/Src/stm32c0xx_hal_dma.c ****     {
 1304              		.loc 1 633 8 view .LVU425
 1305 0054 1142     		tst	r1, r2
 1306 0056 1ED1     		bne	.L80
 652:Drivers/STM32C0xx_HAL_Driver/Src/stm32c0xx_hal_dma.c ****     {
 1307              		.loc 1 652 5 is_stmt 1 view .LVU426
 652:Drivers/STM32C0xx_HAL_Driver/Src/stm32c0xx_hal_dma.c ****     {
 1308              		.loc 1 652 8 is_stmt 0 view .LVU427
 1309 0058 7B1C     		adds	r3, r7, #1
 1310 005a F0D0     		beq	.L70
 654:Drivers/STM32C0xx_HAL_Driver/Src/stm32c0xx_hal_dma.c ****       {
 1311              		.loc 1 654 7 is_stmt 1 view .LVU428
 654:Drivers/STM32C0xx_HAL_Driver/Src/stm32c0xx_hal_dma.c ****       {
 1312              		.loc 1 654 13 is_stmt 0 view .LVU429
 1313 005c FFF7FEFF 		bl	HAL_GetTick
 1314              	.LVL79:
 654:Drivers/STM32C0xx_HAL_Driver/Src/stm32c0xx_hal_dma.c ****       {
 1315              		.loc 1 654 27 discriminator 1 view .LVU430
 1316 0060 019B     		ldr	r3, [sp, #4]
 1317 0062 C01A     		subs	r0, r0, r3
 654:Drivers/STM32C0xx_HAL_Driver/Src/stm32c0xx_hal_dma.c ****       {
 1318              		.loc 1 654 10 discriminator 1 view .LVU431
 1319 0064 B842     		cmp	r0, r7
 1320 0066 01D8     		bhi	.L71
 654:Drivers/STM32C0xx_HAL_Driver/Src/stm32c0xx_hal_dma.c ****       {
 1321              		.loc 1 654 51 discriminator 1 view .LVU432
 1322 0068 002F     		cmp	r7, #0
 1323 006a E8D1     		bne	.L70
 1324              	.L71:
 657:Drivers/STM32C0xx_HAL_Driver/Src/stm32c0xx_hal_dma.c **** 
 1325              		.loc 1 657 9 is_stmt 1 view .LVU433
ARM GAS  C:\Users\simay\AppData\Local\Temp\cc43TqXJ.s 			page 49


 657:Drivers/STM32C0xx_HAL_Driver/Src/stm32c0xx_hal_dma.c **** 
 1326              		.loc 1 657 25 is_stmt 0 view .LVU434
 1327 006c 2023     		movs	r3, #32
 1328 006e F363     		str	r3, [r6, #60]
 660:Drivers/STM32C0xx_HAL_Driver/Src/stm32c0xx_hal_dma.c **** 
 1329              		.loc 1 660 9 is_stmt 1 view .LVU435
 660:Drivers/STM32C0xx_HAL_Driver/Src/stm32c0xx_hal_dma.c **** 
 1330              		.loc 1 660 21 is_stmt 0 view .LVU436
 1331 0070 0533     		adds	r3, r3, #5
 1332 0072 0122     		movs	r2, #1
 1333 0074 F254     		strb	r2, [r6, r3]
 663:Drivers/STM32C0xx_HAL_Driver/Src/stm32c0xx_hal_dma.c **** 
 1334              		.loc 1 663 9 is_stmt 1 view .LVU437
 663:Drivers/STM32C0xx_HAL_Driver/Src/stm32c0xx_hal_dma.c **** 
 1335              		.loc 1 663 9 view .LVU438
 1336 0076 013B     		subs	r3, r3, #1
 1337 0078 0022     		movs	r2, #0
 1338 007a F254     		strb	r2, [r6, r3]
 663:Drivers/STM32C0xx_HAL_Driver/Src/stm32c0xx_hal_dma.c **** 
 1339              		.loc 1 663 9 view .LVU439
 665:Drivers/STM32C0xx_HAL_Driver/Src/stm32c0xx_hal_dma.c ****       }
 1340              		.loc 1 665 9 view .LVU440
 665:Drivers/STM32C0xx_HAL_Driver/Src/stm32c0xx_hal_dma.c ****       }
 1341              		.loc 1 665 16 is_stmt 0 view .LVU441
 1342 007c 0120     		movs	r0, #1
 1343 007e CEE7     		b	.L64
 1344              	.LVL80:
 1345              	.L78:
 612:Drivers/STM32C0xx_HAL_Driver/Src/stm32c0xx_hal_dma.c ****     return HAL_ERROR;
 1346              		.loc 1 612 5 is_stmt 1 view .LVU442
 612:Drivers/STM32C0xx_HAL_Driver/Src/stm32c0xx_hal_dma.c ****     return HAL_ERROR;
 1347              		.loc 1 612 21 is_stmt 0 view .LVU443
 1348 0080 8023     		movs	r3, #128
 1349 0082 5B00     		lsls	r3, r3, #1
 1350 0084 C363     		str	r3, [r0, #60]
 613:Drivers/STM32C0xx_HAL_Driver/Src/stm32c0xx_hal_dma.c ****   }
 1351              		.loc 1 613 5 is_stmt 1 view .LVU444
 613:Drivers/STM32C0xx_HAL_Driver/Src/stm32c0xx_hal_dma.c ****   }
 1352              		.loc 1 613 12 is_stmt 0 view .LVU445
 1353 0086 0120     		movs	r0, #1
 1354              	.LVL81:
 613:Drivers/STM32C0xx_HAL_Driver/Src/stm32c0xx_hal_dma.c ****   }
 1355              		.loc 1 613 12 view .LVU446
 1356 0088 C9E7     		b	.L64
 1357              	.LVL82:
 1358              	.L66:
 625:Drivers/STM32C0xx_HAL_Driver/Src/stm32c0xx_hal_dma.c ****   }
 1359              		.loc 1 625 5 is_stmt 1 view .LVU447
 625:Drivers/STM32C0xx_HAL_Driver/Src/stm32c0xx_hal_dma.c ****   }
 1360              		.loc 1 625 33 is_stmt 0 view .LVU448
 1361 008a 026C     		ldr	r2, [r0, #64]
 625:Drivers/STM32C0xx_HAL_Driver/Src/stm32c0xx_hal_dma.c ****   }
 1362              		.loc 1 625 49 view .LVU449
 1363 008c 1C23     		movs	r3, #28
 1364 008e 1340     		ands	r3, r2
 625:Drivers/STM32C0xx_HAL_Driver/Src/stm32c0xx_hal_dma.c ****   }
 1365              		.loc 1 625 10 view .LVU450
ARM GAS  C:\Users\simay\AppData\Local\Temp\cc43TqXJ.s 			page 50


 1366 0090 0425     		movs	r5, #4
 1367 0092 9D40     		lsls	r5, r5, r3
 1368 0094 D0E7     		b	.L67
 1369              	.LVL83:
 1370              	.L80:
 638:Drivers/STM32C0xx_HAL_Driver/Src/stm32c0xx_hal_dma.c **** 
 1371              		.loc 1 638 7 is_stmt 1 view .LVU451
 1372 0096 2648     		ldr	r0, .L81
 1373 0098 4168     		ldr	r1, [r0, #4]
 1374 009a 0122     		movs	r2, #1
 1375 009c 1400     		movs	r4, r2
 1376              	.LVL84:
 638:Drivers/STM32C0xx_HAL_Driver/Src/stm32c0xx_hal_dma.c **** 
 1377              		.loc 1 638 7 is_stmt 0 view .LVU452
 1378 009e 9C40     		lsls	r4, r4, r3
 1379 00a0 2300     		movs	r3, r4
 1380 00a2 0B43     		orrs	r3, r1
 1381 00a4 4360     		str	r3, [r0, #4]
 1382              	.LVL85:
 641:Drivers/STM32C0xx_HAL_Driver/Src/stm32c0xx_hal_dma.c **** 
 1383              		.loc 1 641 7 is_stmt 1 view .LVU453
 641:Drivers/STM32C0xx_HAL_Driver/Src/stm32c0xx_hal_dma.c **** 
 1384              		.loc 1 641 23 is_stmt 0 view .LVU454
 1385 00a6 F263     		str	r2, [r6, #60]
 644:Drivers/STM32C0xx_HAL_Driver/Src/stm32c0xx_hal_dma.c **** 
 1386              		.loc 1 644 7 is_stmt 1 view .LVU455
 644:Drivers/STM32C0xx_HAL_Driver/Src/stm32c0xx_hal_dma.c **** 
 1387              		.loc 1 644 19 is_stmt 0 view .LVU456
 1388 00a8 2523     		movs	r3, #37
 1389 00aa F254     		strb	r2, [r6, r3]
 647:Drivers/STM32C0xx_HAL_Driver/Src/stm32c0xx_hal_dma.c **** 
 1390              		.loc 1 647 7 is_stmt 1 view .LVU457
 647:Drivers/STM32C0xx_HAL_Driver/Src/stm32c0xx_hal_dma.c **** 
 1391              		.loc 1 647 7 view .LVU458
 1392 00ac 013B     		subs	r3, r3, #1
 1393 00ae 0022     		movs	r2, #0
 1394 00b0 F254     		strb	r2, [r6, r3]
 647:Drivers/STM32C0xx_HAL_Driver/Src/stm32c0xx_hal_dma.c **** 
 1395              		.loc 1 647 7 view .LVU459
 649:Drivers/STM32C0xx_HAL_Driver/Src/stm32c0xx_hal_dma.c ****     }
 1396              		.loc 1 649 7 view .LVU460
 649:Drivers/STM32C0xx_HAL_Driver/Src/stm32c0xx_hal_dma.c ****     }
 1397              		.loc 1 649 14 is_stmt 0 view .LVU461
 1398 00b2 0120     		movs	r0, #1
 1399 00b4 B3E7     		b	.L64
 1400              	.LVL86:
 1401              	.L79:
 671:Drivers/STM32C0xx_HAL_Driver/Src/stm32c0xx_hal_dma.c ****   {
 1402              		.loc 1 671 3 is_stmt 1 view .LVU462
 671:Drivers/STM32C0xx_HAL_Driver/Src/stm32c0xx_hal_dma.c ****   {
 1403              		.loc 1 671 11 is_stmt 0 view .LVU463
 1404 00b6 336D     		ldr	r3, [r6, #80]
 671:Drivers/STM32C0xx_HAL_Driver/Src/stm32c0xx_hal_dma.c ****   {
 1405              		.loc 1 671 6 view .LVU464
 1406 00b8 002B     		cmp	r3, #0
 1407 00ba 11D0     		beq	.L73
 674:Drivers/STM32C0xx_HAL_Driver/Src/stm32c0xx_hal_dma.c ****     {
ARM GAS  C:\Users\simay\AppData\Local\Temp\cc43TqXJ.s 			page 51


 1408              		.loc 1 674 5 is_stmt 1 view .LVU465
 674:Drivers/STM32C0xx_HAL_Driver/Src/stm32c0xx_hal_dma.c ****     {
 1409              		.loc 1 674 14 is_stmt 0 view .LVU466
 1410 00bc 726D     		ldr	r2, [r6, #84]
 674:Drivers/STM32C0xx_HAL_Driver/Src/stm32c0xx_hal_dma.c ****     {
 1411              		.loc 1 674 38 view .LVU467
 1412 00be 1268     		ldr	r2, [r2]
 674:Drivers/STM32C0xx_HAL_Driver/Src/stm32c0xx_hal_dma.c ****     {
 1413              		.loc 1 674 51 view .LVU468
 1414 00c0 B16D     		ldr	r1, [r6, #88]
 674:Drivers/STM32C0xx_HAL_Driver/Src/stm32c0xx_hal_dma.c ****     {
 1415              		.loc 1 674 8 view .LVU469
 1416 00c2 1142     		tst	r1, r2
 1417 00c4 0CD0     		beq	.L73
 677:Drivers/STM32C0xx_HAL_Driver/Src/stm32c0xx_hal_dma.c **** 
 1418              		.loc 1 677 7 is_stmt 1 view .LVU470
 677:Drivers/STM32C0xx_HAL_Driver/Src/stm32c0xx_hal_dma.c **** 
 1419              		.loc 1 677 29 is_stmt 0 view .LVU471
 1420 00c6 1968     		ldr	r1, [r3]
 677:Drivers/STM32C0xx_HAL_Driver/Src/stm32c0xx_hal_dma.c **** 
 1421              		.loc 1 677 36 view .LVU472
 1422 00c8 8022     		movs	r2, #128
 1423 00ca 5200     		lsls	r2, r2, #1
 1424 00cc 0A43     		orrs	r2, r1
 1425 00ce 1A60     		str	r2, [r3]
 680:Drivers/STM32C0xx_HAL_Driver/Src/stm32c0xx_hal_dma.c **** 
 1426              		.loc 1 680 7 is_stmt 1 view .LVU473
 680:Drivers/STM32C0xx_HAL_Driver/Src/stm32c0xx_hal_dma.c **** 
 1427              		.loc 1 680 11 is_stmt 0 view .LVU474
 1428 00d0 736D     		ldr	r3, [r6, #84]
 680:Drivers/STM32C0xx_HAL_Driver/Src/stm32c0xx_hal_dma.c **** 
 1429              		.loc 1 680 49 view .LVU475
 1430 00d2 B26D     		ldr	r2, [r6, #88]
 680:Drivers/STM32C0xx_HAL_Driver/Src/stm32c0xx_hal_dma.c **** 
 1431              		.loc 1 680 43 view .LVU476
 1432 00d4 5A60     		str	r2, [r3, #4]
 683:Drivers/STM32C0xx_HAL_Driver/Src/stm32c0xx_hal_dma.c ****     }
 1433              		.loc 1 683 7 is_stmt 1 view .LVU477
 683:Drivers/STM32C0xx_HAL_Driver/Src/stm32c0xx_hal_dma.c ****     }
 1434              		.loc 1 683 11 is_stmt 0 view .LVU478
 1435 00d6 F26B     		ldr	r2, [r6, #60]
 683:Drivers/STM32C0xx_HAL_Driver/Src/stm32c0xx_hal_dma.c ****     }
 1436              		.loc 1 683 23 view .LVU479
 1437 00d8 8023     		movs	r3, #128
 1438 00da DB00     		lsls	r3, r3, #3
 1439 00dc 1343     		orrs	r3, r2
 1440 00de F363     		str	r3, [r6, #60]
 1441              	.L73:
 688:Drivers/STM32C0xx_HAL_Driver/Src/stm32c0xx_hal_dma.c ****   {
 1442              		.loc 1 688 3 is_stmt 1 view .LVU480
 688:Drivers/STM32C0xx_HAL_Driver/Src/stm32c0xx_hal_dma.c ****   {
 1443              		.loc 1 688 12 is_stmt 0 view .LVU481
 1444 00e0 B36C     		ldr	r3, [r6, #72]
 688:Drivers/STM32C0xx_HAL_Driver/Src/stm32c0xx_hal_dma.c ****   {
 1445              		.loc 1 688 33 view .LVU482
 1446 00e2 1968     		ldr	r1, [r3]
 688:Drivers/STM32C0xx_HAL_Driver/Src/stm32c0xx_hal_dma.c ****   {
ARM GAS  C:\Users\simay\AppData\Local\Temp\cc43TqXJ.s 			page 52


 1447              		.loc 1 688 45 view .LVU483
 1448 00e4 F26C     		ldr	r2, [r6, #76]
 688:Drivers/STM32C0xx_HAL_Driver/Src/stm32c0xx_hal_dma.c ****   {
 1449              		.loc 1 688 6 view .LVU484
 1450 00e6 0A42     		tst	r2, r1
 1451 00e8 05D0     		beq	.L74
 691:Drivers/STM32C0xx_HAL_Driver/Src/stm32c0xx_hal_dma.c **** 
 1452              		.loc 1 691 5 is_stmt 1 view .LVU485
 691:Drivers/STM32C0xx_HAL_Driver/Src/stm32c0xx_hal_dma.c **** 
 1453              		.loc 1 691 36 is_stmt 0 view .LVU486
 1454 00ea 5A60     		str	r2, [r3, #4]
 694:Drivers/STM32C0xx_HAL_Driver/Src/stm32c0xx_hal_dma.c ****   }
 1455              		.loc 1 694 5 is_stmt 1 view .LVU487
 694:Drivers/STM32C0xx_HAL_Driver/Src/stm32c0xx_hal_dma.c ****   }
 1456              		.loc 1 694 9 is_stmt 0 view .LVU488
 1457 00ec F26B     		ldr	r2, [r6, #60]
 694:Drivers/STM32C0xx_HAL_Driver/Src/stm32c0xx_hal_dma.c ****   }
 1458              		.loc 1 694 21 view .LVU489
 1459 00ee 8023     		movs	r3, #128
 1460 00f0 9B00     		lsls	r3, r3, #2
 1461 00f2 1343     		orrs	r3, r2
 1462 00f4 F363     		str	r3, [r6, #60]
 1463              	.L74:
 697:Drivers/STM32C0xx_HAL_Driver/Src/stm32c0xx_hal_dma.c ****   {
 1464              		.loc 1 697 3 is_stmt 1 view .LVU490
 697:Drivers/STM32C0xx_HAL_Driver/Src/stm32c0xx_hal_dma.c ****   {
 1465              		.loc 1 697 6 is_stmt 0 view .LVU491
 1466 00f6 002C     		cmp	r4, #0
 1467 00f8 10D1     		bne	.L75
 700:Drivers/STM32C0xx_HAL_Driver/Src/stm32c0xx_hal_dma.c **** 
 1468              		.loc 1 700 5 is_stmt 1 view .LVU492
 1469 00fa 0D48     		ldr	r0, .L81
 1470 00fc 4368     		ldr	r3, [r0, #4]
 1471 00fe 326C     		ldr	r2, [r6, #64]
 1472 0100 1C21     		movs	r1, #28
 1473 0102 1140     		ands	r1, r2
 1474 0104 0222     		movs	r2, #2
 1475 0106 8A40     		lsls	r2, r2, r1
 1476 0108 1343     		orrs	r3, r2
 1477 010a 4360     		str	r3, [r0, #4]
 1478              	.LVL87:
 704:Drivers/STM32C0xx_HAL_Driver/Src/stm32c0xx_hal_dma.c ****   }
 1479              		.loc 1 704 5 view .LVU493
 704:Drivers/STM32C0xx_HAL_Driver/Src/stm32c0xx_hal_dma.c ****   }
 1480              		.loc 1 704 17 is_stmt 0 view .LVU494
 1481 010c 2523     		movs	r3, #37
 1482 010e 0122     		movs	r2, #1
 1483 0110 F254     		strb	r2, [r6, r3]
 1484              	.L76:
 713:Drivers/STM32C0xx_HAL_Driver/Src/stm32c0xx_hal_dma.c **** 
 1485              		.loc 1 713 3 is_stmt 1 view .LVU495
 713:Drivers/STM32C0xx_HAL_Driver/Src/stm32c0xx_hal_dma.c **** 
 1486              		.loc 1 713 3 view .LVU496
 1487 0112 2423     		movs	r3, #36
 1488 0114 0022     		movs	r2, #0
 1489 0116 F254     		strb	r2, [r6, r3]
 713:Drivers/STM32C0xx_HAL_Driver/Src/stm32c0xx_hal_dma.c **** 
ARM GAS  C:\Users\simay\AppData\Local\Temp\cc43TqXJ.s 			page 53


 1490              		.loc 1 713 3 view .LVU497
 715:Drivers/STM32C0xx_HAL_Driver/Src/stm32c0xx_hal_dma.c **** }
 1491              		.loc 1 715 3 view .LVU498
 715:Drivers/STM32C0xx_HAL_Driver/Src/stm32c0xx_hal_dma.c **** }
 1492              		.loc 1 715 10 is_stmt 0 view .LVU499
 1493 0118 0020     		movs	r0, #0
 1494 011a 80E7     		b	.L64
 1495              	.LVL88:
 1496              	.L75:
 709:Drivers/STM32C0xx_HAL_Driver/Src/stm32c0xx_hal_dma.c ****   }
 1497              		.loc 1 709 5 is_stmt 1 view .LVU500
 1498 011c 0448     		ldr	r0, .L81
 1499 011e 4368     		ldr	r3, [r0, #4]
 1500 0120 326C     		ldr	r2, [r6, #64]
 1501 0122 1C21     		movs	r1, #28
 1502 0124 1140     		ands	r1, r2
 1503 0126 0422     		movs	r2, #4
 1504 0128 8A40     		lsls	r2, r2, r1
 1505 012a 1343     		orrs	r3, r2
 1506 012c 4360     		str	r3, [r0, #4]
 1507              	.LVL89:
 709:Drivers/STM32C0xx_HAL_Driver/Src/stm32c0xx_hal_dma.c ****   }
 1508              		.loc 1 709 5 is_stmt 0 view .LVU501
 1509 012e F0E7     		b	.L76
 1510              	.L82:
 1511              		.align	2
 1512              	.L81:
 1513 0130 00000240 		.word	1073872896
 1514              		.cfi_endproc
 1515              	.LFE236:
 1517              		.section	.text.HAL_DMA_IRQHandler,"ax",%progbits
 1518              		.align	1
 1519              		.global	HAL_DMA_IRQHandler
 1520              		.syntax unified
 1521              		.code	16
 1522              		.thumb_func
 1524              	HAL_DMA_IRQHandler:
 1525              	.LVL90:
 1526              	.LFB237:
 725:Drivers/STM32C0xx_HAL_Driver/Src/stm32c0xx_hal_dma.c ****   uint32_t flag_it = DMA1->ISR;
 1527              		.loc 1 725 1 is_stmt 1 view -0
 1528              		.cfi_startproc
 1529              		@ args = 0, pretend = 0, frame = 0
 1530              		@ frame_needed = 0, uses_anonymous_args = 0
 725:Drivers/STM32C0xx_HAL_Driver/Src/stm32c0xx_hal_dma.c ****   uint32_t flag_it = DMA1->ISR;
 1531              		.loc 1 725 1 is_stmt 0 view .LVU503
 1532 0000 70B5     		push	{r4, r5, r6, lr}
 1533              	.LCFI10:
 1534              		.cfi_def_cfa_offset 16
 1535              		.cfi_offset 4, -16
 1536              		.cfi_offset 5, -12
 1537              		.cfi_offset 6, -8
 1538              		.cfi_offset 14, -4
 726:Drivers/STM32C0xx_HAL_Driver/Src/stm32c0xx_hal_dma.c ****   uint32_t source_it = hdma->Instance->CCR;
 1539              		.loc 1 726 3 is_stmt 1 view .LVU504
 726:Drivers/STM32C0xx_HAL_Driver/Src/stm32c0xx_hal_dma.c ****   uint32_t source_it = hdma->Instance->CCR;
 1540              		.loc 1 726 12 is_stmt 0 view .LVU505
ARM GAS  C:\Users\simay\AppData\Local\Temp\cc43TqXJ.s 			page 54


 1541 0002 314B     		ldr	r3, .L94
 1542 0004 1968     		ldr	r1, [r3]
 1543              	.LVL91:
 727:Drivers/STM32C0xx_HAL_Driver/Src/stm32c0xx_hal_dma.c **** 
 1544              		.loc 1 727 3 is_stmt 1 view .LVU506
 727:Drivers/STM32C0xx_HAL_Driver/Src/stm32c0xx_hal_dma.c **** 
 1545              		.loc 1 727 28 is_stmt 0 view .LVU507
 1546 0006 0468     		ldr	r4, [r0]
 727:Drivers/STM32C0xx_HAL_Driver/Src/stm32c0xx_hal_dma.c **** 
 1547              		.loc 1 727 12 view .LVU508
 1548 0008 2568     		ldr	r5, [r4]
 1549              	.LVL92:
 730:Drivers/STM32C0xx_HAL_Driver/Src/stm32c0xx_hal_dma.c ****   {
 1550              		.loc 1 730 3 is_stmt 1 view .LVU509
 730:Drivers/STM32C0xx_HAL_Driver/Src/stm32c0xx_hal_dma.c ****   {
 1551              		.loc 1 730 41 is_stmt 0 view .LVU510
 1552 000a 026C     		ldr	r2, [r0, #64]
 730:Drivers/STM32C0xx_HAL_Driver/Src/stm32c0xx_hal_dma.c ****   {
 1553              		.loc 1 730 56 view .LVU511
 1554 000c 1C23     		movs	r3, #28
 1555 000e 1340     		ands	r3, r2
 730:Drivers/STM32C0xx_HAL_Driver/Src/stm32c0xx_hal_dma.c ****   {
 1556              		.loc 1 730 33 view .LVU512
 1557 0010 0422     		movs	r2, #4
 1558 0012 9A40     		lsls	r2, r2, r3
 730:Drivers/STM32C0xx_HAL_Driver/Src/stm32c0xx_hal_dma.c ****   {
 1559              		.loc 1 730 6 view .LVU513
 1560 0014 1142     		tst	r1, r2
 1561 0016 16D0     		beq	.L84
 730:Drivers/STM32C0xx_HAL_Driver/Src/stm32c0xx_hal_dma.c ****   {
 1562              		.loc 1 730 74 discriminator 1 view .LVU514
 1563 0018 6A07     		lsls	r2, r5, #29
 1564 001a 14D5     		bpl	.L84
 733:Drivers/STM32C0xx_HAL_Driver/Src/stm32c0xx_hal_dma.c ****     {
 1565              		.loc 1 733 5 is_stmt 1 view .LVU515
 733:Drivers/STM32C0xx_HAL_Driver/Src/stm32c0xx_hal_dma.c ****     {
 1566              		.loc 1 733 24 is_stmt 0 view .LVU516
 1567 001c 2368     		ldr	r3, [r4]
 733:Drivers/STM32C0xx_HAL_Driver/Src/stm32c0xx_hal_dma.c ****     {
 1568              		.loc 1 733 8 view .LVU517
 1569 001e 9B06     		lsls	r3, r3, #26
 1570 0020 03D4     		bmi	.L85
 736:Drivers/STM32C0xx_HAL_Driver/Src/stm32c0xx_hal_dma.c ****     }
 1571              		.loc 1 736 7 is_stmt 1 view .LVU518
 1572 0022 2368     		ldr	r3, [r4]
 1573 0024 0422     		movs	r2, #4
 1574 0026 9343     		bics	r3, r2
 1575 0028 2360     		str	r3, [r4]
 1576              	.L85:
 739:Drivers/STM32C0xx_HAL_Driver/Src/stm32c0xx_hal_dma.c **** 
 1577              		.loc 1 739 5 view .LVU519
 1578 002a 274C     		ldr	r4, .L94
 1579 002c 6368     		ldr	r3, [r4, #4]
 1580 002e 026C     		ldr	r2, [r0, #64]
 1581 0030 1C21     		movs	r1, #28
 1582              	.LVL93:
 739:Drivers/STM32C0xx_HAL_Driver/Src/stm32c0xx_hal_dma.c **** 
ARM GAS  C:\Users\simay\AppData\Local\Temp\cc43TqXJ.s 			page 55


 1583              		.loc 1 739 5 is_stmt 0 view .LVU520
 1584 0032 1140     		ands	r1, r2
 1585 0034 0422     		movs	r2, #4
 1586 0036 8A40     		lsls	r2, r2, r1
 1587 0038 1343     		orrs	r3, r2
 1588 003a 6360     		str	r3, [r4, #4]
 744:Drivers/STM32C0xx_HAL_Driver/Src/stm32c0xx_hal_dma.c ****     {
 1589              		.loc 1 744 5 is_stmt 1 view .LVU521
 744:Drivers/STM32C0xx_HAL_Driver/Src/stm32c0xx_hal_dma.c ****     {
 1590              		.loc 1 744 13 is_stmt 0 view .LVU522
 1591 003c 036B     		ldr	r3, [r0, #48]
 744:Drivers/STM32C0xx_HAL_Driver/Src/stm32c0xx_hal_dma.c ****     {
 1592              		.loc 1 744 8 view .LVU523
 1593 003e 002B     		cmp	r3, #0
 1594 0040 00D0     		beq	.L83
 747:Drivers/STM32C0xx_HAL_Driver/Src/stm32c0xx_hal_dma.c ****     }
 1595              		.loc 1 747 7 is_stmt 1 view .LVU524
 1596 0042 9847     		blx	r3
 1597              	.LVL94:
 1598              	.L83:
 806:Drivers/STM32C0xx_HAL_Driver/Src/stm32c0xx_hal_dma.c **** 
 1599              		.loc 1 806 1 is_stmt 0 view .LVU525
 1600              		@ sp needed
 1601 0044 70BD     		pop	{r4, r5, r6, pc}
 1602              	.LVL95:
 1603              	.L84:
 752:Drivers/STM32C0xx_HAL_Driver/Src/stm32c0xx_hal_dma.c ****   {
 1604              		.loc 1 752 8 is_stmt 1 view .LVU526
 752:Drivers/STM32C0xx_HAL_Driver/Src/stm32c0xx_hal_dma.c ****   {
 1605              		.loc 1 752 44 is_stmt 0 view .LVU527
 1606 0046 0222     		movs	r2, #2
 1607 0048 9A40     		lsls	r2, r2, r3
 752:Drivers/STM32C0xx_HAL_Driver/Src/stm32c0xx_hal_dma.c ****   {
 1608              		.loc 1 752 11 view .LVU528
 1609 004a 1142     		tst	r1, r2
 1610 004c 1CD0     		beq	.L87
 752:Drivers/STM32C0xx_HAL_Driver/Src/stm32c0xx_hal_dma.c ****   {
 1611              		.loc 1 752 79 discriminator 1 view .LVU529
 1612 004e AA07     		lsls	r2, r5, #30
 1613 0050 1AD5     		bpl	.L87
 754:Drivers/STM32C0xx_HAL_Driver/Src/stm32c0xx_hal_dma.c ****     {
 1614              		.loc 1 754 5 is_stmt 1 view .LVU530
 754:Drivers/STM32C0xx_HAL_Driver/Src/stm32c0xx_hal_dma.c ****     {
 1615              		.loc 1 754 24 is_stmt 0 view .LVU531
 1616 0052 2368     		ldr	r3, [r4]
 754:Drivers/STM32C0xx_HAL_Driver/Src/stm32c0xx_hal_dma.c ****     {
 1617              		.loc 1 754 8 view .LVU532
 1618 0054 9B06     		lsls	r3, r3, #26
 1619 0056 06D4     		bmi	.L88
 757:Drivers/STM32C0xx_HAL_Driver/Src/stm32c0xx_hal_dma.c **** 
 1620              		.loc 1 757 7 is_stmt 1 view .LVU533
 1621 0058 2368     		ldr	r3, [r4]
 1622 005a 0A22     		movs	r2, #10
 1623 005c 9343     		bics	r3, r2
 1624 005e 2360     		str	r3, [r4]
 760:Drivers/STM32C0xx_HAL_Driver/Src/stm32c0xx_hal_dma.c ****     }
 1625              		.loc 1 760 7 view .LVU534
ARM GAS  C:\Users\simay\AppData\Local\Temp\cc43TqXJ.s 			page 56


 760:Drivers/STM32C0xx_HAL_Driver/Src/stm32c0xx_hal_dma.c ****     }
 1626              		.loc 1 760 19 is_stmt 0 view .LVU535
 1627 0060 2523     		movs	r3, #37
 1628 0062 093A     		subs	r2, r2, #9
 1629 0064 C254     		strb	r2, [r0, r3]
 1630              	.L88:
 763:Drivers/STM32C0xx_HAL_Driver/Src/stm32c0xx_hal_dma.c **** 
 1631              		.loc 1 763 5 is_stmt 1 view .LVU536
 1632 0066 184C     		ldr	r4, .L94
 1633 0068 6368     		ldr	r3, [r4, #4]
 1634 006a 026C     		ldr	r2, [r0, #64]
 1635 006c 1C21     		movs	r1, #28
 1636              	.LVL96:
 763:Drivers/STM32C0xx_HAL_Driver/Src/stm32c0xx_hal_dma.c **** 
 1637              		.loc 1 763 5 is_stmt 0 view .LVU537
 1638 006e 1140     		ands	r1, r2
 1639 0070 0222     		movs	r2, #2
 1640 0072 8A40     		lsls	r2, r2, r1
 1641 0074 1343     		orrs	r3, r2
 1642 0076 6360     		str	r3, [r4, #4]
 766:Drivers/STM32C0xx_HAL_Driver/Src/stm32c0xx_hal_dma.c **** 
 1643              		.loc 1 766 5 is_stmt 1 view .LVU538
 766:Drivers/STM32C0xx_HAL_Driver/Src/stm32c0xx_hal_dma.c **** 
 1644              		.loc 1 766 5 view .LVU539
 1645 0078 2423     		movs	r3, #36
 1646 007a 0022     		movs	r2, #0
 1647 007c C254     		strb	r2, [r0, r3]
 766:Drivers/STM32C0xx_HAL_Driver/Src/stm32c0xx_hal_dma.c **** 
 1648              		.loc 1 766 5 view .LVU540
 768:Drivers/STM32C0xx_HAL_Driver/Src/stm32c0xx_hal_dma.c ****     {
 1649              		.loc 1 768 5 view .LVU541
 768:Drivers/STM32C0xx_HAL_Driver/Src/stm32c0xx_hal_dma.c ****     {
 1650              		.loc 1 768 13 is_stmt 0 view .LVU542
 1651 007e C36A     		ldr	r3, [r0, #44]
 768:Drivers/STM32C0xx_HAL_Driver/Src/stm32c0xx_hal_dma.c ****     {
 1652              		.loc 1 768 8 view .LVU543
 1653 0080 002B     		cmp	r3, #0
 1654 0082 DFD0     		beq	.L83
 771:Drivers/STM32C0xx_HAL_Driver/Src/stm32c0xx_hal_dma.c ****     }
 1655              		.loc 1 771 7 is_stmt 1 view .LVU544
 1656 0084 9847     		blx	r3
 1657              	.LVL97:
 771:Drivers/STM32C0xx_HAL_Driver/Src/stm32c0xx_hal_dma.c ****     }
 1658              		.loc 1 771 7 is_stmt 0 view .LVU545
 1659 0086 DDE7     		b	.L83
 1660              	.LVL98:
 1661              	.L87:
 776:Drivers/STM32C0xx_HAL_Driver/Src/stm32c0xx_hal_dma.c ****   {
 1662              		.loc 1 776 8 is_stmt 1 view .LVU546
 776:Drivers/STM32C0xx_HAL_Driver/Src/stm32c0xx_hal_dma.c ****   {
 1663              		.loc 1 776 38 is_stmt 0 view .LVU547
 1664 0088 0822     		movs	r2, #8
 1665 008a 9A40     		lsls	r2, r2, r3
 776:Drivers/STM32C0xx_HAL_Driver/Src/stm32c0xx_hal_dma.c ****   {
 1666              		.loc 1 776 11 view .LVU548
 1667 008c 1142     		tst	r1, r2
 1668 008e D9D0     		beq	.L83
ARM GAS  C:\Users\simay\AppData\Local\Temp\cc43TqXJ.s 			page 57


 776:Drivers/STM32C0xx_HAL_Driver/Src/stm32c0xx_hal_dma.c ****   {
 1669              		.loc 1 776 79 discriminator 1 view .LVU549
 1670 0090 2D07     		lsls	r5, r5, #28
 1671 0092 D7D5     		bpl	.L83
 1672              	.LVL99:
 781:Drivers/STM32C0xx_HAL_Driver/Src/stm32c0xx_hal_dma.c **** 
 1673              		.loc 1 781 5 is_stmt 1 view .LVU550
 1674 0094 2368     		ldr	r3, [r4]
 1675 0096 0E22     		movs	r2, #14
 1676 0098 9343     		bics	r3, r2
 1677 009a 2360     		str	r3, [r4]
 784:Drivers/STM32C0xx_HAL_Driver/Src/stm32c0xx_hal_dma.c **** 
 1678              		.loc 1 784 5 view .LVU551
 1679 009c 0A4C     		ldr	r4, .L94
 1680 009e 6268     		ldr	r2, [r4, #4]
 1681 00a0 036C     		ldr	r3, [r0, #64]
 1682 00a2 1C21     		movs	r1, #28
 1683              	.LVL100:
 784:Drivers/STM32C0xx_HAL_Driver/Src/stm32c0xx_hal_dma.c **** 
 1684              		.loc 1 784 5 is_stmt 0 view .LVU552
 1685 00a4 1940     		ands	r1, r3
 1686 00a6 0123     		movs	r3, #1
 1687 00a8 1D00     		movs	r5, r3
 1688 00aa 8D40     		lsls	r5, r5, r1
 1689 00ac 2A43     		orrs	r2, r5
 1690 00ae 6260     		str	r2, [r4, #4]
 787:Drivers/STM32C0xx_HAL_Driver/Src/stm32c0xx_hal_dma.c **** 
 1691              		.loc 1 787 5 is_stmt 1 view .LVU553
 787:Drivers/STM32C0xx_HAL_Driver/Src/stm32c0xx_hal_dma.c **** 
 1692              		.loc 1 787 21 is_stmt 0 view .LVU554
 1693 00b0 C363     		str	r3, [r0, #60]
 790:Drivers/STM32C0xx_HAL_Driver/Src/stm32c0xx_hal_dma.c **** 
 1694              		.loc 1 790 5 is_stmt 1 view .LVU555
 790:Drivers/STM32C0xx_HAL_Driver/Src/stm32c0xx_hal_dma.c **** 
 1695              		.loc 1 790 17 is_stmt 0 view .LVU556
 1696 00b2 2522     		movs	r2, #37
 1697 00b4 8354     		strb	r3, [r0, r2]
 793:Drivers/STM32C0xx_HAL_Driver/Src/stm32c0xx_hal_dma.c **** 
 1698              		.loc 1 793 5 is_stmt 1 view .LVU557
 793:Drivers/STM32C0xx_HAL_Driver/Src/stm32c0xx_hal_dma.c **** 
 1699              		.loc 1 793 5 view .LVU558
 1700 00b6 2333     		adds	r3, r3, #35
 1701 00b8 0022     		movs	r2, #0
 1702 00ba C254     		strb	r2, [r0, r3]
 793:Drivers/STM32C0xx_HAL_Driver/Src/stm32c0xx_hal_dma.c **** 
 1703              		.loc 1 793 5 view .LVU559
 795:Drivers/STM32C0xx_HAL_Driver/Src/stm32c0xx_hal_dma.c ****     {
 1704              		.loc 1 795 5 view .LVU560
 795:Drivers/STM32C0xx_HAL_Driver/Src/stm32c0xx_hal_dma.c ****     {
 1705              		.loc 1 795 13 is_stmt 0 view .LVU561
 1706 00bc 436B     		ldr	r3, [r0, #52]
 795:Drivers/STM32C0xx_HAL_Driver/Src/stm32c0xx_hal_dma.c ****     {
 1707              		.loc 1 795 8 view .LVU562
 1708 00be 002B     		cmp	r3, #0
 1709 00c0 C0D0     		beq	.L83
 798:Drivers/STM32C0xx_HAL_Driver/Src/stm32c0xx_hal_dma.c ****     }
 1710              		.loc 1 798 7 is_stmt 1 view .LVU563
ARM GAS  C:\Users\simay\AppData\Local\Temp\cc43TqXJ.s 			page 58


 1711 00c2 9847     		blx	r3
 1712              	.LVL101:
 804:Drivers/STM32C0xx_HAL_Driver/Src/stm32c0xx_hal_dma.c ****   return;
 1713              		.loc 1 804 3 view .LVU564
 805:Drivers/STM32C0xx_HAL_Driver/Src/stm32c0xx_hal_dma.c **** }
 1714              		.loc 1 805 3 view .LVU565
 1715 00c4 BEE7     		b	.L83
 1716              	.L95:
 1717 00c6 C046     		.align	2
 1718              	.L94:
 1719 00c8 00000240 		.word	1073872896
 1720              		.cfi_endproc
 1721              	.LFE237:
 1723              		.section	.text.HAL_DMA_RegisterCallback,"ax",%progbits
 1724              		.align	1
 1725              		.global	HAL_DMA_RegisterCallback
 1726              		.syntax unified
 1727              		.code	16
 1728              		.thumb_func
 1730              	HAL_DMA_RegisterCallback:
 1731              	.LVL102:
 1732              	.LFB238:
 820:Drivers/STM32C0xx_HAL_Driver/Src/stm32c0xx_hal_dma.c ****   HAL_StatusTypeDef status = HAL_OK;
 1733              		.loc 1 820 1 view -0
 1734              		.cfi_startproc
 1735              		@ args = 0, pretend = 0, frame = 0
 1736              		@ frame_needed = 0, uses_anonymous_args = 0
 820:Drivers/STM32C0xx_HAL_Driver/Src/stm32c0xx_hal_dma.c ****   HAL_StatusTypeDef status = HAL_OK;
 1737              		.loc 1 820 1 is_stmt 0 view .LVU567
 1738 0000 10B5     		push	{r4, lr}
 1739              	.LCFI11:
 1740              		.cfi_def_cfa_offset 8
 1741              		.cfi_offset 4, -8
 1742              		.cfi_offset 14, -4
 1743 0002 0300     		movs	r3, r0
 821:Drivers/STM32C0xx_HAL_Driver/Src/stm32c0xx_hal_dma.c **** 
 1744              		.loc 1 821 3 is_stmt 1 view .LVU568
 1745              	.LVL103:
 824:Drivers/STM32C0xx_HAL_Driver/Src/stm32c0xx_hal_dma.c **** 
 1746              		.loc 1 824 3 view .LVU569
 824:Drivers/STM32C0xx_HAL_Driver/Src/stm32c0xx_hal_dma.c **** 
 1747              		.loc 1 824 3 view .LVU570
 1748 0004 2420     		movs	r0, #36
 1749              	.LVL104:
 824:Drivers/STM32C0xx_HAL_Driver/Src/stm32c0xx_hal_dma.c **** 
 1750              		.loc 1 824 3 is_stmt 0 view .LVU571
 1751 0006 185C     		ldrb	r0, [r3, r0]
 1752 0008 0128     		cmp	r0, #1
 1753 000a 21D0     		beq	.L104
 824:Drivers/STM32C0xx_HAL_Driver/Src/stm32c0xx_hal_dma.c **** 
 1754              		.loc 1 824 3 is_stmt 1 discriminator 2 view .LVU572
 1755 000c 2420     		movs	r0, #36
 1756 000e 0124     		movs	r4, #1
 1757 0010 1C54     		strb	r4, [r3, r0]
 824:Drivers/STM32C0xx_HAL_Driver/Src/stm32c0xx_hal_dma.c **** 
 1758              		.loc 1 824 3 view .LVU573
 826:Drivers/STM32C0xx_HAL_Driver/Src/stm32c0xx_hal_dma.c ****   {
ARM GAS  C:\Users\simay\AppData\Local\Temp\cc43TqXJ.s 			page 59


 1759              		.loc 1 826 3 view .LVU574
 826:Drivers/STM32C0xx_HAL_Driver/Src/stm32c0xx_hal_dma.c ****   {
 1760              		.loc 1 826 34 is_stmt 0 view .LVU575
 1761 0012 0130     		adds	r0, r0, #1
 1762 0014 1C5C     		ldrb	r4, [r3, r0]
 1763 0016 E0B2     		uxtb	r0, r4
 826:Drivers/STM32C0xx_HAL_Driver/Src/stm32c0xx_hal_dma.c ****   {
 1764              		.loc 1 826 6 view .LVU576
 1765 0018 012C     		cmp	r4, #1
 1766 001a 04D0     		beq	.L106
 853:Drivers/STM32C0xx_HAL_Driver/Src/stm32c0xx_hal_dma.c ****   }
 1767              		.loc 1 853 12 view .LVU577
 1768 001c 0120     		movs	r0, #1
 1769              	.L98:
 1770              	.LVL105:
 857:Drivers/STM32C0xx_HAL_Driver/Src/stm32c0xx_hal_dma.c **** 
 1771              		.loc 1 857 3 is_stmt 1 view .LVU578
 857:Drivers/STM32C0xx_HAL_Driver/Src/stm32c0xx_hal_dma.c **** 
 1772              		.loc 1 857 3 view .LVU579
 1773 001e 2422     		movs	r2, #36
 1774              	.LVL106:
 857:Drivers/STM32C0xx_HAL_Driver/Src/stm32c0xx_hal_dma.c **** 
 1775              		.loc 1 857 3 is_stmt 0 view .LVU580
 1776 0020 0021     		movs	r1, #0
 1777              	.LVL107:
 857:Drivers/STM32C0xx_HAL_Driver/Src/stm32c0xx_hal_dma.c **** 
 1778              		.loc 1 857 3 view .LVU581
 1779 0022 9954     		strb	r1, [r3, r2]
 857:Drivers/STM32C0xx_HAL_Driver/Src/stm32c0xx_hal_dma.c **** 
 1780              		.loc 1 857 3 is_stmt 1 view .LVU582
 859:Drivers/STM32C0xx_HAL_Driver/Src/stm32c0xx_hal_dma.c **** }
 1781              		.loc 1 859 3 view .LVU583
 1782              	.LVL108:
 1783              	.L97:
 860:Drivers/STM32C0xx_HAL_Driver/Src/stm32c0xx_hal_dma.c **** 
 1784              		.loc 1 860 1 is_stmt 0 view .LVU584
 1785              		@ sp needed
 1786 0024 10BD     		pop	{r4, pc}
 1787              	.LVL109:
 1788              	.L106:
 828:Drivers/STM32C0xx_HAL_Driver/Src/stm32c0xx_hal_dma.c ****     {
 1789              		.loc 1 828 5 is_stmt 1 view .LVU585
 1790 0026 0229     		cmp	r1, #2
 1791 0028 0FD0     		beq	.L99
 1792 002a 06D8     		bhi	.L100
 1793 002c 0029     		cmp	r1, #0
 1794 002e 09D0     		beq	.L101
 1795 0030 0129     		cmp	r1, #1
 1796 0032 F4D1     		bne	.L98
 835:Drivers/STM32C0xx_HAL_Driver/Src/stm32c0xx_hal_dma.c ****         break;
 1797              		.loc 1 835 9 view .LVU586
 835:Drivers/STM32C0xx_HAL_Driver/Src/stm32c0xx_hal_dma.c ****         break;
 1798              		.loc 1 835 36 is_stmt 0 view .LVU587
 1799 0034 1A63     		str	r2, [r3, #48]
 836:Drivers/STM32C0xx_HAL_Driver/Src/stm32c0xx_hal_dma.c **** 
 1800              		.loc 1 836 9 is_stmt 1 view .LVU588
 821:Drivers/STM32C0xx_HAL_Driver/Src/stm32c0xx_hal_dma.c **** 
ARM GAS  C:\Users\simay\AppData\Local\Temp\cc43TqXJ.s 			page 60


 1801              		.loc 1 821 21 is_stmt 0 view .LVU589
 1802 0036 0020     		movs	r0, #0
 836:Drivers/STM32C0xx_HAL_Driver/Src/stm32c0xx_hal_dma.c **** 
 1803              		.loc 1 836 9 view .LVU590
 1804 0038 F1E7     		b	.L98
 1805              	.L100:
 828:Drivers/STM32C0xx_HAL_Driver/Src/stm32c0xx_hal_dma.c ****     {
 1806              		.loc 1 828 5 view .LVU591
 1807 003a 0329     		cmp	r1, #3
 1808 003c EFD1     		bne	.L98
 843:Drivers/STM32C0xx_HAL_Driver/Src/stm32c0xx_hal_dma.c ****         break;
 1809              		.loc 1 843 9 is_stmt 1 view .LVU592
 843:Drivers/STM32C0xx_HAL_Driver/Src/stm32c0xx_hal_dma.c ****         break;
 1810              		.loc 1 843 33 is_stmt 0 view .LVU593
 1811 003e 9A63     		str	r2, [r3, #56]
 844:Drivers/STM32C0xx_HAL_Driver/Src/stm32c0xx_hal_dma.c **** 
 1812              		.loc 1 844 9 is_stmt 1 view .LVU594
 821:Drivers/STM32C0xx_HAL_Driver/Src/stm32c0xx_hal_dma.c **** 
 1813              		.loc 1 821 21 is_stmt 0 view .LVU595
 1814 0040 0020     		movs	r0, #0
 844:Drivers/STM32C0xx_HAL_Driver/Src/stm32c0xx_hal_dma.c **** 
 1815              		.loc 1 844 9 view .LVU596
 1816 0042 ECE7     		b	.L98
 1817              	.L101:
 831:Drivers/STM32C0xx_HAL_Driver/Src/stm32c0xx_hal_dma.c ****         break;
 1818              		.loc 1 831 9 is_stmt 1 view .LVU597
 831:Drivers/STM32C0xx_HAL_Driver/Src/stm32c0xx_hal_dma.c ****         break;
 1819              		.loc 1 831 32 is_stmt 0 view .LVU598
 1820 0044 DA62     		str	r2, [r3, #44]
 832:Drivers/STM32C0xx_HAL_Driver/Src/stm32c0xx_hal_dma.c **** 
 1821              		.loc 1 832 9 is_stmt 1 view .LVU599
 821:Drivers/STM32C0xx_HAL_Driver/Src/stm32c0xx_hal_dma.c **** 
 1822              		.loc 1 821 21 is_stmt 0 view .LVU600
 1823 0046 0800     		movs	r0, r1
 832:Drivers/STM32C0xx_HAL_Driver/Src/stm32c0xx_hal_dma.c **** 
 1824              		.loc 1 832 9 view .LVU601
 1825 0048 E9E7     		b	.L98
 1826              	.L99:
 839:Drivers/STM32C0xx_HAL_Driver/Src/stm32c0xx_hal_dma.c ****         break;
 1827              		.loc 1 839 9 is_stmt 1 view .LVU602
 839:Drivers/STM32C0xx_HAL_Driver/Src/stm32c0xx_hal_dma.c ****         break;
 1828              		.loc 1 839 33 is_stmt 0 view .LVU603
 1829 004a 5A63     		str	r2, [r3, #52]
 840:Drivers/STM32C0xx_HAL_Driver/Src/stm32c0xx_hal_dma.c **** 
 1830              		.loc 1 840 9 is_stmt 1 view .LVU604
 821:Drivers/STM32C0xx_HAL_Driver/Src/stm32c0xx_hal_dma.c **** 
 1831              		.loc 1 821 21 is_stmt 0 view .LVU605
 1832 004c 0020     		movs	r0, #0
 840:Drivers/STM32C0xx_HAL_Driver/Src/stm32c0xx_hal_dma.c **** 
 1833              		.loc 1 840 9 view .LVU606
 1834 004e E6E7     		b	.L98
 1835              	.L104:
 824:Drivers/STM32C0xx_HAL_Driver/Src/stm32c0xx_hal_dma.c **** 
 1836              		.loc 1 824 3 discriminator 1 view .LVU607
 1837 0050 0220     		movs	r0, #2
 1838 0052 E7E7     		b	.L97
 1839              		.cfi_endproc
ARM GAS  C:\Users\simay\AppData\Local\Temp\cc43TqXJ.s 			page 61


 1840              	.LFE238:
 1842              		.section	.text.HAL_DMA_UnRegisterCallback,"ax",%progbits
 1843              		.align	1
 1844              		.global	HAL_DMA_UnRegisterCallback
 1845              		.syntax unified
 1846              		.code	16
 1847              		.thumb_func
 1849              	HAL_DMA_UnRegisterCallback:
 1850              	.LVL110:
 1851              	.LFB239:
 871:Drivers/STM32C0xx_HAL_Driver/Src/stm32c0xx_hal_dma.c ****   HAL_StatusTypeDef status = HAL_OK;
 1852              		.loc 1 871 1 is_stmt 1 view -0
 1853              		.cfi_startproc
 1854              		@ args = 0, pretend = 0, frame = 0
 1855              		@ frame_needed = 0, uses_anonymous_args = 0
 1856              		@ link register save eliminated.
 871:Drivers/STM32C0xx_HAL_Driver/Src/stm32c0xx_hal_dma.c ****   HAL_StatusTypeDef status = HAL_OK;
 1857              		.loc 1 871 1 is_stmt 0 view .LVU609
 1858 0000 0300     		movs	r3, r0
 872:Drivers/STM32C0xx_HAL_Driver/Src/stm32c0xx_hal_dma.c **** 
 1859              		.loc 1 872 3 is_stmt 1 view .LVU610
 1860              	.LVL111:
 875:Drivers/STM32C0xx_HAL_Driver/Src/stm32c0xx_hal_dma.c **** 
 1861              		.loc 1 875 3 view .LVU611
 875:Drivers/STM32C0xx_HAL_Driver/Src/stm32c0xx_hal_dma.c **** 
 1862              		.loc 1 875 3 view .LVU612
 1863 0002 2422     		movs	r2, #36
 1864 0004 825C     		ldrb	r2, [r0, r2]
 1865 0006 012A     		cmp	r2, #1
 1866 0008 29D0     		beq	.L116
 875:Drivers/STM32C0xx_HAL_Driver/Src/stm32c0xx_hal_dma.c **** 
 1867              		.loc 1 875 3 discriminator 2 view .LVU613
 1868 000a 2422     		movs	r2, #36
 1869 000c 0120     		movs	r0, #1
 1870              	.LVL112:
 875:Drivers/STM32C0xx_HAL_Driver/Src/stm32c0xx_hal_dma.c **** 
 1871              		.loc 1 875 3 is_stmt 0 discriminator 2 view .LVU614
 1872 000e 9854     		strb	r0, [r3, r2]
 875:Drivers/STM32C0xx_HAL_Driver/Src/stm32c0xx_hal_dma.c **** 
 1873              		.loc 1 875 3 is_stmt 1 view .LVU615
 877:Drivers/STM32C0xx_HAL_Driver/Src/stm32c0xx_hal_dma.c ****   {
 1874              		.loc 1 877 3 view .LVU616
 877:Drivers/STM32C0xx_HAL_Driver/Src/stm32c0xx_hal_dma.c ****   {
 1875              		.loc 1 877 34 is_stmt 0 view .LVU617
 1876 0010 0132     		adds	r2, r2, #1
 1877 0012 9A5C     		ldrb	r2, [r3, r2]
 1878 0014 D0B2     		uxtb	r0, r2
 877:Drivers/STM32C0xx_HAL_Driver/Src/stm32c0xx_hal_dma.c ****   {
 1879              		.loc 1 877 6 view .LVU618
 1880 0016 012A     		cmp	r2, #1
 1881 0018 04D0     		beq	.L118
 911:Drivers/STM32C0xx_HAL_Driver/Src/stm32c0xx_hal_dma.c ****   }
 1882              		.loc 1 911 12 view .LVU619
 1883 001a 0120     		movs	r0, #1
 1884              	.L109:
 1885              	.LVL113:
 915:Drivers/STM32C0xx_HAL_Driver/Src/stm32c0xx_hal_dma.c **** 
ARM GAS  C:\Users\simay\AppData\Local\Temp\cc43TqXJ.s 			page 62


 1886              		.loc 1 915 3 is_stmt 1 view .LVU620
 915:Drivers/STM32C0xx_HAL_Driver/Src/stm32c0xx_hal_dma.c **** 
 1887              		.loc 1 915 3 view .LVU621
 1888 001c 2422     		movs	r2, #36
 1889 001e 0021     		movs	r1, #0
 1890              	.LVL114:
 915:Drivers/STM32C0xx_HAL_Driver/Src/stm32c0xx_hal_dma.c **** 
 1891              		.loc 1 915 3 is_stmt 0 view .LVU622
 1892 0020 9954     		strb	r1, [r3, r2]
 915:Drivers/STM32C0xx_HAL_Driver/Src/stm32c0xx_hal_dma.c **** 
 1893              		.loc 1 915 3 is_stmt 1 view .LVU623
 917:Drivers/STM32C0xx_HAL_Driver/Src/stm32c0xx_hal_dma.c **** }
 1894              		.loc 1 917 3 view .LVU624
 1895              	.LVL115:
 1896              	.L108:
 918:Drivers/STM32C0xx_HAL_Driver/Src/stm32c0xx_hal_dma.c **** 
 1897              		.loc 1 918 1 is_stmt 0 view .LVU625
 1898              		@ sp needed
 1899 0022 7047     		bx	lr
 1900              	.LVL116:
 1901              	.L118:
 879:Drivers/STM32C0xx_HAL_Driver/Src/stm32c0xx_hal_dma.c ****     {
 1902              		.loc 1 879 5 is_stmt 1 view .LVU626
 1903 0024 0429     		cmp	r1, #4
 1904 0026 F9D8     		bhi	.L109
 1905 0028 8A00     		lsls	r2, r1, #2
 1906 002a 0E48     		ldr	r0, .L119
 1907 002c 8258     		ldr	r2, [r0, r2]
 1908 002e 9746     		mov	pc, r2
 1909              		.section	.rodata.HAL_DMA_UnRegisterCallback,"a",%progbits
 1910              		.align	2
 1911              	.L111:
 1912 0000 30000000 		.word	.L115
 1913 0004 38000000 		.word	.L114
 1914 0008 40000000 		.word	.L113
 1915 000c 48000000 		.word	.L112
 1916 0010 50000000 		.word	.L110
 1917              		.section	.text.HAL_DMA_UnRegisterCallback
 1918              	.L115:
 882:Drivers/STM32C0xx_HAL_Driver/Src/stm32c0xx_hal_dma.c ****         break;
 1919              		.loc 1 882 9 view .LVU627
 882:Drivers/STM32C0xx_HAL_Driver/Src/stm32c0xx_hal_dma.c ****         break;
 1920              		.loc 1 882 32 is_stmt 0 view .LVU628
 1921 0030 0022     		movs	r2, #0
 1922 0032 DA62     		str	r2, [r3, #44]
 883:Drivers/STM32C0xx_HAL_Driver/Src/stm32c0xx_hal_dma.c **** 
 1923              		.loc 1 883 9 is_stmt 1 view .LVU629
 872:Drivers/STM32C0xx_HAL_Driver/Src/stm32c0xx_hal_dma.c **** 
 1924              		.loc 1 872 21 is_stmt 0 view .LVU630
 1925 0034 0800     		movs	r0, r1
 883:Drivers/STM32C0xx_HAL_Driver/Src/stm32c0xx_hal_dma.c **** 
 1926              		.loc 1 883 9 view .LVU631
 1927 0036 F1E7     		b	.L109
 1928              	.L114:
 886:Drivers/STM32C0xx_HAL_Driver/Src/stm32c0xx_hal_dma.c ****         break;
 1929              		.loc 1 886 9 is_stmt 1 view .LVU632
 886:Drivers/STM32C0xx_HAL_Driver/Src/stm32c0xx_hal_dma.c ****         break;
ARM GAS  C:\Users\simay\AppData\Local\Temp\cc43TqXJ.s 			page 63


 1930              		.loc 1 886 36 is_stmt 0 view .LVU633
 1931 0038 0022     		movs	r2, #0
 1932 003a 1A63     		str	r2, [r3, #48]
 887:Drivers/STM32C0xx_HAL_Driver/Src/stm32c0xx_hal_dma.c **** 
 1933              		.loc 1 887 9 is_stmt 1 view .LVU634
 872:Drivers/STM32C0xx_HAL_Driver/Src/stm32c0xx_hal_dma.c **** 
 1934              		.loc 1 872 21 is_stmt 0 view .LVU635
 1935 003c 0020     		movs	r0, #0
 887:Drivers/STM32C0xx_HAL_Driver/Src/stm32c0xx_hal_dma.c **** 
 1936              		.loc 1 887 9 view .LVU636
 1937 003e EDE7     		b	.L109
 1938              	.L113:
 890:Drivers/STM32C0xx_HAL_Driver/Src/stm32c0xx_hal_dma.c ****         break;
 1939              		.loc 1 890 9 is_stmt 1 view .LVU637
 890:Drivers/STM32C0xx_HAL_Driver/Src/stm32c0xx_hal_dma.c ****         break;
 1940              		.loc 1 890 33 is_stmt 0 view .LVU638
 1941 0040 0022     		movs	r2, #0
 1942 0042 5A63     		str	r2, [r3, #52]
 891:Drivers/STM32C0xx_HAL_Driver/Src/stm32c0xx_hal_dma.c **** 
 1943              		.loc 1 891 9 is_stmt 1 view .LVU639
 872:Drivers/STM32C0xx_HAL_Driver/Src/stm32c0xx_hal_dma.c **** 
 1944              		.loc 1 872 21 is_stmt 0 view .LVU640
 1945 0044 0020     		movs	r0, #0
 891:Drivers/STM32C0xx_HAL_Driver/Src/stm32c0xx_hal_dma.c **** 
 1946              		.loc 1 891 9 view .LVU641
 1947 0046 E9E7     		b	.L109
 1948              	.L112:
 894:Drivers/STM32C0xx_HAL_Driver/Src/stm32c0xx_hal_dma.c ****         break;
 1949              		.loc 1 894 9 is_stmt 1 view .LVU642
 894:Drivers/STM32C0xx_HAL_Driver/Src/stm32c0xx_hal_dma.c ****         break;
 1950              		.loc 1 894 33 is_stmt 0 view .LVU643
 1951 0048 0022     		movs	r2, #0
 1952 004a 9A63     		str	r2, [r3, #56]
 895:Drivers/STM32C0xx_HAL_Driver/Src/stm32c0xx_hal_dma.c **** 
 1953              		.loc 1 895 9 is_stmt 1 view .LVU644
 872:Drivers/STM32C0xx_HAL_Driver/Src/stm32c0xx_hal_dma.c **** 
 1954              		.loc 1 872 21 is_stmt 0 view .LVU645
 1955 004c 0020     		movs	r0, #0
 895:Drivers/STM32C0xx_HAL_Driver/Src/stm32c0xx_hal_dma.c **** 
 1956              		.loc 1 895 9 view .LVU646
 1957 004e E5E7     		b	.L109
 1958              	.L110:
 898:Drivers/STM32C0xx_HAL_Driver/Src/stm32c0xx_hal_dma.c ****         hdma->XferHalfCpltCallback = NULL;
 1959              		.loc 1 898 9 is_stmt 1 view .LVU647
 898:Drivers/STM32C0xx_HAL_Driver/Src/stm32c0xx_hal_dma.c ****         hdma->XferHalfCpltCallback = NULL;
 1960              		.loc 1 898 32 is_stmt 0 view .LVU648
 1961 0050 0022     		movs	r2, #0
 1962 0052 DA62     		str	r2, [r3, #44]
 899:Drivers/STM32C0xx_HAL_Driver/Src/stm32c0xx_hal_dma.c ****         hdma->XferErrorCallback = NULL;
 1963              		.loc 1 899 9 is_stmt 1 view .LVU649
 899:Drivers/STM32C0xx_HAL_Driver/Src/stm32c0xx_hal_dma.c ****         hdma->XferErrorCallback = NULL;
 1964              		.loc 1 899 36 is_stmt 0 view .LVU650
 1965 0054 1A63     		str	r2, [r3, #48]
 900:Drivers/STM32C0xx_HAL_Driver/Src/stm32c0xx_hal_dma.c ****         hdma->XferAbortCallback = NULL;
 1966              		.loc 1 900 9 is_stmt 1 view .LVU651
 900:Drivers/STM32C0xx_HAL_Driver/Src/stm32c0xx_hal_dma.c ****         hdma->XferAbortCallback = NULL;
 1967              		.loc 1 900 33 is_stmt 0 view .LVU652
ARM GAS  C:\Users\simay\AppData\Local\Temp\cc43TqXJ.s 			page 64


 1968 0056 5A63     		str	r2, [r3, #52]
 901:Drivers/STM32C0xx_HAL_Driver/Src/stm32c0xx_hal_dma.c ****         break;
 1969              		.loc 1 901 9 is_stmt 1 view .LVU653
 901:Drivers/STM32C0xx_HAL_Driver/Src/stm32c0xx_hal_dma.c ****         break;
 1970              		.loc 1 901 33 is_stmt 0 view .LVU654
 1971 0058 9A63     		str	r2, [r3, #56]
 902:Drivers/STM32C0xx_HAL_Driver/Src/stm32c0xx_hal_dma.c **** 
 1972              		.loc 1 902 9 is_stmt 1 view .LVU655
 872:Drivers/STM32C0xx_HAL_Driver/Src/stm32c0xx_hal_dma.c **** 
 1973              		.loc 1 872 21 is_stmt 0 view .LVU656
 1974 005a 0020     		movs	r0, #0
 902:Drivers/STM32C0xx_HAL_Driver/Src/stm32c0xx_hal_dma.c **** 
 1975              		.loc 1 902 9 view .LVU657
 1976 005c DEE7     		b	.L109
 1977              	.LVL117:
 1978              	.L116:
 875:Drivers/STM32C0xx_HAL_Driver/Src/stm32c0xx_hal_dma.c **** 
 1979              		.loc 1 875 3 discriminator 1 view .LVU658
 1980 005e 0220     		movs	r0, #2
 1981              	.LVL118:
 875:Drivers/STM32C0xx_HAL_Driver/Src/stm32c0xx_hal_dma.c **** 
 1982              		.loc 1 875 3 discriminator 1 view .LVU659
 1983 0060 DFE7     		b	.L108
 1984              	.L120:
 1985 0062 C046     		.align	2
 1986              	.L119:
 1987 0064 00000000 		.word	.L111
 1988              		.cfi_endproc
 1989              	.LFE239:
 1991              		.section	.text.HAL_DMA_GetState,"ax",%progbits
 1992              		.align	1
 1993              		.global	HAL_DMA_GetState
 1994              		.syntax unified
 1995              		.code	16
 1996              		.thumb_func
 1998              	HAL_DMA_GetState:
 1999              	.LVL119:
 2000              	.LFB240:
 947:Drivers/STM32C0xx_HAL_Driver/Src/stm32c0xx_hal_dma.c ****   /* Return DMA handle state */
 2001              		.loc 1 947 1 is_stmt 1 view -0
 2002              		.cfi_startproc
 2003              		@ args = 0, pretend = 0, frame = 0
 2004              		@ frame_needed = 0, uses_anonymous_args = 0
 2005              		@ link register save eliminated.
 949:Drivers/STM32C0xx_HAL_Driver/Src/stm32c0xx_hal_dma.c **** }
 2006              		.loc 1 949 3 view .LVU661
 949:Drivers/STM32C0xx_HAL_Driver/Src/stm32c0xx_hal_dma.c **** }
 2007              		.loc 1 949 14 is_stmt 0 view .LVU662
 2008 0000 2523     		movs	r3, #37
 2009 0002 C05C     		ldrb	r0, [r0, r3]
 2010              	.LVL120:
 949:Drivers/STM32C0xx_HAL_Driver/Src/stm32c0xx_hal_dma.c **** }
 2011              		.loc 1 949 14 view .LVU663
 2012 0004 C0B2     		uxtb	r0, r0
 950:Drivers/STM32C0xx_HAL_Driver/Src/stm32c0xx_hal_dma.c **** 
 2013              		.loc 1 950 1 view .LVU664
 2014              		@ sp needed
ARM GAS  C:\Users\simay\AppData\Local\Temp\cc43TqXJ.s 			page 65


 2015 0006 7047     		bx	lr
 2016              		.cfi_endproc
 2017              	.LFE240:
 2019              		.section	.text.HAL_DMA_GetError,"ax",%progbits
 2020              		.align	1
 2021              		.global	HAL_DMA_GetError
 2022              		.syntax unified
 2023              		.code	16
 2024              		.thumb_func
 2026              	HAL_DMA_GetError:
 2027              	.LVL121:
 2028              	.LFB241:
 959:Drivers/STM32C0xx_HAL_Driver/Src/stm32c0xx_hal_dma.c ****   return hdma->ErrorCode;
 2029              		.loc 1 959 1 is_stmt 1 view -0
 2030              		.cfi_startproc
 2031              		@ args = 0, pretend = 0, frame = 0
 2032              		@ frame_needed = 0, uses_anonymous_args = 0
 2033              		@ link register save eliminated.
 960:Drivers/STM32C0xx_HAL_Driver/Src/stm32c0xx_hal_dma.c **** }
 2034              		.loc 1 960 3 view .LVU666
 960:Drivers/STM32C0xx_HAL_Driver/Src/stm32c0xx_hal_dma.c **** }
 2035              		.loc 1 960 14 is_stmt 0 view .LVU667
 2036 0000 C06B     		ldr	r0, [r0, #60]
 2037              	.LVL122:
 961:Drivers/STM32C0xx_HAL_Driver/Src/stm32c0xx_hal_dma.c **** 
 2038              		.loc 1 961 1 view .LVU668
 2039              		@ sp needed
 2040 0002 7047     		bx	lr
 2041              		.cfi_endproc
 2042              	.LFE241:
 2044              		.text
 2045              	.Letext0:
 2046              		.file 2 "C:/Users/simay/CTOOLS-ARM/arm-none-eabi/include/machine/_default_types.h"
 2047              		.file 3 "C:/Users/simay/CTOOLS-ARM/arm-none-eabi/include/sys/_stdint.h"
 2048              		.file 4 "Drivers/CMSIS/Device/ST/STM32C0xx/Include/stm32c092xx.h"
 2049              		.file 5 "Drivers/STM32C0xx_HAL_Driver/Inc/stm32c0xx_hal_def.h"
 2050              		.file 6 "Drivers/STM32C0xx_HAL_Driver/Inc/stm32c0xx_hal_dma.h"
 2051              		.file 7 "Drivers/STM32C0xx_HAL_Driver/Inc/stm32c0xx_hal.h"
ARM GAS  C:\Users\simay\AppData\Local\Temp\cc43TqXJ.s 			page 66

